opt subtitle "Microchip Technology Omniscient Code Generator (Lite mode) build 59893"

opt pagewidth 120

	opt lm

	processor	16F877A
clrc	macro
	bcf	3,0
	endm
clrz	macro
	bcf	3,2
	endm
setc	macro
	bsf	3,0
	endm
setz	macro
	bsf	3,2
	endm
skipc	macro
	btfss	3,0
	endm
skipz	macro
	btfss	3,2
	endm
skipnc	macro
	btfsc	3,0
	endm
skipnz	macro
	btfsc	3,2
	endm
indf	equ	0
indf0	equ	0
pc	equ	2
pcl	equ	2
status	equ	3
fsr	equ	4
fsr0	equ	4
c	equ	1
z	equ	0
pclath	equ	10
# 49 "C:\Program Files (x86)\Microchip\xc8\v1.33\include\pic16f877a.h"
INDF equ 00h ;# 
# 55 "C:\Program Files (x86)\Microchip\xc8\v1.33\include\pic16f877a.h"
TMR0 equ 01h ;# 
# 61 "C:\Program Files (x86)\Microchip\xc8\v1.33\include\pic16f877a.h"
PCL equ 02h ;# 
# 67 "C:\Program Files (x86)\Microchip\xc8\v1.33\include\pic16f877a.h"
STATUS equ 03h ;# 
# 154 "C:\Program Files (x86)\Microchip\xc8\v1.33\include\pic16f877a.h"
FSR equ 04h ;# 
# 160 "C:\Program Files (x86)\Microchip\xc8\v1.33\include\pic16f877a.h"
PORTA equ 05h ;# 
# 209 "C:\Program Files (x86)\Microchip\xc8\v1.33\include\pic16f877a.h"
PORTB equ 06h ;# 
# 270 "C:\Program Files (x86)\Microchip\xc8\v1.33\include\pic16f877a.h"
PORTC equ 07h ;# 
# 331 "C:\Program Files (x86)\Microchip\xc8\v1.33\include\pic16f877a.h"
PORTD equ 08h ;# 
# 392 "C:\Program Files (x86)\Microchip\xc8\v1.33\include\pic16f877a.h"
PORTE equ 09h ;# 
# 423 "C:\Program Files (x86)\Microchip\xc8\v1.33\include\pic16f877a.h"
PCLATH equ 0Ah ;# 
# 442 "C:\Program Files (x86)\Microchip\xc8\v1.33\include\pic16f877a.h"
INTCON equ 0Bh ;# 
# 519 "C:\Program Files (x86)\Microchip\xc8\v1.33\include\pic16f877a.h"
PIR1 equ 0Ch ;# 
# 580 "C:\Program Files (x86)\Microchip\xc8\v1.33\include\pic16f877a.h"
PIR2 equ 0Dh ;# 
# 619 "C:\Program Files (x86)\Microchip\xc8\v1.33\include\pic16f877a.h"
TMR1 equ 0Eh ;# 
# 625 "C:\Program Files (x86)\Microchip\xc8\v1.33\include\pic16f877a.h"
TMR1L equ 0Eh ;# 
# 631 "C:\Program Files (x86)\Microchip\xc8\v1.33\include\pic16f877a.h"
TMR1H equ 0Fh ;# 
# 637 "C:\Program Files (x86)\Microchip\xc8\v1.33\include\pic16f877a.h"
T1CON equ 010h ;# 
# 711 "C:\Program Files (x86)\Microchip\xc8\v1.33\include\pic16f877a.h"
TMR2 equ 011h ;# 
# 717 "C:\Program Files (x86)\Microchip\xc8\v1.33\include\pic16f877a.h"
T2CON equ 012h ;# 
# 787 "C:\Program Files (x86)\Microchip\xc8\v1.33\include\pic16f877a.h"
SSPBUF equ 013h ;# 
# 793 "C:\Program Files (x86)\Microchip\xc8\v1.33\include\pic16f877a.h"
SSPCON equ 014h ;# 
# 862 "C:\Program Files (x86)\Microchip\xc8\v1.33\include\pic16f877a.h"
CCPR1 equ 015h ;# 
# 868 "C:\Program Files (x86)\Microchip\xc8\v1.33\include\pic16f877a.h"
CCPR1L equ 015h ;# 
# 874 "C:\Program Files (x86)\Microchip\xc8\v1.33\include\pic16f877a.h"
CCPR1H equ 016h ;# 
# 880 "C:\Program Files (x86)\Microchip\xc8\v1.33\include\pic16f877a.h"
CCP1CON equ 017h ;# 
# 937 "C:\Program Files (x86)\Microchip\xc8\v1.33\include\pic16f877a.h"
RCSTA equ 018h ;# 
# 1031 "C:\Program Files (x86)\Microchip\xc8\v1.33\include\pic16f877a.h"
TXREG equ 019h ;# 
# 1037 "C:\Program Files (x86)\Microchip\xc8\v1.33\include\pic16f877a.h"
RCREG equ 01Ah ;# 
# 1043 "C:\Program Files (x86)\Microchip\xc8\v1.33\include\pic16f877a.h"
CCPR2 equ 01Bh ;# 
# 1049 "C:\Program Files (x86)\Microchip\xc8\v1.33\include\pic16f877a.h"
CCPR2L equ 01Bh ;# 
# 1055 "C:\Program Files (x86)\Microchip\xc8\v1.33\include\pic16f877a.h"
CCPR2H equ 01Ch ;# 
# 1061 "C:\Program Files (x86)\Microchip\xc8\v1.33\include\pic16f877a.h"
CCP2CON equ 01Dh ;# 
# 1118 "C:\Program Files (x86)\Microchip\xc8\v1.33\include\pic16f877a.h"
ADRESH equ 01Eh ;# 
# 1124 "C:\Program Files (x86)\Microchip\xc8\v1.33\include\pic16f877a.h"
ADCON0 equ 01Fh ;# 
# 1219 "C:\Program Files (x86)\Microchip\xc8\v1.33\include\pic16f877a.h"
OPTION_REG equ 081h ;# 
# 1288 "C:\Program Files (x86)\Microchip\xc8\v1.33\include\pic16f877a.h"
TRISA equ 085h ;# 
# 1337 "C:\Program Files (x86)\Microchip\xc8\v1.33\include\pic16f877a.h"
TRISB equ 086h ;# 
# 1398 "C:\Program Files (x86)\Microchip\xc8\v1.33\include\pic16f877a.h"
TRISC equ 087h ;# 
# 1459 "C:\Program Files (x86)\Microchip\xc8\v1.33\include\pic16f877a.h"
TRISD equ 088h ;# 
# 1520 "C:\Program Files (x86)\Microchip\xc8\v1.33\include\pic16f877a.h"
TRISE equ 089h ;# 
# 1576 "C:\Program Files (x86)\Microchip\xc8\v1.33\include\pic16f877a.h"
PIE1 equ 08Ch ;# 
# 1637 "C:\Program Files (x86)\Microchip\xc8\v1.33\include\pic16f877a.h"
PIE2 equ 08Dh ;# 
# 1676 "C:\Program Files (x86)\Microchip\xc8\v1.33\include\pic16f877a.h"
PCON equ 08Eh ;# 
# 1709 "C:\Program Files (x86)\Microchip\xc8\v1.33\include\pic16f877a.h"
SSPCON2 equ 091h ;# 
# 1770 "C:\Program Files (x86)\Microchip\xc8\v1.33\include\pic16f877a.h"
PR2 equ 092h ;# 
# 1776 "C:\Program Files (x86)\Microchip\xc8\v1.33\include\pic16f877a.h"
SSPADD equ 093h ;# 
# 1782 "C:\Program Files (x86)\Microchip\xc8\v1.33\include\pic16f877a.h"
SSPSTAT equ 094h ;# 
# 1950 "C:\Program Files (x86)\Microchip\xc8\v1.33\include\pic16f877a.h"
TXSTA equ 098h ;# 
# 2030 "C:\Program Files (x86)\Microchip\xc8\v1.33\include\pic16f877a.h"
SPBRG equ 099h ;# 
# 2036 "C:\Program Files (x86)\Microchip\xc8\v1.33\include\pic16f877a.h"
CMCON equ 09Ch ;# 
# 2105 "C:\Program Files (x86)\Microchip\xc8\v1.33\include\pic16f877a.h"
CVRCON equ 09Dh ;# 
# 2169 "C:\Program Files (x86)\Microchip\xc8\v1.33\include\pic16f877a.h"
ADRESL equ 09Eh ;# 
# 2175 "C:\Program Files (x86)\Microchip\xc8\v1.33\include\pic16f877a.h"
ADCON1 equ 09Fh ;# 
# 2233 "C:\Program Files (x86)\Microchip\xc8\v1.33\include\pic16f877a.h"
EEDATA equ 010Ch ;# 
# 2239 "C:\Program Files (x86)\Microchip\xc8\v1.33\include\pic16f877a.h"
EEADR equ 010Dh ;# 
# 2245 "C:\Program Files (x86)\Microchip\xc8\v1.33\include\pic16f877a.h"
EEDATH equ 010Eh ;# 
# 2251 "C:\Program Files (x86)\Microchip\xc8\v1.33\include\pic16f877a.h"
EEADRH equ 010Fh ;# 
# 2257 "C:\Program Files (x86)\Microchip\xc8\v1.33\include\pic16f877a.h"
EECON1 equ 018Ch ;# 
# 2301 "C:\Program Files (x86)\Microchip\xc8\v1.33\include\pic16f877a.h"
EECON2 equ 018Dh ;# 
# 49 "C:\Program Files (x86)\Microchip\xc8\v1.33\include\pic16f877a.h"
INDF equ 00h ;# 
# 55 "C:\Program Files (x86)\Microchip\xc8\v1.33\include\pic16f877a.h"
TMR0 equ 01h ;# 
# 61 "C:\Program Files (x86)\Microchip\xc8\v1.33\include\pic16f877a.h"
PCL equ 02h ;# 
# 67 "C:\Program Files (x86)\Microchip\xc8\v1.33\include\pic16f877a.h"
STATUS equ 03h ;# 
# 154 "C:\Program Files (x86)\Microchip\xc8\v1.33\include\pic16f877a.h"
FSR equ 04h ;# 
# 160 "C:\Program Files (x86)\Microchip\xc8\v1.33\include\pic16f877a.h"
PORTA equ 05h ;# 
# 209 "C:\Program Files (x86)\Microchip\xc8\v1.33\include\pic16f877a.h"
PORTB equ 06h ;# 
# 270 "C:\Program Files (x86)\Microchip\xc8\v1.33\include\pic16f877a.h"
PORTC equ 07h ;# 
# 331 "C:\Program Files (x86)\Microchip\xc8\v1.33\include\pic16f877a.h"
PORTD equ 08h ;# 
# 392 "C:\Program Files (x86)\Microchip\xc8\v1.33\include\pic16f877a.h"
PORTE equ 09h ;# 
# 423 "C:\Program Files (x86)\Microchip\xc8\v1.33\include\pic16f877a.h"
PCLATH equ 0Ah ;# 
# 442 "C:\Program Files (x86)\Microchip\xc8\v1.33\include\pic16f877a.h"
INTCON equ 0Bh ;# 
# 519 "C:\Program Files (x86)\Microchip\xc8\v1.33\include\pic16f877a.h"
PIR1 equ 0Ch ;# 
# 580 "C:\Program Files (x86)\Microchip\xc8\v1.33\include\pic16f877a.h"
PIR2 equ 0Dh ;# 
# 619 "C:\Program Files (x86)\Microchip\xc8\v1.33\include\pic16f877a.h"
TMR1 equ 0Eh ;# 
# 625 "C:\Program Files (x86)\Microchip\xc8\v1.33\include\pic16f877a.h"
TMR1L equ 0Eh ;# 
# 631 "C:\Program Files (x86)\Microchip\xc8\v1.33\include\pic16f877a.h"
TMR1H equ 0Fh ;# 
# 637 "C:\Program Files (x86)\Microchip\xc8\v1.33\include\pic16f877a.h"
T1CON equ 010h ;# 
# 711 "C:\Program Files (x86)\Microchip\xc8\v1.33\include\pic16f877a.h"
TMR2 equ 011h ;# 
# 717 "C:\Program Files (x86)\Microchip\xc8\v1.33\include\pic16f877a.h"
T2CON equ 012h ;# 
# 787 "C:\Program Files (x86)\Microchip\xc8\v1.33\include\pic16f877a.h"
SSPBUF equ 013h ;# 
# 793 "C:\Program Files (x86)\Microchip\xc8\v1.33\include\pic16f877a.h"
SSPCON equ 014h ;# 
# 862 "C:\Program Files (x86)\Microchip\xc8\v1.33\include\pic16f877a.h"
CCPR1 equ 015h ;# 
# 868 "C:\Program Files (x86)\Microchip\xc8\v1.33\include\pic16f877a.h"
CCPR1L equ 015h ;# 
# 874 "C:\Program Files (x86)\Microchip\xc8\v1.33\include\pic16f877a.h"
CCPR1H equ 016h ;# 
# 880 "C:\Program Files (x86)\Microchip\xc8\v1.33\include\pic16f877a.h"
CCP1CON equ 017h ;# 
# 937 "C:\Program Files (x86)\Microchip\xc8\v1.33\include\pic16f877a.h"
RCSTA equ 018h ;# 
# 1031 "C:\Program Files (x86)\Microchip\xc8\v1.33\include\pic16f877a.h"
TXREG equ 019h ;# 
# 1037 "C:\Program Files (x86)\Microchip\xc8\v1.33\include\pic16f877a.h"
RCREG equ 01Ah ;# 
# 1043 "C:\Program Files (x86)\Microchip\xc8\v1.33\include\pic16f877a.h"
CCPR2 equ 01Bh ;# 
# 1049 "C:\Program Files (x86)\Microchip\xc8\v1.33\include\pic16f877a.h"
CCPR2L equ 01Bh ;# 
# 1055 "C:\Program Files (x86)\Microchip\xc8\v1.33\include\pic16f877a.h"
CCPR2H equ 01Ch ;# 
# 1061 "C:\Program Files (x86)\Microchip\xc8\v1.33\include\pic16f877a.h"
CCP2CON equ 01Dh ;# 
# 1118 "C:\Program Files (x86)\Microchip\xc8\v1.33\include\pic16f877a.h"
ADRESH equ 01Eh ;# 
# 1124 "C:\Program Files (x86)\Microchip\xc8\v1.33\include\pic16f877a.h"
ADCON0 equ 01Fh ;# 
# 1219 "C:\Program Files (x86)\Microchip\xc8\v1.33\include\pic16f877a.h"
OPTION_REG equ 081h ;# 
# 1288 "C:\Program Files (x86)\Microchip\xc8\v1.33\include\pic16f877a.h"
TRISA equ 085h ;# 
# 1337 "C:\Program Files (x86)\Microchip\xc8\v1.33\include\pic16f877a.h"
TRISB equ 086h ;# 
# 1398 "C:\Program Files (x86)\Microchip\xc8\v1.33\include\pic16f877a.h"
TRISC equ 087h ;# 
# 1459 "C:\Program Files (x86)\Microchip\xc8\v1.33\include\pic16f877a.h"
TRISD equ 088h ;# 
# 1520 "C:\Program Files (x86)\Microchip\xc8\v1.33\include\pic16f877a.h"
TRISE equ 089h ;# 
# 1576 "C:\Program Files (x86)\Microchip\xc8\v1.33\include\pic16f877a.h"
PIE1 equ 08Ch ;# 
# 1637 "C:\Program Files (x86)\Microchip\xc8\v1.33\include\pic16f877a.h"
PIE2 equ 08Dh ;# 
# 1676 "C:\Program Files (x86)\Microchip\xc8\v1.33\include\pic16f877a.h"
PCON equ 08Eh ;# 
# 1709 "C:\Program Files (x86)\Microchip\xc8\v1.33\include\pic16f877a.h"
SSPCON2 equ 091h ;# 
# 1770 "C:\Program Files (x86)\Microchip\xc8\v1.33\include\pic16f877a.h"
PR2 equ 092h ;# 
# 1776 "C:\Program Files (x86)\Microchip\xc8\v1.33\include\pic16f877a.h"
SSPADD equ 093h ;# 
# 1782 "C:\Program Files (x86)\Microchip\xc8\v1.33\include\pic16f877a.h"
SSPSTAT equ 094h ;# 
# 1950 "C:\Program Files (x86)\Microchip\xc8\v1.33\include\pic16f877a.h"
TXSTA equ 098h ;# 
# 2030 "C:\Program Files (x86)\Microchip\xc8\v1.33\include\pic16f877a.h"
SPBRG equ 099h ;# 
# 2036 "C:\Program Files (x86)\Microchip\xc8\v1.33\include\pic16f877a.h"
CMCON equ 09Ch ;# 
# 2105 "C:\Program Files (x86)\Microchip\xc8\v1.33\include\pic16f877a.h"
CVRCON equ 09Dh ;# 
# 2169 "C:\Program Files (x86)\Microchip\xc8\v1.33\include\pic16f877a.h"
ADRESL equ 09Eh ;# 
# 2175 "C:\Program Files (x86)\Microchip\xc8\v1.33\include\pic16f877a.h"
ADCON1 equ 09Fh ;# 
# 2233 "C:\Program Files (x86)\Microchip\xc8\v1.33\include\pic16f877a.h"
EEDATA equ 010Ch ;# 
# 2239 "C:\Program Files (x86)\Microchip\xc8\v1.33\include\pic16f877a.h"
EEADR equ 010Dh ;# 
# 2245 "C:\Program Files (x86)\Microchip\xc8\v1.33\include\pic16f877a.h"
EEDATH equ 010Eh ;# 
# 2251 "C:\Program Files (x86)\Microchip\xc8\v1.33\include\pic16f877a.h"
EEADRH equ 010Fh ;# 
# 2257 "C:\Program Files (x86)\Microchip\xc8\v1.33\include\pic16f877a.h"
EECON1 equ 018Ch ;# 
# 2301 "C:\Program Files (x86)\Microchip\xc8\v1.33\include\pic16f877a.h"
EECON2 equ 018Dh ;# 
# 49 "C:\Program Files (x86)\Microchip\xc8\v1.33\include\pic16f877a.h"
INDF equ 00h ;# 
# 55 "C:\Program Files (x86)\Microchip\xc8\v1.33\include\pic16f877a.h"
TMR0 equ 01h ;# 
# 61 "C:\Program Files (x86)\Microchip\xc8\v1.33\include\pic16f877a.h"
PCL equ 02h ;# 
# 67 "C:\Program Files (x86)\Microchip\xc8\v1.33\include\pic16f877a.h"
STATUS equ 03h ;# 
# 154 "C:\Program Files (x86)\Microchip\xc8\v1.33\include\pic16f877a.h"
FSR equ 04h ;# 
# 160 "C:\Program Files (x86)\Microchip\xc8\v1.33\include\pic16f877a.h"
PORTA equ 05h ;# 
# 209 "C:\Program Files (x86)\Microchip\xc8\v1.33\include\pic16f877a.h"
PORTB equ 06h ;# 
# 270 "C:\Program Files (x86)\Microchip\xc8\v1.33\include\pic16f877a.h"
PORTC equ 07h ;# 
# 331 "C:\Program Files (x86)\Microchip\xc8\v1.33\include\pic16f877a.h"
PORTD equ 08h ;# 
# 392 "C:\Program Files (x86)\Microchip\xc8\v1.33\include\pic16f877a.h"
PORTE equ 09h ;# 
# 423 "C:\Program Files (x86)\Microchip\xc8\v1.33\include\pic16f877a.h"
PCLATH equ 0Ah ;# 
# 442 "C:\Program Files (x86)\Microchip\xc8\v1.33\include\pic16f877a.h"
INTCON equ 0Bh ;# 
# 519 "C:\Program Files (x86)\Microchip\xc8\v1.33\include\pic16f877a.h"
PIR1 equ 0Ch ;# 
# 580 "C:\Program Files (x86)\Microchip\xc8\v1.33\include\pic16f877a.h"
PIR2 equ 0Dh ;# 
# 619 "C:\Program Files (x86)\Microchip\xc8\v1.33\include\pic16f877a.h"
TMR1 equ 0Eh ;# 
# 625 "C:\Program Files (x86)\Microchip\xc8\v1.33\include\pic16f877a.h"
TMR1L equ 0Eh ;# 
# 631 "C:\Program Files (x86)\Microchip\xc8\v1.33\include\pic16f877a.h"
TMR1H equ 0Fh ;# 
# 637 "C:\Program Files (x86)\Microchip\xc8\v1.33\include\pic16f877a.h"
T1CON equ 010h ;# 
# 711 "C:\Program Files (x86)\Microchip\xc8\v1.33\include\pic16f877a.h"
TMR2 equ 011h ;# 
# 717 "C:\Program Files (x86)\Microchip\xc8\v1.33\include\pic16f877a.h"
T2CON equ 012h ;# 
# 787 "C:\Program Files (x86)\Microchip\xc8\v1.33\include\pic16f877a.h"
SSPBUF equ 013h ;# 
# 793 "C:\Program Files (x86)\Microchip\xc8\v1.33\include\pic16f877a.h"
SSPCON equ 014h ;# 
# 862 "C:\Program Files (x86)\Microchip\xc8\v1.33\include\pic16f877a.h"
CCPR1 equ 015h ;# 
# 868 "C:\Program Files (x86)\Microchip\xc8\v1.33\include\pic16f877a.h"
CCPR1L equ 015h ;# 
# 874 "C:\Program Files (x86)\Microchip\xc8\v1.33\include\pic16f877a.h"
CCPR1H equ 016h ;# 
# 880 "C:\Program Files (x86)\Microchip\xc8\v1.33\include\pic16f877a.h"
CCP1CON equ 017h ;# 
# 937 "C:\Program Files (x86)\Microchip\xc8\v1.33\include\pic16f877a.h"
RCSTA equ 018h ;# 
# 1031 "C:\Program Files (x86)\Microchip\xc8\v1.33\include\pic16f877a.h"
TXREG equ 019h ;# 
# 1037 "C:\Program Files (x86)\Microchip\xc8\v1.33\include\pic16f877a.h"
RCREG equ 01Ah ;# 
# 1043 "C:\Program Files (x86)\Microchip\xc8\v1.33\include\pic16f877a.h"
CCPR2 equ 01Bh ;# 
# 1049 "C:\Program Files (x86)\Microchip\xc8\v1.33\include\pic16f877a.h"
CCPR2L equ 01Bh ;# 
# 1055 "C:\Program Files (x86)\Microchip\xc8\v1.33\include\pic16f877a.h"
CCPR2H equ 01Ch ;# 
# 1061 "C:\Program Files (x86)\Microchip\xc8\v1.33\include\pic16f877a.h"
CCP2CON equ 01Dh ;# 
# 1118 "C:\Program Files (x86)\Microchip\xc8\v1.33\include\pic16f877a.h"
ADRESH equ 01Eh ;# 
# 1124 "C:\Program Files (x86)\Microchip\xc8\v1.33\include\pic16f877a.h"
ADCON0 equ 01Fh ;# 
# 1219 "C:\Program Files (x86)\Microchip\xc8\v1.33\include\pic16f877a.h"
OPTION_REG equ 081h ;# 
# 1288 "C:\Program Files (x86)\Microchip\xc8\v1.33\include\pic16f877a.h"
TRISA equ 085h ;# 
# 1337 "C:\Program Files (x86)\Microchip\xc8\v1.33\include\pic16f877a.h"
TRISB equ 086h ;# 
# 1398 "C:\Program Files (x86)\Microchip\xc8\v1.33\include\pic16f877a.h"
TRISC equ 087h ;# 
# 1459 "C:\Program Files (x86)\Microchip\xc8\v1.33\include\pic16f877a.h"
TRISD equ 088h ;# 
# 1520 "C:\Program Files (x86)\Microchip\xc8\v1.33\include\pic16f877a.h"
TRISE equ 089h ;# 
# 1576 "C:\Program Files (x86)\Microchip\xc8\v1.33\include\pic16f877a.h"
PIE1 equ 08Ch ;# 
# 1637 "C:\Program Files (x86)\Microchip\xc8\v1.33\include\pic16f877a.h"
PIE2 equ 08Dh ;# 
# 1676 "C:\Program Files (x86)\Microchip\xc8\v1.33\include\pic16f877a.h"
PCON equ 08Eh ;# 
# 1709 "C:\Program Files (x86)\Microchip\xc8\v1.33\include\pic16f877a.h"
SSPCON2 equ 091h ;# 
# 1770 "C:\Program Files (x86)\Microchip\xc8\v1.33\include\pic16f877a.h"
PR2 equ 092h ;# 
# 1776 "C:\Program Files (x86)\Microchip\xc8\v1.33\include\pic16f877a.h"
SSPADD equ 093h ;# 
# 1782 "C:\Program Files (x86)\Microchip\xc8\v1.33\include\pic16f877a.h"
SSPSTAT equ 094h ;# 
# 1950 "C:\Program Files (x86)\Microchip\xc8\v1.33\include\pic16f877a.h"
TXSTA equ 098h ;# 
# 2030 "C:\Program Files (x86)\Microchip\xc8\v1.33\include\pic16f877a.h"
SPBRG equ 099h ;# 
# 2036 "C:\Program Files (x86)\Microchip\xc8\v1.33\include\pic16f877a.h"
CMCON equ 09Ch ;# 
# 2105 "C:\Program Files (x86)\Microchip\xc8\v1.33\include\pic16f877a.h"
CVRCON equ 09Dh ;# 
# 2169 "C:\Program Files (x86)\Microchip\xc8\v1.33\include\pic16f877a.h"
ADRESL equ 09Eh ;# 
# 2175 "C:\Program Files (x86)\Microchip\xc8\v1.33\include\pic16f877a.h"
ADCON1 equ 09Fh ;# 
# 2233 "C:\Program Files (x86)\Microchip\xc8\v1.33\include\pic16f877a.h"
EEDATA equ 010Ch ;# 
# 2239 "C:\Program Files (x86)\Microchip\xc8\v1.33\include\pic16f877a.h"
EEADR equ 010Dh ;# 
# 2245 "C:\Program Files (x86)\Microchip\xc8\v1.33\include\pic16f877a.h"
EEDATH equ 010Eh ;# 
# 2251 "C:\Program Files (x86)\Microchip\xc8\v1.33\include\pic16f877a.h"
EEADRH equ 010Fh ;# 
# 2257 "C:\Program Files (x86)\Microchip\xc8\v1.33\include\pic16f877a.h"
EECON1 equ 018Ch ;# 
# 2301 "C:\Program Files (x86)\Microchip\xc8\v1.33\include\pic16f877a.h"
EECON2 equ 018Dh ;# 
# 49 "C:\Program Files (x86)\Microchip\xc8\v1.33\include\pic16f877a.h"
INDF equ 00h ;# 
# 55 "C:\Program Files (x86)\Microchip\xc8\v1.33\include\pic16f877a.h"
TMR0 equ 01h ;# 
# 61 "C:\Program Files (x86)\Microchip\xc8\v1.33\include\pic16f877a.h"
PCL equ 02h ;# 
# 67 "C:\Program Files (x86)\Microchip\xc8\v1.33\include\pic16f877a.h"
STATUS equ 03h ;# 
# 154 "C:\Program Files (x86)\Microchip\xc8\v1.33\include\pic16f877a.h"
FSR equ 04h ;# 
# 160 "C:\Program Files (x86)\Microchip\xc8\v1.33\include\pic16f877a.h"
PORTA equ 05h ;# 
# 209 "C:\Program Files (x86)\Microchip\xc8\v1.33\include\pic16f877a.h"
PORTB equ 06h ;# 
# 270 "C:\Program Files (x86)\Microchip\xc8\v1.33\include\pic16f877a.h"
PORTC equ 07h ;# 
# 331 "C:\Program Files (x86)\Microchip\xc8\v1.33\include\pic16f877a.h"
PORTD equ 08h ;# 
# 392 "C:\Program Files (x86)\Microchip\xc8\v1.33\include\pic16f877a.h"
PORTE equ 09h ;# 
# 423 "C:\Program Files (x86)\Microchip\xc8\v1.33\include\pic16f877a.h"
PCLATH equ 0Ah ;# 
# 442 "C:\Program Files (x86)\Microchip\xc8\v1.33\include\pic16f877a.h"
INTCON equ 0Bh ;# 
# 519 "C:\Program Files (x86)\Microchip\xc8\v1.33\include\pic16f877a.h"
PIR1 equ 0Ch ;# 
# 580 "C:\Program Files (x86)\Microchip\xc8\v1.33\include\pic16f877a.h"
PIR2 equ 0Dh ;# 
# 619 "C:\Program Files (x86)\Microchip\xc8\v1.33\include\pic16f877a.h"
TMR1 equ 0Eh ;# 
# 625 "C:\Program Files (x86)\Microchip\xc8\v1.33\include\pic16f877a.h"
TMR1L equ 0Eh ;# 
# 631 "C:\Program Files (x86)\Microchip\xc8\v1.33\include\pic16f877a.h"
TMR1H equ 0Fh ;# 
# 637 "C:\Program Files (x86)\Microchip\xc8\v1.33\include\pic16f877a.h"
T1CON equ 010h ;# 
# 711 "C:\Program Files (x86)\Microchip\xc8\v1.33\include\pic16f877a.h"
TMR2 equ 011h ;# 
# 717 "C:\Program Files (x86)\Microchip\xc8\v1.33\include\pic16f877a.h"
T2CON equ 012h ;# 
# 787 "C:\Program Files (x86)\Microchip\xc8\v1.33\include\pic16f877a.h"
SSPBUF equ 013h ;# 
# 793 "C:\Program Files (x86)\Microchip\xc8\v1.33\include\pic16f877a.h"
SSPCON equ 014h ;# 
# 862 "C:\Program Files (x86)\Microchip\xc8\v1.33\include\pic16f877a.h"
CCPR1 equ 015h ;# 
# 868 "C:\Program Files (x86)\Microchip\xc8\v1.33\include\pic16f877a.h"
CCPR1L equ 015h ;# 
# 874 "C:\Program Files (x86)\Microchip\xc8\v1.33\include\pic16f877a.h"
CCPR1H equ 016h ;# 
# 880 "C:\Program Files (x86)\Microchip\xc8\v1.33\include\pic16f877a.h"
CCP1CON equ 017h ;# 
# 937 "C:\Program Files (x86)\Microchip\xc8\v1.33\include\pic16f877a.h"
RCSTA equ 018h ;# 
# 1031 "C:\Program Files (x86)\Microchip\xc8\v1.33\include\pic16f877a.h"
TXREG equ 019h ;# 
# 1037 "C:\Program Files (x86)\Microchip\xc8\v1.33\include\pic16f877a.h"
RCREG equ 01Ah ;# 
# 1043 "C:\Program Files (x86)\Microchip\xc8\v1.33\include\pic16f877a.h"
CCPR2 equ 01Bh ;# 
# 1049 "C:\Program Files (x86)\Microchip\xc8\v1.33\include\pic16f877a.h"
CCPR2L equ 01Bh ;# 
# 1055 "C:\Program Files (x86)\Microchip\xc8\v1.33\include\pic16f877a.h"
CCPR2H equ 01Ch ;# 
# 1061 "C:\Program Files (x86)\Microchip\xc8\v1.33\include\pic16f877a.h"
CCP2CON equ 01Dh ;# 
# 1118 "C:\Program Files (x86)\Microchip\xc8\v1.33\include\pic16f877a.h"
ADRESH equ 01Eh ;# 
# 1124 "C:\Program Files (x86)\Microchip\xc8\v1.33\include\pic16f877a.h"
ADCON0 equ 01Fh ;# 
# 1219 "C:\Program Files (x86)\Microchip\xc8\v1.33\include\pic16f877a.h"
OPTION_REG equ 081h ;# 
# 1288 "C:\Program Files (x86)\Microchip\xc8\v1.33\include\pic16f877a.h"
TRISA equ 085h ;# 
# 1337 "C:\Program Files (x86)\Microchip\xc8\v1.33\include\pic16f877a.h"
TRISB equ 086h ;# 
# 1398 "C:\Program Files (x86)\Microchip\xc8\v1.33\include\pic16f877a.h"
TRISC equ 087h ;# 
# 1459 "C:\Program Files (x86)\Microchip\xc8\v1.33\include\pic16f877a.h"
TRISD equ 088h ;# 
# 1520 "C:\Program Files (x86)\Microchip\xc8\v1.33\include\pic16f877a.h"
TRISE equ 089h ;# 
# 1576 "C:\Program Files (x86)\Microchip\xc8\v1.33\include\pic16f877a.h"
PIE1 equ 08Ch ;# 
# 1637 "C:\Program Files (x86)\Microchip\xc8\v1.33\include\pic16f877a.h"
PIE2 equ 08Dh ;# 
# 1676 "C:\Program Files (x86)\Microchip\xc8\v1.33\include\pic16f877a.h"
PCON equ 08Eh ;# 
# 1709 "C:\Program Files (x86)\Microchip\xc8\v1.33\include\pic16f877a.h"
SSPCON2 equ 091h ;# 
# 1770 "C:\Program Files (x86)\Microchip\xc8\v1.33\include\pic16f877a.h"
PR2 equ 092h ;# 
# 1776 "C:\Program Files (x86)\Microchip\xc8\v1.33\include\pic16f877a.h"
SSPADD equ 093h ;# 
# 1782 "C:\Program Files (x86)\Microchip\xc8\v1.33\include\pic16f877a.h"
SSPSTAT equ 094h ;# 
# 1950 "C:\Program Files (x86)\Microchip\xc8\v1.33\include\pic16f877a.h"
TXSTA equ 098h ;# 
# 2030 "C:\Program Files (x86)\Microchip\xc8\v1.33\include\pic16f877a.h"
SPBRG equ 099h ;# 
# 2036 "C:\Program Files (x86)\Microchip\xc8\v1.33\include\pic16f877a.h"
CMCON equ 09Ch ;# 
# 2105 "C:\Program Files (x86)\Microchip\xc8\v1.33\include\pic16f877a.h"
CVRCON equ 09Dh ;# 
# 2169 "C:\Program Files (x86)\Microchip\xc8\v1.33\include\pic16f877a.h"
ADRESL equ 09Eh ;# 
# 2175 "C:\Program Files (x86)\Microchip\xc8\v1.33\include\pic16f877a.h"
ADCON1 equ 09Fh ;# 
# 2233 "C:\Program Files (x86)\Microchip\xc8\v1.33\include\pic16f877a.h"
EEDATA equ 010Ch ;# 
# 2239 "C:\Program Files (x86)\Microchip\xc8\v1.33\include\pic16f877a.h"
EEADR equ 010Dh ;# 
# 2245 "C:\Program Files (x86)\Microchip\xc8\v1.33\include\pic16f877a.h"
EEDATH equ 010Eh ;# 
# 2251 "C:\Program Files (x86)\Microchip\xc8\v1.33\include\pic16f877a.h"
EEADRH equ 010Fh ;# 
# 2257 "C:\Program Files (x86)\Microchip\xc8\v1.33\include\pic16f877a.h"
EECON1 equ 018Ch ;# 
# 2301 "C:\Program Files (x86)\Microchip\xc8\v1.33\include\pic16f877a.h"
EECON2 equ 018Dh ;# 
# 49 "C:\Program Files (x86)\Microchip\xc8\v1.33\include\pic16f877a.h"
INDF equ 00h ;# 
# 55 "C:\Program Files (x86)\Microchip\xc8\v1.33\include\pic16f877a.h"
TMR0 equ 01h ;# 
# 61 "C:\Program Files (x86)\Microchip\xc8\v1.33\include\pic16f877a.h"
PCL equ 02h ;# 
# 67 "C:\Program Files (x86)\Microchip\xc8\v1.33\include\pic16f877a.h"
STATUS equ 03h ;# 
# 154 "C:\Program Files (x86)\Microchip\xc8\v1.33\include\pic16f877a.h"
FSR equ 04h ;# 
# 160 "C:\Program Files (x86)\Microchip\xc8\v1.33\include\pic16f877a.h"
PORTA equ 05h ;# 
# 209 "C:\Program Files (x86)\Microchip\xc8\v1.33\include\pic16f877a.h"
PORTB equ 06h ;# 
# 270 "C:\Program Files (x86)\Microchip\xc8\v1.33\include\pic16f877a.h"
PORTC equ 07h ;# 
# 331 "C:\Program Files (x86)\Microchip\xc8\v1.33\include\pic16f877a.h"
PORTD equ 08h ;# 
# 392 "C:\Program Files (x86)\Microchip\xc8\v1.33\include\pic16f877a.h"
PORTE equ 09h ;# 
# 423 "C:\Program Files (x86)\Microchip\xc8\v1.33\include\pic16f877a.h"
PCLATH equ 0Ah ;# 
# 442 "C:\Program Files (x86)\Microchip\xc8\v1.33\include\pic16f877a.h"
INTCON equ 0Bh ;# 
# 519 "C:\Program Files (x86)\Microchip\xc8\v1.33\include\pic16f877a.h"
PIR1 equ 0Ch ;# 
# 580 "C:\Program Files (x86)\Microchip\xc8\v1.33\include\pic16f877a.h"
PIR2 equ 0Dh ;# 
# 619 "C:\Program Files (x86)\Microchip\xc8\v1.33\include\pic16f877a.h"
TMR1 equ 0Eh ;# 
# 625 "C:\Program Files (x86)\Microchip\xc8\v1.33\include\pic16f877a.h"
TMR1L equ 0Eh ;# 
# 631 "C:\Program Files (x86)\Microchip\xc8\v1.33\include\pic16f877a.h"
TMR1H equ 0Fh ;# 
# 637 "C:\Program Files (x86)\Microchip\xc8\v1.33\include\pic16f877a.h"
T1CON equ 010h ;# 
# 711 "C:\Program Files (x86)\Microchip\xc8\v1.33\include\pic16f877a.h"
TMR2 equ 011h ;# 
# 717 "C:\Program Files (x86)\Microchip\xc8\v1.33\include\pic16f877a.h"
T2CON equ 012h ;# 
# 787 "C:\Program Files (x86)\Microchip\xc8\v1.33\include\pic16f877a.h"
SSPBUF equ 013h ;# 
# 793 "C:\Program Files (x86)\Microchip\xc8\v1.33\include\pic16f877a.h"
SSPCON equ 014h ;# 
# 862 "C:\Program Files (x86)\Microchip\xc8\v1.33\include\pic16f877a.h"
CCPR1 equ 015h ;# 
# 868 "C:\Program Files (x86)\Microchip\xc8\v1.33\include\pic16f877a.h"
CCPR1L equ 015h ;# 
# 874 "C:\Program Files (x86)\Microchip\xc8\v1.33\include\pic16f877a.h"
CCPR1H equ 016h ;# 
# 880 "C:\Program Files (x86)\Microchip\xc8\v1.33\include\pic16f877a.h"
CCP1CON equ 017h ;# 
# 937 "C:\Program Files (x86)\Microchip\xc8\v1.33\include\pic16f877a.h"
RCSTA equ 018h ;# 
# 1031 "C:\Program Files (x86)\Microchip\xc8\v1.33\include\pic16f877a.h"
TXREG equ 019h ;# 
# 1037 "C:\Program Files (x86)\Microchip\xc8\v1.33\include\pic16f877a.h"
RCREG equ 01Ah ;# 
# 1043 "C:\Program Files (x86)\Microchip\xc8\v1.33\include\pic16f877a.h"
CCPR2 equ 01Bh ;# 
# 1049 "C:\Program Files (x86)\Microchip\xc8\v1.33\include\pic16f877a.h"
CCPR2L equ 01Bh ;# 
# 1055 "C:\Program Files (x86)\Microchip\xc8\v1.33\include\pic16f877a.h"
CCPR2H equ 01Ch ;# 
# 1061 "C:\Program Files (x86)\Microchip\xc8\v1.33\include\pic16f877a.h"
CCP2CON equ 01Dh ;# 
# 1118 "C:\Program Files (x86)\Microchip\xc8\v1.33\include\pic16f877a.h"
ADRESH equ 01Eh ;# 
# 1124 "C:\Program Files (x86)\Microchip\xc8\v1.33\include\pic16f877a.h"
ADCON0 equ 01Fh ;# 
# 1219 "C:\Program Files (x86)\Microchip\xc8\v1.33\include\pic16f877a.h"
OPTION_REG equ 081h ;# 
# 1288 "C:\Program Files (x86)\Microchip\xc8\v1.33\include\pic16f877a.h"
TRISA equ 085h ;# 
# 1337 "C:\Program Files (x86)\Microchip\xc8\v1.33\include\pic16f877a.h"
TRISB equ 086h ;# 
# 1398 "C:\Program Files (x86)\Microchip\xc8\v1.33\include\pic16f877a.h"
TRISC equ 087h ;# 
# 1459 "C:\Program Files (x86)\Microchip\xc8\v1.33\include\pic16f877a.h"
TRISD equ 088h ;# 
# 1520 "C:\Program Files (x86)\Microchip\xc8\v1.33\include\pic16f877a.h"
TRISE equ 089h ;# 
# 1576 "C:\Program Files (x86)\Microchip\xc8\v1.33\include\pic16f877a.h"
PIE1 equ 08Ch ;# 
# 1637 "C:\Program Files (x86)\Microchip\xc8\v1.33\include\pic16f877a.h"
PIE2 equ 08Dh ;# 
# 1676 "C:\Program Files (x86)\Microchip\xc8\v1.33\include\pic16f877a.h"
PCON equ 08Eh ;# 
# 1709 "C:\Program Files (x86)\Microchip\xc8\v1.33\include\pic16f877a.h"
SSPCON2 equ 091h ;# 
# 1770 "C:\Program Files (x86)\Microchip\xc8\v1.33\include\pic16f877a.h"
PR2 equ 092h ;# 
# 1776 "C:\Program Files (x86)\Microchip\xc8\v1.33\include\pic16f877a.h"
SSPADD equ 093h ;# 
# 1782 "C:\Program Files (x86)\Microchip\xc8\v1.33\include\pic16f877a.h"
SSPSTAT equ 094h ;# 
# 1950 "C:\Program Files (x86)\Microchip\xc8\v1.33\include\pic16f877a.h"
TXSTA equ 098h ;# 
# 2030 "C:\Program Files (x86)\Microchip\xc8\v1.33\include\pic16f877a.h"
SPBRG equ 099h ;# 
# 2036 "C:\Program Files (x86)\Microchip\xc8\v1.33\include\pic16f877a.h"
CMCON equ 09Ch ;# 
# 2105 "C:\Program Files (x86)\Microchip\xc8\v1.33\include\pic16f877a.h"
CVRCON equ 09Dh ;# 
# 2169 "C:\Program Files (x86)\Microchip\xc8\v1.33\include\pic16f877a.h"
ADRESL equ 09Eh ;# 
# 2175 "C:\Program Files (x86)\Microchip\xc8\v1.33\include\pic16f877a.h"
ADCON1 equ 09Fh ;# 
# 2233 "C:\Program Files (x86)\Microchip\xc8\v1.33\include\pic16f877a.h"
EEDATA equ 010Ch ;# 
# 2239 "C:\Program Files (x86)\Microchip\xc8\v1.33\include\pic16f877a.h"
EEADR equ 010Dh ;# 
# 2245 "C:\Program Files (x86)\Microchip\xc8\v1.33\include\pic16f877a.h"
EEDATH equ 010Eh ;# 
# 2251 "C:\Program Files (x86)\Microchip\xc8\v1.33\include\pic16f877a.h"
EEADRH equ 010Fh ;# 
# 2257 "C:\Program Files (x86)\Microchip\xc8\v1.33\include\pic16f877a.h"
EECON1 equ 018Ch ;# 
# 2301 "C:\Program Files (x86)\Microchip\xc8\v1.33\include\pic16f877a.h"
EECON2 equ 018Dh ;# 
# 49 "C:\Program Files (x86)\Microchip\xc8\v1.33\include\pic16f877a.h"
INDF equ 00h ;# 
# 55 "C:\Program Files (x86)\Microchip\xc8\v1.33\include\pic16f877a.h"
TMR0 equ 01h ;# 
# 61 "C:\Program Files (x86)\Microchip\xc8\v1.33\include\pic16f877a.h"
PCL equ 02h ;# 
# 67 "C:\Program Files (x86)\Microchip\xc8\v1.33\include\pic16f877a.h"
STATUS equ 03h ;# 
# 154 "C:\Program Files (x86)\Microchip\xc8\v1.33\include\pic16f877a.h"
FSR equ 04h ;# 
# 160 "C:\Program Files (x86)\Microchip\xc8\v1.33\include\pic16f877a.h"
PORTA equ 05h ;# 
# 209 "C:\Program Files (x86)\Microchip\xc8\v1.33\include\pic16f877a.h"
PORTB equ 06h ;# 
# 270 "C:\Program Files (x86)\Microchip\xc8\v1.33\include\pic16f877a.h"
PORTC equ 07h ;# 
# 331 "C:\Program Files (x86)\Microchip\xc8\v1.33\include\pic16f877a.h"
PORTD equ 08h ;# 
# 392 "C:\Program Files (x86)\Microchip\xc8\v1.33\include\pic16f877a.h"
PORTE equ 09h ;# 
# 423 "C:\Program Files (x86)\Microchip\xc8\v1.33\include\pic16f877a.h"
PCLATH equ 0Ah ;# 
# 442 "C:\Program Files (x86)\Microchip\xc8\v1.33\include\pic16f877a.h"
INTCON equ 0Bh ;# 
# 519 "C:\Program Files (x86)\Microchip\xc8\v1.33\include\pic16f877a.h"
PIR1 equ 0Ch ;# 
# 580 "C:\Program Files (x86)\Microchip\xc8\v1.33\include\pic16f877a.h"
PIR2 equ 0Dh ;# 
# 619 "C:\Program Files (x86)\Microchip\xc8\v1.33\include\pic16f877a.h"
TMR1 equ 0Eh ;# 
# 625 "C:\Program Files (x86)\Microchip\xc8\v1.33\include\pic16f877a.h"
TMR1L equ 0Eh ;# 
# 631 "C:\Program Files (x86)\Microchip\xc8\v1.33\include\pic16f877a.h"
TMR1H equ 0Fh ;# 
# 637 "C:\Program Files (x86)\Microchip\xc8\v1.33\include\pic16f877a.h"
T1CON equ 010h ;# 
# 711 "C:\Program Files (x86)\Microchip\xc8\v1.33\include\pic16f877a.h"
TMR2 equ 011h ;# 
# 717 "C:\Program Files (x86)\Microchip\xc8\v1.33\include\pic16f877a.h"
T2CON equ 012h ;# 
# 787 "C:\Program Files (x86)\Microchip\xc8\v1.33\include\pic16f877a.h"
SSPBUF equ 013h ;# 
# 793 "C:\Program Files (x86)\Microchip\xc8\v1.33\include\pic16f877a.h"
SSPCON equ 014h ;# 
# 862 "C:\Program Files (x86)\Microchip\xc8\v1.33\include\pic16f877a.h"
CCPR1 equ 015h ;# 
# 868 "C:\Program Files (x86)\Microchip\xc8\v1.33\include\pic16f877a.h"
CCPR1L equ 015h ;# 
# 874 "C:\Program Files (x86)\Microchip\xc8\v1.33\include\pic16f877a.h"
CCPR1H equ 016h ;# 
# 880 "C:\Program Files (x86)\Microchip\xc8\v1.33\include\pic16f877a.h"
CCP1CON equ 017h ;# 
# 937 "C:\Program Files (x86)\Microchip\xc8\v1.33\include\pic16f877a.h"
RCSTA equ 018h ;# 
# 1031 "C:\Program Files (x86)\Microchip\xc8\v1.33\include\pic16f877a.h"
TXREG equ 019h ;# 
# 1037 "C:\Program Files (x86)\Microchip\xc8\v1.33\include\pic16f877a.h"
RCREG equ 01Ah ;# 
# 1043 "C:\Program Files (x86)\Microchip\xc8\v1.33\include\pic16f877a.h"
CCPR2 equ 01Bh ;# 
# 1049 "C:\Program Files (x86)\Microchip\xc8\v1.33\include\pic16f877a.h"
CCPR2L equ 01Bh ;# 
# 1055 "C:\Program Files (x86)\Microchip\xc8\v1.33\include\pic16f877a.h"
CCPR2H equ 01Ch ;# 
# 1061 "C:\Program Files (x86)\Microchip\xc8\v1.33\include\pic16f877a.h"
CCP2CON equ 01Dh ;# 
# 1118 "C:\Program Files (x86)\Microchip\xc8\v1.33\include\pic16f877a.h"
ADRESH equ 01Eh ;# 
# 1124 "C:\Program Files (x86)\Microchip\xc8\v1.33\include\pic16f877a.h"
ADCON0 equ 01Fh ;# 
# 1219 "C:\Program Files (x86)\Microchip\xc8\v1.33\include\pic16f877a.h"
OPTION_REG equ 081h ;# 
# 1288 "C:\Program Files (x86)\Microchip\xc8\v1.33\include\pic16f877a.h"
TRISA equ 085h ;# 
# 1337 "C:\Program Files (x86)\Microchip\xc8\v1.33\include\pic16f877a.h"
TRISB equ 086h ;# 
# 1398 "C:\Program Files (x86)\Microchip\xc8\v1.33\include\pic16f877a.h"
TRISC equ 087h ;# 
# 1459 "C:\Program Files (x86)\Microchip\xc8\v1.33\include\pic16f877a.h"
TRISD equ 088h ;# 
# 1520 "C:\Program Files (x86)\Microchip\xc8\v1.33\include\pic16f877a.h"
TRISE equ 089h ;# 
# 1576 "C:\Program Files (x86)\Microchip\xc8\v1.33\include\pic16f877a.h"
PIE1 equ 08Ch ;# 
# 1637 "C:\Program Files (x86)\Microchip\xc8\v1.33\include\pic16f877a.h"
PIE2 equ 08Dh ;# 
# 1676 "C:\Program Files (x86)\Microchip\xc8\v1.33\include\pic16f877a.h"
PCON equ 08Eh ;# 
# 1709 "C:\Program Files (x86)\Microchip\xc8\v1.33\include\pic16f877a.h"
SSPCON2 equ 091h ;# 
# 1770 "C:\Program Files (x86)\Microchip\xc8\v1.33\include\pic16f877a.h"
PR2 equ 092h ;# 
# 1776 "C:\Program Files (x86)\Microchip\xc8\v1.33\include\pic16f877a.h"
SSPADD equ 093h ;# 
# 1782 "C:\Program Files (x86)\Microchip\xc8\v1.33\include\pic16f877a.h"
SSPSTAT equ 094h ;# 
# 1950 "C:\Program Files (x86)\Microchip\xc8\v1.33\include\pic16f877a.h"
TXSTA equ 098h ;# 
# 2030 "C:\Program Files (x86)\Microchip\xc8\v1.33\include\pic16f877a.h"
SPBRG equ 099h ;# 
# 2036 "C:\Program Files (x86)\Microchip\xc8\v1.33\include\pic16f877a.h"
CMCON equ 09Ch ;# 
# 2105 "C:\Program Files (x86)\Microchip\xc8\v1.33\include\pic16f877a.h"
CVRCON equ 09Dh ;# 
# 2169 "C:\Program Files (x86)\Microchip\xc8\v1.33\include\pic16f877a.h"
ADRESL equ 09Eh ;# 
# 2175 "C:\Program Files (x86)\Microchip\xc8\v1.33\include\pic16f877a.h"
ADCON1 equ 09Fh ;# 
# 2233 "C:\Program Files (x86)\Microchip\xc8\v1.33\include\pic16f877a.h"
EEDATA equ 010Ch ;# 
# 2239 "C:\Program Files (x86)\Microchip\xc8\v1.33\include\pic16f877a.h"
EEADR equ 010Dh ;# 
# 2245 "C:\Program Files (x86)\Microchip\xc8\v1.33\include\pic16f877a.h"
EEDATH equ 010Eh ;# 
# 2251 "C:\Program Files (x86)\Microchip\xc8\v1.33\include\pic16f877a.h"
EEADRH equ 010Fh ;# 
# 2257 "C:\Program Files (x86)\Microchip\xc8\v1.33\include\pic16f877a.h"
EECON1 equ 018Ch ;# 
# 2301 "C:\Program Files (x86)\Microchip\xc8\v1.33\include\pic16f877a.h"
EECON2 equ 018Dh ;# 
# 49 "C:\Program Files (x86)\Microchip\xc8\v1.33\include\pic16f877a.h"
INDF equ 00h ;# 
# 55 "C:\Program Files (x86)\Microchip\xc8\v1.33\include\pic16f877a.h"
TMR0 equ 01h ;# 
# 61 "C:\Program Files (x86)\Microchip\xc8\v1.33\include\pic16f877a.h"
PCL equ 02h ;# 
# 67 "C:\Program Files (x86)\Microchip\xc8\v1.33\include\pic16f877a.h"
STATUS equ 03h ;# 
# 154 "C:\Program Files (x86)\Microchip\xc8\v1.33\include\pic16f877a.h"
FSR equ 04h ;# 
# 160 "C:\Program Files (x86)\Microchip\xc8\v1.33\include\pic16f877a.h"
PORTA equ 05h ;# 
# 209 "C:\Program Files (x86)\Microchip\xc8\v1.33\include\pic16f877a.h"
PORTB equ 06h ;# 
# 270 "C:\Program Files (x86)\Microchip\xc8\v1.33\include\pic16f877a.h"
PORTC equ 07h ;# 
# 331 "C:\Program Files (x86)\Microchip\xc8\v1.33\include\pic16f877a.h"
PORTD equ 08h ;# 
# 392 "C:\Program Files (x86)\Microchip\xc8\v1.33\include\pic16f877a.h"
PORTE equ 09h ;# 
# 423 "C:\Program Files (x86)\Microchip\xc8\v1.33\include\pic16f877a.h"
PCLATH equ 0Ah ;# 
# 442 "C:\Program Files (x86)\Microchip\xc8\v1.33\include\pic16f877a.h"
INTCON equ 0Bh ;# 
# 519 "C:\Program Files (x86)\Microchip\xc8\v1.33\include\pic16f877a.h"
PIR1 equ 0Ch ;# 
# 580 "C:\Program Files (x86)\Microchip\xc8\v1.33\include\pic16f877a.h"
PIR2 equ 0Dh ;# 
# 619 "C:\Program Files (x86)\Microchip\xc8\v1.33\include\pic16f877a.h"
TMR1 equ 0Eh ;# 
# 625 "C:\Program Files (x86)\Microchip\xc8\v1.33\include\pic16f877a.h"
TMR1L equ 0Eh ;# 
# 631 "C:\Program Files (x86)\Microchip\xc8\v1.33\include\pic16f877a.h"
TMR1H equ 0Fh ;# 
# 637 "C:\Program Files (x86)\Microchip\xc8\v1.33\include\pic16f877a.h"
T1CON equ 010h ;# 
# 711 "C:\Program Files (x86)\Microchip\xc8\v1.33\include\pic16f877a.h"
TMR2 equ 011h ;# 
# 717 "C:\Program Files (x86)\Microchip\xc8\v1.33\include\pic16f877a.h"
T2CON equ 012h ;# 
# 787 "C:\Program Files (x86)\Microchip\xc8\v1.33\include\pic16f877a.h"
SSPBUF equ 013h ;# 
# 793 "C:\Program Files (x86)\Microchip\xc8\v1.33\include\pic16f877a.h"
SSPCON equ 014h ;# 
# 862 "C:\Program Files (x86)\Microchip\xc8\v1.33\include\pic16f877a.h"
CCPR1 equ 015h ;# 
# 868 "C:\Program Files (x86)\Microchip\xc8\v1.33\include\pic16f877a.h"
CCPR1L equ 015h ;# 
# 874 "C:\Program Files (x86)\Microchip\xc8\v1.33\include\pic16f877a.h"
CCPR1H equ 016h ;# 
# 880 "C:\Program Files (x86)\Microchip\xc8\v1.33\include\pic16f877a.h"
CCP1CON equ 017h ;# 
# 937 "C:\Program Files (x86)\Microchip\xc8\v1.33\include\pic16f877a.h"
RCSTA equ 018h ;# 
# 1031 "C:\Program Files (x86)\Microchip\xc8\v1.33\include\pic16f877a.h"
TXREG equ 019h ;# 
# 1037 "C:\Program Files (x86)\Microchip\xc8\v1.33\include\pic16f877a.h"
RCREG equ 01Ah ;# 
# 1043 "C:\Program Files (x86)\Microchip\xc8\v1.33\include\pic16f877a.h"
CCPR2 equ 01Bh ;# 
# 1049 "C:\Program Files (x86)\Microchip\xc8\v1.33\include\pic16f877a.h"
CCPR2L equ 01Bh ;# 
# 1055 "C:\Program Files (x86)\Microchip\xc8\v1.33\include\pic16f877a.h"
CCPR2H equ 01Ch ;# 
# 1061 "C:\Program Files (x86)\Microchip\xc8\v1.33\include\pic16f877a.h"
CCP2CON equ 01Dh ;# 
# 1118 "C:\Program Files (x86)\Microchip\xc8\v1.33\include\pic16f877a.h"
ADRESH equ 01Eh ;# 
# 1124 "C:\Program Files (x86)\Microchip\xc8\v1.33\include\pic16f877a.h"
ADCON0 equ 01Fh ;# 
# 1219 "C:\Program Files (x86)\Microchip\xc8\v1.33\include\pic16f877a.h"
OPTION_REG equ 081h ;# 
# 1288 "C:\Program Files (x86)\Microchip\xc8\v1.33\include\pic16f877a.h"
TRISA equ 085h ;# 
# 1337 "C:\Program Files (x86)\Microchip\xc8\v1.33\include\pic16f877a.h"
TRISB equ 086h ;# 
# 1398 "C:\Program Files (x86)\Microchip\xc8\v1.33\include\pic16f877a.h"
TRISC equ 087h ;# 
# 1459 "C:\Program Files (x86)\Microchip\xc8\v1.33\include\pic16f877a.h"
TRISD equ 088h ;# 
# 1520 "C:\Program Files (x86)\Microchip\xc8\v1.33\include\pic16f877a.h"
TRISE equ 089h ;# 
# 1576 "C:\Program Files (x86)\Microchip\xc8\v1.33\include\pic16f877a.h"
PIE1 equ 08Ch ;# 
# 1637 "C:\Program Files (x86)\Microchip\xc8\v1.33\include\pic16f877a.h"
PIE2 equ 08Dh ;# 
# 1676 "C:\Program Files (x86)\Microchip\xc8\v1.33\include\pic16f877a.h"
PCON equ 08Eh ;# 
# 1709 "C:\Program Files (x86)\Microchip\xc8\v1.33\include\pic16f877a.h"
SSPCON2 equ 091h ;# 
# 1770 "C:\Program Files (x86)\Microchip\xc8\v1.33\include\pic16f877a.h"
PR2 equ 092h ;# 
# 1776 "C:\Program Files (x86)\Microchip\xc8\v1.33\include\pic16f877a.h"
SSPADD equ 093h ;# 
# 1782 "C:\Program Files (x86)\Microchip\xc8\v1.33\include\pic16f877a.h"
SSPSTAT equ 094h ;# 
# 1950 "C:\Program Files (x86)\Microchip\xc8\v1.33\include\pic16f877a.h"
TXSTA equ 098h ;# 
# 2030 "C:\Program Files (x86)\Microchip\xc8\v1.33\include\pic16f877a.h"
SPBRG equ 099h ;# 
# 2036 "C:\Program Files (x86)\Microchip\xc8\v1.33\include\pic16f877a.h"
CMCON equ 09Ch ;# 
# 2105 "C:\Program Files (x86)\Microchip\xc8\v1.33\include\pic16f877a.h"
CVRCON equ 09Dh ;# 
# 2169 "C:\Program Files (x86)\Microchip\xc8\v1.33\include\pic16f877a.h"
ADRESL equ 09Eh ;# 
# 2175 "C:\Program Files (x86)\Microchip\xc8\v1.33\include\pic16f877a.h"
ADCON1 equ 09Fh ;# 
# 2233 "C:\Program Files (x86)\Microchip\xc8\v1.33\include\pic16f877a.h"
EEDATA equ 010Ch ;# 
# 2239 "C:\Program Files (x86)\Microchip\xc8\v1.33\include\pic16f877a.h"
EEADR equ 010Dh ;# 
# 2245 "C:\Program Files (x86)\Microchip\xc8\v1.33\include\pic16f877a.h"
EEDATH equ 010Eh ;# 
# 2251 "C:\Program Files (x86)\Microchip\xc8\v1.33\include\pic16f877a.h"
EEADRH equ 010Fh ;# 
# 2257 "C:\Program Files (x86)\Microchip\xc8\v1.33\include\pic16f877a.h"
EECON1 equ 018Ch ;# 
# 2301 "C:\Program Files (x86)\Microchip\xc8\v1.33\include\pic16f877a.h"
EECON2 equ 018Dh ;# 
# 49 "C:\Program Files (x86)\Microchip\xc8\v1.33\include\pic16f877a.h"
INDF equ 00h ;# 
# 55 "C:\Program Files (x86)\Microchip\xc8\v1.33\include\pic16f877a.h"
TMR0 equ 01h ;# 
# 61 "C:\Program Files (x86)\Microchip\xc8\v1.33\include\pic16f877a.h"
PCL equ 02h ;# 
# 67 "C:\Program Files (x86)\Microchip\xc8\v1.33\include\pic16f877a.h"
STATUS equ 03h ;# 
# 154 "C:\Program Files (x86)\Microchip\xc8\v1.33\include\pic16f877a.h"
FSR equ 04h ;# 
# 160 "C:\Program Files (x86)\Microchip\xc8\v1.33\include\pic16f877a.h"
PORTA equ 05h ;# 
# 209 "C:\Program Files (x86)\Microchip\xc8\v1.33\include\pic16f877a.h"
PORTB equ 06h ;# 
# 270 "C:\Program Files (x86)\Microchip\xc8\v1.33\include\pic16f877a.h"
PORTC equ 07h ;# 
# 331 "C:\Program Files (x86)\Microchip\xc8\v1.33\include\pic16f877a.h"
PORTD equ 08h ;# 
# 392 "C:\Program Files (x86)\Microchip\xc8\v1.33\include\pic16f877a.h"
PORTE equ 09h ;# 
# 423 "C:\Program Files (x86)\Microchip\xc8\v1.33\include\pic16f877a.h"
PCLATH equ 0Ah ;# 
# 442 "C:\Program Files (x86)\Microchip\xc8\v1.33\include\pic16f877a.h"
INTCON equ 0Bh ;# 
# 519 "C:\Program Files (x86)\Microchip\xc8\v1.33\include\pic16f877a.h"
PIR1 equ 0Ch ;# 
# 580 "C:\Program Files (x86)\Microchip\xc8\v1.33\include\pic16f877a.h"
PIR2 equ 0Dh ;# 
# 619 "C:\Program Files (x86)\Microchip\xc8\v1.33\include\pic16f877a.h"
TMR1 equ 0Eh ;# 
# 625 "C:\Program Files (x86)\Microchip\xc8\v1.33\include\pic16f877a.h"
TMR1L equ 0Eh ;# 
# 631 "C:\Program Files (x86)\Microchip\xc8\v1.33\include\pic16f877a.h"
TMR1H equ 0Fh ;# 
# 637 "C:\Program Files (x86)\Microchip\xc8\v1.33\include\pic16f877a.h"
T1CON equ 010h ;# 
# 711 "C:\Program Files (x86)\Microchip\xc8\v1.33\include\pic16f877a.h"
TMR2 equ 011h ;# 
# 717 "C:\Program Files (x86)\Microchip\xc8\v1.33\include\pic16f877a.h"
T2CON equ 012h ;# 
# 787 "C:\Program Files (x86)\Microchip\xc8\v1.33\include\pic16f877a.h"
SSPBUF equ 013h ;# 
# 793 "C:\Program Files (x86)\Microchip\xc8\v1.33\include\pic16f877a.h"
SSPCON equ 014h ;# 
# 862 "C:\Program Files (x86)\Microchip\xc8\v1.33\include\pic16f877a.h"
CCPR1 equ 015h ;# 
# 868 "C:\Program Files (x86)\Microchip\xc8\v1.33\include\pic16f877a.h"
CCPR1L equ 015h ;# 
# 874 "C:\Program Files (x86)\Microchip\xc8\v1.33\include\pic16f877a.h"
CCPR1H equ 016h ;# 
# 880 "C:\Program Files (x86)\Microchip\xc8\v1.33\include\pic16f877a.h"
CCP1CON equ 017h ;# 
# 937 "C:\Program Files (x86)\Microchip\xc8\v1.33\include\pic16f877a.h"
RCSTA equ 018h ;# 
# 1031 "C:\Program Files (x86)\Microchip\xc8\v1.33\include\pic16f877a.h"
TXREG equ 019h ;# 
# 1037 "C:\Program Files (x86)\Microchip\xc8\v1.33\include\pic16f877a.h"
RCREG equ 01Ah ;# 
# 1043 "C:\Program Files (x86)\Microchip\xc8\v1.33\include\pic16f877a.h"
CCPR2 equ 01Bh ;# 
# 1049 "C:\Program Files (x86)\Microchip\xc8\v1.33\include\pic16f877a.h"
CCPR2L equ 01Bh ;# 
# 1055 "C:\Program Files (x86)\Microchip\xc8\v1.33\include\pic16f877a.h"
CCPR2H equ 01Ch ;# 
# 1061 "C:\Program Files (x86)\Microchip\xc8\v1.33\include\pic16f877a.h"
CCP2CON equ 01Dh ;# 
# 1118 "C:\Program Files (x86)\Microchip\xc8\v1.33\include\pic16f877a.h"
ADRESH equ 01Eh ;# 
# 1124 "C:\Program Files (x86)\Microchip\xc8\v1.33\include\pic16f877a.h"
ADCON0 equ 01Fh ;# 
# 1219 "C:\Program Files (x86)\Microchip\xc8\v1.33\include\pic16f877a.h"
OPTION_REG equ 081h ;# 
# 1288 "C:\Program Files (x86)\Microchip\xc8\v1.33\include\pic16f877a.h"
TRISA equ 085h ;# 
# 1337 "C:\Program Files (x86)\Microchip\xc8\v1.33\include\pic16f877a.h"
TRISB equ 086h ;# 
# 1398 "C:\Program Files (x86)\Microchip\xc8\v1.33\include\pic16f877a.h"
TRISC equ 087h ;# 
# 1459 "C:\Program Files (x86)\Microchip\xc8\v1.33\include\pic16f877a.h"
TRISD equ 088h ;# 
# 1520 "C:\Program Files (x86)\Microchip\xc8\v1.33\include\pic16f877a.h"
TRISE equ 089h ;# 
# 1576 "C:\Program Files (x86)\Microchip\xc8\v1.33\include\pic16f877a.h"
PIE1 equ 08Ch ;# 
# 1637 "C:\Program Files (x86)\Microchip\xc8\v1.33\include\pic16f877a.h"
PIE2 equ 08Dh ;# 
# 1676 "C:\Program Files (x86)\Microchip\xc8\v1.33\include\pic16f877a.h"
PCON equ 08Eh ;# 
# 1709 "C:\Program Files (x86)\Microchip\xc8\v1.33\include\pic16f877a.h"
SSPCON2 equ 091h ;# 
# 1770 "C:\Program Files (x86)\Microchip\xc8\v1.33\include\pic16f877a.h"
PR2 equ 092h ;# 
# 1776 "C:\Program Files (x86)\Microchip\xc8\v1.33\include\pic16f877a.h"
SSPADD equ 093h ;# 
# 1782 "C:\Program Files (x86)\Microchip\xc8\v1.33\include\pic16f877a.h"
SSPSTAT equ 094h ;# 
# 1950 "C:\Program Files (x86)\Microchip\xc8\v1.33\include\pic16f877a.h"
TXSTA equ 098h ;# 
# 2030 "C:\Program Files (x86)\Microchip\xc8\v1.33\include\pic16f877a.h"
SPBRG equ 099h ;# 
# 2036 "C:\Program Files (x86)\Microchip\xc8\v1.33\include\pic16f877a.h"
CMCON equ 09Ch ;# 
# 2105 "C:\Program Files (x86)\Microchip\xc8\v1.33\include\pic16f877a.h"
CVRCON equ 09Dh ;# 
# 2169 "C:\Program Files (x86)\Microchip\xc8\v1.33\include\pic16f877a.h"
ADRESL equ 09Eh ;# 
# 2175 "C:\Program Files (x86)\Microchip\xc8\v1.33\include\pic16f877a.h"
ADCON1 equ 09Fh ;# 
# 2233 "C:\Program Files (x86)\Microchip\xc8\v1.33\include\pic16f877a.h"
EEDATA equ 010Ch ;# 
# 2239 "C:\Program Files (x86)\Microchip\xc8\v1.33\include\pic16f877a.h"
EEADR equ 010Dh ;# 
# 2245 "C:\Program Files (x86)\Microchip\xc8\v1.33\include\pic16f877a.h"
EEDATH equ 010Eh ;# 
# 2251 "C:\Program Files (x86)\Microchip\xc8\v1.33\include\pic16f877a.h"
EEADRH equ 010Fh ;# 
# 2257 "C:\Program Files (x86)\Microchip\xc8\v1.33\include\pic16f877a.h"
EECON1 equ 018Ch ;# 
# 2301 "C:\Program Files (x86)\Microchip\xc8\v1.33\include\pic16f877a.h"
EECON2 equ 018Dh ;# 
# 49 "C:\Program Files (x86)\Microchip\xc8\v1.33\include\pic16f877a.h"
INDF equ 00h ;# 
# 55 "C:\Program Files (x86)\Microchip\xc8\v1.33\include\pic16f877a.h"
TMR0 equ 01h ;# 
# 61 "C:\Program Files (x86)\Microchip\xc8\v1.33\include\pic16f877a.h"
PCL equ 02h ;# 
# 67 "C:\Program Files (x86)\Microchip\xc8\v1.33\include\pic16f877a.h"
STATUS equ 03h ;# 
# 154 "C:\Program Files (x86)\Microchip\xc8\v1.33\include\pic16f877a.h"
FSR equ 04h ;# 
# 160 "C:\Program Files (x86)\Microchip\xc8\v1.33\include\pic16f877a.h"
PORTA equ 05h ;# 
# 209 "C:\Program Files (x86)\Microchip\xc8\v1.33\include\pic16f877a.h"
PORTB equ 06h ;# 
# 270 "C:\Program Files (x86)\Microchip\xc8\v1.33\include\pic16f877a.h"
PORTC equ 07h ;# 
# 331 "C:\Program Files (x86)\Microchip\xc8\v1.33\include\pic16f877a.h"
PORTD equ 08h ;# 
# 392 "C:\Program Files (x86)\Microchip\xc8\v1.33\include\pic16f877a.h"
PORTE equ 09h ;# 
# 423 "C:\Program Files (x86)\Microchip\xc8\v1.33\include\pic16f877a.h"
PCLATH equ 0Ah ;# 
# 442 "C:\Program Files (x86)\Microchip\xc8\v1.33\include\pic16f877a.h"
INTCON equ 0Bh ;# 
# 519 "C:\Program Files (x86)\Microchip\xc8\v1.33\include\pic16f877a.h"
PIR1 equ 0Ch ;# 
# 580 "C:\Program Files (x86)\Microchip\xc8\v1.33\include\pic16f877a.h"
PIR2 equ 0Dh ;# 
# 619 "C:\Program Files (x86)\Microchip\xc8\v1.33\include\pic16f877a.h"
TMR1 equ 0Eh ;# 
# 625 "C:\Program Files (x86)\Microchip\xc8\v1.33\include\pic16f877a.h"
TMR1L equ 0Eh ;# 
# 631 "C:\Program Files (x86)\Microchip\xc8\v1.33\include\pic16f877a.h"
TMR1H equ 0Fh ;# 
# 637 "C:\Program Files (x86)\Microchip\xc8\v1.33\include\pic16f877a.h"
T1CON equ 010h ;# 
# 711 "C:\Program Files (x86)\Microchip\xc8\v1.33\include\pic16f877a.h"
TMR2 equ 011h ;# 
# 717 "C:\Program Files (x86)\Microchip\xc8\v1.33\include\pic16f877a.h"
T2CON equ 012h ;# 
# 787 "C:\Program Files (x86)\Microchip\xc8\v1.33\include\pic16f877a.h"
SSPBUF equ 013h ;# 
# 793 "C:\Program Files (x86)\Microchip\xc8\v1.33\include\pic16f877a.h"
SSPCON equ 014h ;# 
# 862 "C:\Program Files (x86)\Microchip\xc8\v1.33\include\pic16f877a.h"
CCPR1 equ 015h ;# 
# 868 "C:\Program Files (x86)\Microchip\xc8\v1.33\include\pic16f877a.h"
CCPR1L equ 015h ;# 
# 874 "C:\Program Files (x86)\Microchip\xc8\v1.33\include\pic16f877a.h"
CCPR1H equ 016h ;# 
# 880 "C:\Program Files (x86)\Microchip\xc8\v1.33\include\pic16f877a.h"
CCP1CON equ 017h ;# 
# 937 "C:\Program Files (x86)\Microchip\xc8\v1.33\include\pic16f877a.h"
RCSTA equ 018h ;# 
# 1031 "C:\Program Files (x86)\Microchip\xc8\v1.33\include\pic16f877a.h"
TXREG equ 019h ;# 
# 1037 "C:\Program Files (x86)\Microchip\xc8\v1.33\include\pic16f877a.h"
RCREG equ 01Ah ;# 
# 1043 "C:\Program Files (x86)\Microchip\xc8\v1.33\include\pic16f877a.h"
CCPR2 equ 01Bh ;# 
# 1049 "C:\Program Files (x86)\Microchip\xc8\v1.33\include\pic16f877a.h"
CCPR2L equ 01Bh ;# 
# 1055 "C:\Program Files (x86)\Microchip\xc8\v1.33\include\pic16f877a.h"
CCPR2H equ 01Ch ;# 
# 1061 "C:\Program Files (x86)\Microchip\xc8\v1.33\include\pic16f877a.h"
CCP2CON equ 01Dh ;# 
# 1118 "C:\Program Files (x86)\Microchip\xc8\v1.33\include\pic16f877a.h"
ADRESH equ 01Eh ;# 
# 1124 "C:\Program Files (x86)\Microchip\xc8\v1.33\include\pic16f877a.h"
ADCON0 equ 01Fh ;# 
# 1219 "C:\Program Files (x86)\Microchip\xc8\v1.33\include\pic16f877a.h"
OPTION_REG equ 081h ;# 
# 1288 "C:\Program Files (x86)\Microchip\xc8\v1.33\include\pic16f877a.h"
TRISA equ 085h ;# 
# 1337 "C:\Program Files (x86)\Microchip\xc8\v1.33\include\pic16f877a.h"
TRISB equ 086h ;# 
# 1398 "C:\Program Files (x86)\Microchip\xc8\v1.33\include\pic16f877a.h"
TRISC equ 087h ;# 
# 1459 "C:\Program Files (x86)\Microchip\xc8\v1.33\include\pic16f877a.h"
TRISD equ 088h ;# 
# 1520 "C:\Program Files (x86)\Microchip\xc8\v1.33\include\pic16f877a.h"
TRISE equ 089h ;# 
# 1576 "C:\Program Files (x86)\Microchip\xc8\v1.33\include\pic16f877a.h"
PIE1 equ 08Ch ;# 
# 1637 "C:\Program Files (x86)\Microchip\xc8\v1.33\include\pic16f877a.h"
PIE2 equ 08Dh ;# 
# 1676 "C:\Program Files (x86)\Microchip\xc8\v1.33\include\pic16f877a.h"
PCON equ 08Eh ;# 
# 1709 "C:\Program Files (x86)\Microchip\xc8\v1.33\include\pic16f877a.h"
SSPCON2 equ 091h ;# 
# 1770 "C:\Program Files (x86)\Microchip\xc8\v1.33\include\pic16f877a.h"
PR2 equ 092h ;# 
# 1776 "C:\Program Files (x86)\Microchip\xc8\v1.33\include\pic16f877a.h"
SSPADD equ 093h ;# 
# 1782 "C:\Program Files (x86)\Microchip\xc8\v1.33\include\pic16f877a.h"
SSPSTAT equ 094h ;# 
# 1950 "C:\Program Files (x86)\Microchip\xc8\v1.33\include\pic16f877a.h"
TXSTA equ 098h ;# 
# 2030 "C:\Program Files (x86)\Microchip\xc8\v1.33\include\pic16f877a.h"
SPBRG equ 099h ;# 
# 2036 "C:\Program Files (x86)\Microchip\xc8\v1.33\include\pic16f877a.h"
CMCON equ 09Ch ;# 
# 2105 "C:\Program Files (x86)\Microchip\xc8\v1.33\include\pic16f877a.h"
CVRCON equ 09Dh ;# 
# 2169 "C:\Program Files (x86)\Microchip\xc8\v1.33\include\pic16f877a.h"
ADRESL equ 09Eh ;# 
# 2175 "C:\Program Files (x86)\Microchip\xc8\v1.33\include\pic16f877a.h"
ADCON1 equ 09Fh ;# 
# 2233 "C:\Program Files (x86)\Microchip\xc8\v1.33\include\pic16f877a.h"
EEDATA equ 010Ch ;# 
# 2239 "C:\Program Files (x86)\Microchip\xc8\v1.33\include\pic16f877a.h"
EEADR equ 010Dh ;# 
# 2245 "C:\Program Files (x86)\Microchip\xc8\v1.33\include\pic16f877a.h"
EEDATH equ 010Eh ;# 
# 2251 "C:\Program Files (x86)\Microchip\xc8\v1.33\include\pic16f877a.h"
EEADRH equ 010Fh ;# 
# 2257 "C:\Program Files (x86)\Microchip\xc8\v1.33\include\pic16f877a.h"
EECON1 equ 018Ch ;# 
# 2301 "C:\Program Files (x86)\Microchip\xc8\v1.33\include\pic16f877a.h"
EECON2 equ 018Dh ;# 
	FNCALL	_main,_ADC_Init
	FNCALL	_main,_LCD_Clear
	FNCALL	_main,_LCD_Cursor
	FNCALL	_main,_LCD_Init
	FNCALL	_main,_LCD_WriteString
	FNCALL	_main,_PWM_DutyCycle1
	FNCALL	_main,_PWM_DutyCycle2
	FNCALL	_main,_PWM_Init
	FNCALL	_main,_TIMER0_Init
	FNCALL	_main,_TIMER0_Set
	FNCALL	_main,_USART_Init
	FNCALL	_USART_Init,___aldiv
	FNCALL	_LCD_WriteString,_LCD_WriteData
	FNCALL	_LCD_Init,_LCD_WriteCmd
	FNCALL	_LCD_Clear,_LCD_WriteCmd
	FNROOT	_main
	FNCALL	_ISR,_Fuzzy
	FNCALL	_ISR,_USART_ReceiveChar
	FNCALL	_ISR,_USART_WriteString
	FNCALL	_ISR,___lwdiv
	FNCALL	_ISR,___wmul
	FNCALL	_ISR,_enviabuffer
	FNCALL	_ISR,i1_PWM_DutyCycle2
	FNCALL	_ISR,i1_TIMER0_Set
	FNCALL	_enviabuffer,_USART_WriteChar
	FNCALL	_USART_ReceiveChar,_USART_WriteString
	FNCALL	_USART_WriteString,_USART_WriteChar
	FNCALL	_Fuzzy,___awtoft
	FNCALL	_Fuzzy,___ftadd
	FNCALL	_Fuzzy,___ftdiv
	FNCALL	_Fuzzy,___ftge
	FNCALL	_Fuzzy,___ftmul
	FNCALL	_Fuzzy,___ftneg
	FNCALL	_Fuzzy,___fttol
	FNCALL	_Fuzzy,___lwtoft
	FNCALL	_Fuzzy,___wmul
	FNCALL	_Fuzzy,_abs
	FNCALL	_Fuzzy,_maximo
	FNCALL	_Fuzzy,_minimo
	FNCALL	_Fuzzy,_trapmf
	FNCALL	_Fuzzy,i1_PWM_DutyCycle2
	FNCALL	_trapmf,___ftadd
	FNCALL	_trapmf,___ftdiv
	FNCALL	_trapmf,___ftge
	FNCALL	_trapmf,___ftneg
	FNCALL	___ftdiv,___ftpack
	FNCALL	___ftadd,___ftpack
	FNCALL	_minimo,___ftge
	FNCALL	_maximo,___ftge
	FNCALL	___lwtoft,___ftpack
	FNCALL	___ftmul,___ftpack
	FNCALL	___awtoft,___ftpack
	FNCALL	intlevel1,_ISR
	global	intlevel1
	FNROOT	intlevel1
	global	_cruzeiroSet
	global	_lendo
	global	_pas_cooler
	global	_pwm
psect	idataBANK0,class=CODE,space=0,delta=2,noexec
global __pidataBANK0
__pidataBANK0:
	file	"R:\Note\Sistema I\Ultimo C no MPLAB\main.c"
	line	34

;initializer for _cruzeiroSet
	retlw	04Eh
	line	26

;initializer for _lendo
	retlw	04Eh
psect	idataBANK1,class=CODE,space=0,delta=2,noexec
global __pidataBANK1
__pidataBANK1:
	line	28

;initializer for _pas_cooler
	retlw	07h
	retlw	0

	line	31

;initializer for _pwm
	retlw	01h
	retlw	0

	global	_indicebuffer
	global	_rulegrande
	global	_rulemedio
	global	_rulepequeno
	global	_ADCResult
	global	_antigoUI
	global	_contagens_tm0
	global	_cruzeiroVel
	global	_deltaV
	global	_pulsos
	global	_rpm
	global	_setpointUI
	global	_status
	global	_x
	global	_buffer
	global	_bufferRecebido
	global	_antigo
	global	_ativa_fan
	global	_fitemp
	global	_sum
	global	_total_area
	global	_y
	global	_TMR1
_TMR1	set	0xE
	global	_ADCON0bits
_ADCON0bits	set	0x1F
	global	_ADRESH
_ADRESH	set	0x1E
	global	_CCP1CON
_CCP1CON	set	0x17
	global	_CCP1CONbits
_CCP1CONbits	set	0x17
	global	_CCP2CON
_CCP2CON	set	0x1D
	global	_CCP2CONbits
_CCP2CONbits	set	0x1D
	global	_CCPR1L
_CCPR1L	set	0x15
	global	_CCPR2L
_CCPR2L	set	0x1B
	global	_INTCONbits
_INTCONbits	set	0xB
	global	_PIR1bits
_PIR1bits	set	0xC
	global	_PIR2bits
_PIR2bits	set	0xD
	global	_PORTA
_PORTA	set	0x5
	global	_PORTB
_PORTB	set	0x6
	global	_PORTBbits
_PORTBbits	set	0x6
	global	_PORTC
_PORTC	set	0x7
	global	_PORTD
_PORTD	set	0x8
	global	_PORTE
_PORTE	set	0x9
	global	_PORTEbits
_PORTEbits	set	0x9
	global	_RCREG
_RCREG	set	0x1A
	global	_RCSTAbits
_RCSTAbits	set	0x18
	global	_SSPBUF
_SSPBUF	set	0x13
	global	_SSPCONbits
_SSPCONbits	set	0x14
	global	_T1CON
_T1CON	set	0x10
	global	_T1CONbits
_T1CONbits	set	0x10
	global	_T2CONbits
_T2CONbits	set	0x12
	global	_TMR0
_TMR0	set	0x1
	global	_TMR1H
_TMR1H	set	0xF
	global	_TMR1L
_TMR1L	set	0xE
	global	_TXREG
_TXREG	set	0x19
	global	_OERR
_OERR	set	0xC1
	global	_ADCON1bits
_ADCON1bits	set	0x9F
	global	_ADRESL
_ADRESL	set	0x9E
	global	_OPTION_REGbits
_OPTION_REGbits	set	0x81
	global	_PIE1bits
_PIE1bits	set	0x8C
	global	_PIE2bits
_PIE2bits	set	0x8D
	global	_PR2
_PR2	set	0x92
	global	_SPBRG
_SPBRG	set	0x99
	global	_SSPADD
_SSPADD	set	0x93
	global	_SSPCON2
_SSPCON2	set	0x91
	global	_SSPCON2bits
_SSPCON2bits	set	0x91
	global	_SSPSTATbits
_SSPSTATbits	set	0x94
	global	_TRISA
_TRISA	set	0x85
	global	_TRISB
_TRISB	set	0x86
	global	_TRISC
_TRISC	set	0x87
	global	_TRISD
_TRISD	set	0x88
	global	_TRISE
_TRISE	set	0x89
	global	_TXSTAbits
_TXSTAbits	set	0x98
	global	_EEADR
_EEADR	set	0x10D
	global	_EEDATA
_EEDATA	set	0x10C
	global	_EECON1bits
_EECON1bits	set	0x18C
	global	_EECON2
_EECON2	set	0x18D
psect	strings,class=STRING,delta=2,noexec
global __pstrings
__pstrings:
stringtab:
	global    __stringtab
__stringtab:
;	String table - string pointers are 1 byte each
stringcode:stringdir:
movlw high(stringdir)
movwf pclath
movf fsr,w
incf fsr
	addwf pc
	global __stringbase
__stringbase:
	retlw	0
psect	strings
	global    __end_of__stringtab
__end_of__stringtab:
	global __stringdata
__stringdata:
	
STR_4:	
	retlw	10
	retlw	13
	retlw	32	;' '
	retlw	45	;'-'
	retlw	45	;'-'
	retlw	45	;'-'
	retlw	45	;'-'
	retlw	45	;'-'
	retlw	45	;'-'
	retlw	45	;'-'
	retlw	32	;' '
	retlw	69	;'E'
	retlw	83	;'S'
	retlw	84	;'T'
	retlw	79	;'O'
	retlw	85	;'U'
	retlw	82	;'R'
	retlw	79	;'O'
	retlw	32	;' '
	retlw	68	;'D'
	retlw	69	;'E'
	retlw	32	;' '
	retlw	80	;'P'
	retlw	73	;'I'
	retlw	76	;'L'
	retlw	72	;'H'
	retlw	65	;'A'
	retlw	32	;' '
	retlw	45	;'-'
	retlw	45	;'-'
	retlw	45	;'-'
	retlw	45	;'-'
	retlw	45	;'-'
	retlw	45	;'-'
	retlw	45	;'-'
	retlw	32	;' '
	retlw	10
	retlw	13
	retlw	32	;' '
	retlw	0
psect	strings
	
STR_2:	
	retlw	73	;'I'
	retlw	110	;'n'
	retlw	105	;'i'
	retlw	99	;'c'
	retlw	105	;'i'
	retlw	97	;'a'
	retlw	108	;'l'
	retlw	105	;'i'
	retlw	122	;'z'
	retlw	97	;'a'
	retlw	110	;'n'
	retlw	100	;'d'
	retlw	111	;'o'
	retlw	46	;'.'
	retlw	46	;'.'
	retlw	46	;'.'
	retlw	0
psect	strings
	
STR_1:	
	retlw	10
	retlw	13
	retlw	102	;'f'
	retlw	114	;'r'
	retlw	101	;'e'
	retlw	105	;'i'
	retlw	111	;'o'
	retlw	10
	retlw	13
	retlw	0
psect	strings
	
STR_3:	
	retlw	107	;'k'
	retlw	109	;'m'
	retlw	72	;'H'
	retlw	58	;':'
	retlw	32	;' '
	retlw	0
psect	strings
	global __end_of__stringdata
__end_of__stringdata:
; #config settings
global __CFG_WDTE$OFF
__CFG_WDTE$OFF equ 0x0
global __CFG_PWRTE$ON
__CFG_PWRTE$ON equ 0x0
global __CFG_CP$OFF
__CFG_CP$OFF equ 0x0
global __CFG_BOREN$OFF
__CFG_BOREN$OFF equ 0x0
global __CFG_LVP$OFF
__CFG_LVP$OFF equ 0x0
global __CFG_CPD$OFF
__CFG_CPD$OFF equ 0x0
global __CFG_FOSC$HS
__CFG_FOSC$HS equ 0x0
	file	"PIC16F877A.as"
	line	#
psect cinit,class=CODE,delta=2
global start_initialization
start_initialization:

global __initialization
__initialization:
psect	bssBANK0,class=BANK0,space=1,noexec
global __pbssBANK0
__pbssBANK0:
_indicebuffer:
       ds      2

psect	dataBANK0,class=BANK0,space=1,noexec
global __pdataBANK0
__pdataBANK0:
	file	"R:\Note\Sistema I\Ultimo C no MPLAB\main.c"
	line	34
_cruzeiroSet:
       ds      1

psect	dataBANK0
	file	"R:\Note\Sistema I\Ultimo C no MPLAB\main.c"
	line	26
_lendo:
       ds      1

psect	bssBANK1,class=BANK1,space=1,noexec
global __pbssBANK1
__pbssBANK1:
_rulegrande:
       ds      3

_rulemedio:
       ds      3

_rulepequeno:
       ds      3

_ADCResult:
       ds      2

_antigoUI:
       ds      2

_contagens_tm0:
       ds      2

_cruzeiroVel:
       ds      2

_deltaV:
       ds      2

_pulsos:
       ds      2

_rpm:
       ds      2

_setpointUI:
       ds      2

_status:
       ds      2

_x:
       ds      2

psect	dataBANK1,class=BANK1,space=1,noexec
global __pdataBANK1
__pdataBANK1:
	file	"R:\Note\Sistema I\Ultimo C no MPLAB\main.c"
	line	28
_pas_cooler:
       ds      2

psect	dataBANK1
	file	"R:\Note\Sistema I\Ultimo C no MPLAB\main.c"
	line	31
_pwm:
       ds      2

psect	bssBANK3,class=BANK3,space=1,noexec
global __pbssBANK3
__pbssBANK3:
_buffer:
       ds      13

_bufferRecebido:
       ds      7

_antigo:
       ds      3

_ativa_fan:
       ds      3

_fitemp:
       ds      3

_sum:
       ds      3

_total_area:
       ds      3

_y:
       ds      2

	file	"PIC16F877A.as"
	line	#
psect clrtext,class=CODE,delta=2
global clear_ram0
;	Called with FSR containing the base address, and
;	W with the last address+1
clear_ram0:
	clrwdt			;clear the watchdog before getting into this loop
clrloop0:
	clrf	indf		;clear RAM location pointed to by FSR
	incf	fsr,f		;increment pointer
	xorwf	fsr,w		;XOR with final address
	btfsc	status,2	;have we reached the end yet?
	retlw	0		;all done for this memory range, return
	xorwf	fsr,w		;XOR again to restore value
	goto	clrloop0		;do the next byte

; Clear objects allocated to BANK0
psect cinit,class=CODE,delta=2,merge=1
	clrf	((__pbssBANK0)+0)&07Fh
	clrf	((__pbssBANK0)+1)&07Fh
; Clear objects allocated to BANK1
psect cinit,class=CODE,delta=2,merge=1
	bcf	status, 7	;select IRP bank0
	movlw	low(__pbssBANK1)
	movwf	fsr
	movlw	low((__pbssBANK1)+01Dh)
	fcall	clear_ram0
; Clear objects allocated to BANK3
psect cinit,class=CODE,delta=2,merge=1
	bsf	status, 7	;select IRP bank2
	movlw	low(__pbssBANK3)
	movwf	fsr
	movlw	low((__pbssBANK3)+025h)
	fcall	clear_ram0
	line	#
; Initialize objects allocated to BANK1
	global __pidataBANK1
psect cinit,class=CODE,delta=2,merge=1
	bsf	status, 5	;RP0=1, select bank1
	bcf	status, 6	;RP1=0, select bank1
	fcall	__pidataBANK1+0		;fetch initializer
	movwf	__pdataBANK1+0&07fh		
	fcall	__pidataBANK1+1		;fetch initializer
	movwf	__pdataBANK1+1&07fh		
	fcall	__pidataBANK1+2		;fetch initializer
	movwf	__pdataBANK1+2&07fh		
	fcall	__pidataBANK1+3		;fetch initializer
	movwf	__pdataBANK1+3&07fh		
; Initialize objects allocated to BANK0
	global __pidataBANK0
psect cinit,class=CODE,delta=2,merge=1
	bcf	status, 5	;RP0=0, select bank0
	bcf	status, 6	;RP1=0, select bank0
	fcall	__pidataBANK0+0		;fetch initializer
	movwf	__pdataBANK0+0&07fh		
	fcall	__pidataBANK0+1		;fetch initializer
	movwf	__pdataBANK0+1&07fh		
psect cinit,class=CODE,delta=2,merge=1
global end_of_initialization,__end_of__initialization

;End of C runtime variable initialization code

end_of_initialization:
__end_of__initialization:clrf status
ljmp _main	;jump to C main() function
psect	cstackBANK3,class=BANK3,space=1,noexec
global __pcstackBANK3
__pcstackBANK3:
?_PWM_DutyCycle2:	; 0 bytes @ 0x0
??_TIMER0_Set:	; 0 bytes @ 0x0
??_TIMER0_Init:	; 0 bytes @ 0x0
??_ADC_Init:	; 0 bytes @ 0x0
??_PWM_Init:	; 0 bytes @ 0x0
?_LCD_Cursor:	; 0 bytes @ 0x0
?_PWM_DutyCycle1:	; 0 bytes @ 0x0
??_LCD_WriteCmd:	; 0 bytes @ 0x0
??_LCD_WriteData:	; 0 bytes @ 0x0
	global	?___aldiv
?___aldiv:	; 4 bytes @ 0x0
	global	TIMER0_Set@contagens
TIMER0_Set@contagens:	; 1 bytes @ 0x0
	global	LCD_Cursor@Col
LCD_Cursor@Col:	; 1 bytes @ 0x0
	global	PWM_DutyCycle1@valor
PWM_DutyCycle1@valor:	; 2 bytes @ 0x0
	global	PWM_DutyCycle2@valor
PWM_DutyCycle2@valor:	; 2 bytes @ 0x0
	global	___aldiv@divisor
___aldiv@divisor:	; 4 bytes @ 0x0
	ds	1
??_LCD_Cursor:	; 0 bytes @ 0x1
	global	LCD_WriteCmd@Byte
LCD_WriteCmd@Byte:	; 1 bytes @ 0x1
	global	LCD_WriteData@Byte
LCD_WriteData@Byte:	; 1 bytes @ 0x1
	ds	1
??_PWM_DutyCycle2:	; 0 bytes @ 0x2
??_LCD_Init:	; 0 bytes @ 0x2
??_LCD_WriteString:	; 0 bytes @ 0x2
??_PWM_DutyCycle1:	; 0 bytes @ 0x2
??_LCD_Clear:	; 0 bytes @ 0x2
	global	LCD_Cursor@Row
LCD_Cursor@Row:	; 1 bytes @ 0x2
	ds	1
	global	LCD_WriteString@Str
LCD_WriteString@Str:	; 1 bytes @ 0x3
	ds	1
	global	___aldiv@dividend
___aldiv@dividend:	; 4 bytes @ 0x4
	ds	4
??___aldiv:	; 0 bytes @ 0x8
	ds	1
	global	___aldiv@counter
___aldiv@counter:	; 1 bytes @ 0x9
	ds	1
	global	___aldiv@sign
___aldiv@sign:	; 1 bytes @ 0xA
	ds	1
	global	___aldiv@quotient
___aldiv@quotient:	; 4 bytes @ 0xB
	ds	4
?_USART_Init:	; 0 bytes @ 0xF
	global	USART_Init@BaudRate
USART_Init@BaudRate:	; 4 bytes @ 0xF
	ds	4
??_USART_Init:	; 0 bytes @ 0x13
	ds	4
??_main:	; 0 bytes @ 0x17
	ds	3
psect	cstackBANK1,class=BANK1,space=1,noexec
global __pcstackBANK1
__pcstackBANK1:
	global	_Fuzzy$1692
_Fuzzy$1692:	; 3 bytes @ 0x0
	ds	3
	global	_Fuzzy$1693
_Fuzzy$1693:	; 2 bytes @ 0x3
	ds	2
	global	Fuzzy@reajuste
Fuzzy@reajuste:	; 3 bytes @ 0x5
	ds	3
	global	_Fuzzy$251
_Fuzzy$251:	; 2 bytes @ 0x8
	ds	2
	global	Fuzzy@a
Fuzzy@a:	; 2 bytes @ 0xA
	ds	2
	global	Fuzzy@a_244
Fuzzy@a_244:	; 2 bytes @ 0xC
	ds	2
	global	Fuzzy@a_245
Fuzzy@a_245:	; 2 bytes @ 0xE
	ds	2
	global	Fuzzy@a_246
Fuzzy@a_246:	; 2 bytes @ 0x10
	ds	2
	global	Fuzzy@delta
Fuzzy@delta:	; 2 bytes @ 0x12
	ds	2
	global	Fuzzy@soma
Fuzzy@soma:	; 3 bytes @ 0x14
	ds	3
	global	Fuzzy@total_area
Fuzzy@total_area:	; 3 bytes @ 0x17
	ds	3
	global	Fuzzy@a_249
Fuzzy@a_249:	; 2 bytes @ 0x1A
	ds	2
	global	Fuzzy@rule
Fuzzy@rule:	; 3 bytes @ 0x1C
	ds	3
	global	Fuzzy@x
Fuzzy@x:	; 3 bytes @ 0x1F
	ds	3
psect	cstackCOMMON,class=COMMON,space=1,noexec
global __pcstackCOMMON
__pcstackCOMMON:
?_USART_WriteChar:	; 0 bytes @ 0x0
??_USART_WriteChar:	; 0 bytes @ 0x0
?_USART_WriteString:	; 0 bytes @ 0x0
?_TIMER0_Set:	; 0 bytes @ 0x0
?_TIMER0_Init:	; 0 bytes @ 0x0
?_ADC_Init:	; 0 bytes @ 0x0
?_PWM_Init:	; 0 bytes @ 0x0
?_LCD_Init:	; 0 bytes @ 0x0
?_LCD_WriteString:	; 0 bytes @ 0x0
?_LCD_Clear:	; 0 bytes @ 0x0
?_enviabuffer:	; 0 bytes @ 0x0
?_Fuzzy:	; 0 bytes @ 0x0
?_ISR:	; 0 bytes @ 0x0
?_main:	; 0 bytes @ 0x0
?_LCD_WriteCmd:	; 0 bytes @ 0x0
?_LCD_WriteData:	; 0 bytes @ 0x0
?___ftge:	; 1 bit 
?i1_TIMER0_Set:	; 0 bytes @ 0x0
??i1_TIMER0_Set:	; 0 bytes @ 0x0
?i1_PWM_DutyCycle2:	; 0 bytes @ 0x0
?_USART_ReceiveChar:	; 1 bytes @ 0x0
	global	?_abs
?_abs:	; 2 bytes @ 0x0
	global	?___lwdiv
?___lwdiv:	; 2 bytes @ 0x0
	global	?___ftpack
?___ftpack:	; 3 bytes @ 0x0
	global	USART_WriteChar@byte
USART_WriteChar@byte:	; 1 bytes @ 0x0
	global	i1TIMER0_Set@contagens
i1TIMER0_Set@contagens:	; 1 bytes @ 0x0
	global	abs@a
abs@a:	; 2 bytes @ 0x0
	global	___lwdiv@divisor
___lwdiv@divisor:	; 2 bytes @ 0x0
	global	i1PWM_DutyCycle2@valor
i1PWM_DutyCycle2@valor:	; 2 bytes @ 0x0
	global	___ftpack@arg
___ftpack@arg:	; 3 bytes @ 0x0
	global	___ftge@ff1
___ftge@ff1:	; 3 bytes @ 0x0
	ds	1
??_USART_WriteString:	; 0 bytes @ 0x1
??_enviabuffer:	; 0 bytes @ 0x1
	ds	1
??_abs:	; 0 bytes @ 0x2
??i1_PWM_DutyCycle2:	; 0 bytes @ 0x2
	global	enviabuffer@checksum
enviabuffer@checksum:	; 1 bytes @ 0x2
	global	USART_WriteString@str
USART_WriteString@str:	; 1 bytes @ 0x2
	global	___lwdiv@dividend
___lwdiv@dividend:	; 2 bytes @ 0x2
	ds	1
??_USART_ReceiveChar:	; 0 bytes @ 0x3
	global	enviabuffer@index
enviabuffer@index:	; 1 bytes @ 0x3
	global	___ftpack@exp
___ftpack@exp:	; 1 bytes @ 0x3
	global	___ftge@ff2
___ftge@ff2:	; 3 bytes @ 0x3
	ds	1
??___lwdiv:	; 0 bytes @ 0x4
	global	USART_ReceiveChar@byte
USART_ReceiveChar@byte:	; 1 bytes @ 0x4
	global	___ftpack@sign
___ftpack@sign:	; 1 bytes @ 0x4
	ds	1
??___ftpack:	; 0 bytes @ 0x5
	global	___lwdiv@quotient
___lwdiv@quotient:	; 2 bytes @ 0x5
	ds	1
??___ftge:	; 0 bytes @ 0x6
	ds	1
	global	___lwdiv@counter
___lwdiv@counter:	; 1 bytes @ 0x7
	ds	1
	global	?___awtoft
?___awtoft:	; 3 bytes @ 0x8
	global	?___lwtoft
?___lwtoft:	; 3 bytes @ 0x8
	global	___awtoft@c
___awtoft@c:	; 2 bytes @ 0x8
	global	___lwtoft@c
___lwtoft@c:	; 2 bytes @ 0x8
	ds	3
??___awtoft:	; 0 bytes @ 0xB
??___lwtoft:	; 0 bytes @ 0xB
	ds	2
	global	___awtoft@sign
___awtoft@sign:	; 1 bytes @ 0xD
	ds	1
??_trapmf:	; 0 bytes @ 0xE
??_maximo:	; 0 bytes @ 0xE
??_minimo:	; 0 bytes @ 0xE
??___wmul:	; 0 bytes @ 0xE
??___ftneg:	; 0 bytes @ 0xE
psect	cstackBANK0,class=BANK0,space=1,noexec
global __pcstackBANK0
__pcstackBANK0:
	global	?_minimo
?_minimo:	; 3 bytes @ 0x0
	global	?___ftneg
?___ftneg:	; 3 bytes @ 0x0
	global	minimo@a
minimo@a:	; 3 bytes @ 0x0
	global	___ftneg@f1
___ftneg@f1:	; 3 bytes @ 0x0
	ds	3
	global	?___ftadd
?___ftadd:	; 3 bytes @ 0x3
	global	minimo@b
minimo@b:	; 3 bytes @ 0x3
	global	___ftadd@f1
___ftadd@f1:	; 3 bytes @ 0x3
	ds	3
	global	?_maximo
?_maximo:	; 3 bytes @ 0x6
	global	maximo@a
maximo@a:	; 3 bytes @ 0x6
	global	___ftadd@f2
___ftadd@f2:	; 3 bytes @ 0x6
	ds	3
??___ftadd:	; 0 bytes @ 0x9
	global	maximo@b
maximo@b:	; 3 bytes @ 0x9
	ds	3
	global	?___fttol
?___fttol:	; 4 bytes @ 0xC
	global	___fttol@f1
___fttol@f1:	; 3 bytes @ 0xC
	ds	1
	global	___ftadd@sign
___ftadd@sign:	; 1 bytes @ 0xD
	ds	1
	global	___ftadd@exp2
___ftadd@exp2:	; 1 bytes @ 0xE
	ds	1
	global	___ftadd@exp1
___ftadd@exp1:	; 1 bytes @ 0xF
	ds	1
??___fttol:	; 0 bytes @ 0x10
	global	?___ftdiv
?___ftdiv:	; 3 bytes @ 0x10
	global	___ftdiv@f2
___ftdiv@f2:	; 3 bytes @ 0x10
	ds	3
	global	___ftdiv@f1
___ftdiv@f1:	; 3 bytes @ 0x13
	ds	1
	global	___fttol@sign1
___fttol@sign1:	; 1 bytes @ 0x14
	ds	1
	global	___fttol@lval
___fttol@lval:	; 4 bytes @ 0x15
	ds	1
??___ftdiv:	; 0 bytes @ 0x16
	ds	3
	global	___fttol@exp1
___fttol@exp1:	; 1 bytes @ 0x19
	ds	1
	global	?___wmul
?___wmul:	; 2 bytes @ 0x1A
	global	___ftdiv@cntr
___ftdiv@cntr:	; 1 bytes @ 0x1A
	global	___wmul@multiplier
___wmul@multiplier:	; 2 bytes @ 0x1A
	ds	1
	global	___ftdiv@f3
___ftdiv@f3:	; 3 bytes @ 0x1B
	ds	1
	global	___wmul@multiplicand
___wmul@multiplicand:	; 2 bytes @ 0x1C
	ds	2
	global	___ftdiv@exp
___ftdiv@exp:	; 1 bytes @ 0x1E
	global	___wmul@product
___wmul@product:	; 2 bytes @ 0x1E
	ds	1
	global	___ftdiv@sign
___ftdiv@sign:	; 1 bytes @ 0x1F
	ds	1
	global	?_trapmf
?_trapmf:	; 3 bytes @ 0x20
	global	trapmf@x
trapmf@x:	; 3 bytes @ 0x20
	ds	3
	global	trapmf@a
trapmf@a:	; 3 bytes @ 0x23
	ds	3
	global	trapmf@b
trapmf@b:	; 3 bytes @ 0x26
	ds	3
	global	trapmf@c
trapmf@c:	; 3 bytes @ 0x29
	ds	3
	global	trapmf@d
trapmf@d:	; 3 bytes @ 0x2C
	ds	3
	global	trapmf@ua
trapmf@ua:	; 3 bytes @ 0x2F
	ds	3
	global	?___ftmul
?___ftmul:	; 3 bytes @ 0x32
	global	___ftmul@f1
___ftmul@f1:	; 3 bytes @ 0x32
	ds	3
	global	___ftmul@f2
___ftmul@f2:	; 3 bytes @ 0x35
	ds	3
??___ftmul:	; 0 bytes @ 0x38
	ds	4
	global	___ftmul@exp
___ftmul@exp:	; 1 bytes @ 0x3C
	ds	1
	global	___ftmul@f3_as_product
___ftmul@f3_as_product:	; 3 bytes @ 0x3D
	ds	3
	global	___ftmul@cntr
___ftmul@cntr:	; 1 bytes @ 0x40
	ds	1
	global	___ftmul@sign
___ftmul@sign:	; 1 bytes @ 0x41
	ds	1
??_Fuzzy:	; 0 bytes @ 0x42
	ds	2
??_ISR:	; 0 bytes @ 0x44
	ds	6
	global	ISR@byte
ISR@byte:	; 1 bytes @ 0x4A
	ds	1
;!
;!Data Sizes:
;!    Strings     73
;!    Constant    0
;!    Data        6
;!    BSS         68
;!    Persistent  0
;!    Stack       0
;!
;!Auto Spaces:
;!    Space          Size  Autos    Used
;!    COMMON           14     14      14
;!    BANK0            80     75      79
;!    BANK1            80     34      67
;!    BANK3            96     26      63
;!    BANK2            96      0       0

;!
;!Pointer List with Targets:
;!
;!    LCD_WriteString@Str	PTR const unsigned char  size(1) Largest target is 17
;!		 -> STR_3(CODE[6]), STR_2(CODE[17]), 
;!
;!    USART_WriteString@str	PTR const unsigned char  size(1) Largest target is 40
;!		 -> STR_4(CODE[40]), STR_1(CODE[10]), 
;!


;!
;!Critical Paths under _main in COMMON
;!
;!    None.
;!
;!Critical Paths under _ISR in COMMON
;!
;!    _enviabuffer->_USART_WriteChar
;!    _USART_ReceiveChar->_USART_WriteString
;!    _USART_WriteString->_USART_WriteChar
;!    _Fuzzy->___awtoft
;!    _trapmf->___awtoft
;!    ___ftneg->___awtoft
;!    ___ftadd->___awtoft
;!    _minimo->___awtoft
;!    _maximo->___awtoft
;!    ___lwtoft->___ftpack
;!    ___fttol->___awtoft
;!    ___ftmul->___awtoft
;!    ___awtoft->___ftpack
;!
;!Critical Paths under _main in BANK0
;!
;!    None.
;!
;!Critical Paths under _ISR in BANK0
;!
;!    _ISR->_Fuzzy
;!    _Fuzzy->___ftmul
;!    _trapmf->___ftdiv
;!    ___ftdiv->___ftadd
;!    ___ftadd->___ftneg
;!    _maximo->_minimo
;!    ___wmul->___fttol
;!    ___fttol->_maximo
;!    ___ftmul->_trapmf
;!
;!Critical Paths under _main in BANK1
;!
;!    None.
;!
;!Critical Paths under _ISR in BANK1
;!
;!    _ISR->_Fuzzy
;!
;!Critical Paths under _main in BANK3
;!
;!    _main->_USART_Init
;!    _USART_Init->___aldiv
;!    _LCD_WriteString->_LCD_WriteData
;!    _LCD_Init->_LCD_WriteCmd
;!    _LCD_Clear->_LCD_WriteCmd
;!
;!Critical Paths under _ISR in BANK3
;!
;!    None.
;!
;!Critical Paths under _main in BANK2
;!
;!    None.
;!
;!Critical Paths under _ISR in BANK2
;!
;!    None.

;;
;;Main: autosize = 0, tempsize = 3, incstack = 0, save=0
;;

;!
;!Call Graph Tables:
;!
;! ---------------------------------------------------------------------------------
;! (Depth) Function   	        Calls       Base Space   Used Autos Params    Refs
;! ---------------------------------------------------------------------------------
;! (0) _main                                                 3     3      0    1648
;!                                             23 BANK3      3     3      0
;!                           _ADC_Init
;!                          _LCD_Clear
;!                         _LCD_Cursor
;!                           _LCD_Init
;!                    _LCD_WriteString
;!                     _PWM_DutyCycle1
;!                     _PWM_DutyCycle2
;!                           _PWM_Init
;!                        _TIMER0_Init
;!                         _TIMER0_Set
;!                         _USART_Init
;! ---------------------------------------------------------------------------------
;! (1) _USART_Init                                           8     4      4     707
;!                                             15 BANK3      8     4      4
;!                            ___aldiv
;! ---------------------------------------------------------------------------------
;! (2) ___aldiv                                             15     7      8     599
;!                                              0 BANK3     15     7      8
;! ---------------------------------------------------------------------------------
;! (1) _TIMER0_Set                                           1     1      0      31
;!                                              0 BANK3      1     1      0
;! ---------------------------------------------------------------------------------
;! (1) _TIMER0_Init                                          0     0      0       0
;! ---------------------------------------------------------------------------------
;! (1) _PWM_Init                                             0     0      0       0
;! ---------------------------------------------------------------------------------
;! (1) _PWM_DutyCycle2                                       4     2      2     223
;!                                              0 BANK3      4     2      2
;! ---------------------------------------------------------------------------------
;! (1) _PWM_DutyCycle1                                       4     2      2     139
;!                                              0 BANK3      4     2      2
;! ---------------------------------------------------------------------------------
;! (1) _LCD_WriteString                                      2     2      0     162
;!                                              2 BANK3      2     2      0
;!                      _LCD_WriteData
;! ---------------------------------------------------------------------------------
;! (2) _LCD_WriteData                                        2     2      0      31
;!                                              0 BANK3      2     2      0
;! ---------------------------------------------------------------------------------
;! (1) _LCD_Init                                             2     2      0      31
;!                                              2 BANK3      2     2      0
;!                       _LCD_WriteCmd
;! ---------------------------------------------------------------------------------
;! (1) _LCD_Cursor                                           3     2      1     324
;!                                              0 BANK3      3     2      1
;! ---------------------------------------------------------------------------------
;! (1) _LCD_Clear                                            2     2      0      31
;!                                              2 BANK3      2     2      0
;!                       _LCD_WriteCmd
;! ---------------------------------------------------------------------------------
;! (2) _LCD_WriteCmd                                         2     2      0      31
;!                                              0 BANK3      2     2      0
;! ---------------------------------------------------------------------------------
;! (1) _ADC_Init                                             0     0      0       0
;! ---------------------------------------------------------------------------------
;! Estimated maximum stack depth 2
;! ---------------------------------------------------------------------------------
;! (Depth) Function   	        Calls       Base Space   Used Autos Params    Refs
;! ---------------------------------------------------------------------------------
;! (3) _ISR                                                  7     7      0   53800
;!                                             68 BANK0      7     7      0
;!                              _Fuzzy
;!                  _USART_ReceiveChar
;!                  _USART_WriteString
;!                            ___lwdiv
;!                             ___wmul
;!                        _enviabuffer
;!                   i1_PWM_DutyCycle2
;!                       i1_TIMER0_Set
;! ---------------------------------------------------------------------------------
;! (4) i1_TIMER0_Set                                         1     1      0      22
;!                                              0 COMMON     1     1      0
;! ---------------------------------------------------------------------------------
;! (4) _enviabuffer                                          3     3      0     136
;!                                              1 COMMON     3     3      0
;!                    _USART_WriteChar
;! ---------------------------------------------------------------------------------
;! (4) ___lwdiv                                              8     4      4     290
;!                                              0 COMMON     8     4      4
;! ---------------------------------------------------------------------------------
;! (4) _USART_ReceiveChar                                    2     2      0     151
;!                                              3 COMMON     2     2      0
;!                  _USART_WriteString
;! ---------------------------------------------------------------------------------
;! (4) _USART_WriteString                                    2     2      0     127
;!                                              1 COMMON     2     2      0
;!                    _USART_WriteChar
;! ---------------------------------------------------------------------------------
;! (5) _USART_WriteChar                                      1     1      0      22
;!                                              0 COMMON     1     1      0
;! ---------------------------------------------------------------------------------
;! (4) _Fuzzy                                               36    36      0   52498
;!                                             66 BANK0      2     2      0
;!                                              0 BANK1     34    34      0
;!                           ___awtoft
;!                            ___ftadd
;!                            ___ftdiv
;!                             ___ftge
;!                            ___ftmul
;!                            ___ftneg
;!                            ___fttol
;!                           ___lwtoft
;!                             ___wmul
;!                                _abs
;!                             _maximo
;!                             _minimo
;!                             _trapmf
;!                   i1_PWM_DutyCycle2
;! ---------------------------------------------------------------------------------
;! (4) i1_PWM_DutyCycle2                                     4     2      2      96
;!                                              0 COMMON     4     2      2
;! ---------------------------------------------------------------------------------
;! (5) _trapmf                                              18     3     15   19869
;!                                             32 BANK0     18     3     15
;!                           ___awtoft (ARG)
;!                            ___ftadd
;!                            ___ftdiv
;!                             ___ftge
;!                            ___ftneg
;!                           ___lwtoft (ARG)
;! ---------------------------------------------------------------------------------
;! (6) ___ftneg                                              3     0      3     621
;!                                              0 BANK0      3     0      3
;!                           ___awtoft (ARG)
;! ---------------------------------------------------------------------------------
;! (6) ___ftdiv                                             16    10      6    3007
;!                                             16 BANK0     16    10      6
;!                            ___ftadd (ARG)
;!                            ___ftneg (ARG)
;!                           ___ftpack
;! ---------------------------------------------------------------------------------
;! (6) ___ftadd                                             13     7      6    7603
;!                                              3 BANK0     13     7      6
;!                           ___awtoft (ARG)
;!                            ___ftneg (ARG)
;!                           ___ftpack
;! ---------------------------------------------------------------------------------
;! (5) _minimo                                               6     0      6    3552
;!                                              0 BANK0      6     0      6
;!                           ___awtoft (ARG)
;!                             ___ftge
;!                           ___lwtoft (ARG)
;!                                _abs (ARG)
;! ---------------------------------------------------------------------------------
;! (5) _maximo                                               6     0      6    3296
;!                                              6 BANK0      6     0      6
;!                           ___awtoft (ARG)
;!                             ___ftge
;!                           ___lwtoft (ARG)
;!                                _abs (ARG)
;!                             _minimo (ARG)
;! ---------------------------------------------------------------------------------
;! (6) ___ftge                                              12     6      6    2952
;!                                              0 COMMON    12     6      6
;! ---------------------------------------------------------------------------------
;! (5) _abs                                                  4     2      2     194
;!                                              0 COMMON     4     2      2
;! ---------------------------------------------------------------------------------
;! (4) ___wmul                                               6     2      4     348
;!                                             26 BANK0      6     2      4
;!                            ___fttol (ARG)
;!                            ___lwdiv (ARG)
;!                           ___lwtoft (ARG)
;!                             _maximo (ARG)
;!                             _minimo (ARG)
;! ---------------------------------------------------------------------------------
;! (5) ___lwtoft                                             4     1      3    2493
;!                                              8 COMMON     4     1      3
;!                           ___ftpack
;! ---------------------------------------------------------------------------------
;! (5) ___fttol                                             14    10      4     508
;!                                             12 BANK0     14    10      4
;!                           ___awtoft (ARG)
;!                           ___lwtoft (ARG)
;!                                _abs (ARG)
;!                             _maximo (ARG)
;!                             _minimo (ARG)
;! ---------------------------------------------------------------------------------
;! (5) ___ftmul                                             16    10      6    3053
;!                                             50 BANK0     16    10      6
;!                           ___awtoft (ARG)
;!                            ___ftadd (ARG)
;!                            ___ftneg (ARG)
;!                           ___ftpack
;!                           ___lwtoft (ARG)
;!                             _trapmf (ARG)
;! ---------------------------------------------------------------------------------
;! (5) ___awtoft                                             6     3      3    2434
;!                                              8 COMMON     6     3      3
;!                           ___ftpack
;!                                _abs (ARG)
;! ---------------------------------------------------------------------------------
;! (7) ___ftpack                                             8     3      5    2087
;!                                              0 COMMON     8     3      5
;! ---------------------------------------------------------------------------------
;! Estimated maximum stack depth 7
;! ---------------------------------------------------------------------------------
;!
;! Call Graph Graphs:
;!
;! _main (ROOT)
;!   _ADC_Init
;!   _LCD_Clear
;!     _LCD_WriteCmd
;!   _LCD_Cursor
;!   _LCD_Init
;!     _LCD_WriteCmd
;!   _LCD_WriteString
;!     _LCD_WriteData
;!   _PWM_DutyCycle1
;!   _PWM_DutyCycle2
;!   _PWM_Init
;!   _TIMER0_Init
;!   _TIMER0_Set
;!   _USART_Init
;!     ___aldiv
;!
;! _ISR (ROOT)
;!   _Fuzzy
;!     ___awtoft
;!       ___ftpack
;!       _abs (ARG)
;!     ___ftadd
;!       ___awtoft (ARG)
;!         ___ftpack
;!         _abs (ARG)
;!       ___ftneg (ARG)
;!         ___awtoft (ARG)
;!           ___ftpack
;!           _abs (ARG)
;!       ___ftpack (ARG)
;!     ___ftdiv
;!       ___ftadd (ARG)
;!         ___awtoft (ARG)
;!           ___ftpack
;!           _abs (ARG)
;!         ___ftneg (ARG)
;!           ___awtoft (ARG)
;!             ___ftpack
;!             _abs (ARG)
;!         ___ftpack (ARG)
;!       ___ftneg (ARG)
;!         ___awtoft (ARG)
;!           ___ftpack
;!           _abs (ARG)
;!       ___ftpack (ARG)
;!     ___ftge
;!     ___ftmul
;!       ___awtoft (ARG)
;!         ___ftpack
;!         _abs (ARG)
;!       ___ftadd (ARG)
;!         ___awtoft (ARG)
;!           ___ftpack
;!           _abs (ARG)
;!         ___ftneg (ARG)
;!           ___awtoft (ARG)
;!             ___ftpack
;!             _abs (ARG)
;!         ___ftpack (ARG)
;!       ___ftneg (ARG)
;!         ___awtoft (ARG)
;!           ___ftpack
;!           _abs (ARG)
;!       ___ftpack (ARG)
;!       ___lwtoft (ARG)
;!         ___ftpack
;!       _trapmf (ARG)
;!         ___awtoft (ARG)
;!           ___ftpack
;!           _abs (ARG)
;!         ___ftadd (ARG)
;!           ___awtoft (ARG)
;!             ___ftpack
;!             _abs (ARG)
;!           ___ftneg (ARG)
;!             ___awtoft (ARG)
;!               ___ftpack
;!               _abs (ARG)
;!           ___ftpack (ARG)
;!         ___ftdiv (ARG)
;!           ___ftadd (ARG)
;!             ___awtoft (ARG)
;!               ___ftpack
;!               _abs (ARG)
;!             ___ftneg (ARG)
;!               ___awtoft (ARG)
;!                 ___ftpack
;!                 _abs (ARG)
;!             ___ftpack (ARG)
;!           ___ftneg (ARG)
;!             ___awtoft (ARG)
;!               ___ftpack
;!               _abs (ARG)
;!           ___ftpack (ARG)
;!         ___ftge (ARG)
;!         ___ftneg (ARG)
;!           ___awtoft (ARG)
;!             ___ftpack
;!             _abs (ARG)
;!         ___lwtoft (ARG)
;!           ___ftpack
;!     ___ftneg
;!       ___awtoft (ARG)
;!         ___ftpack
;!         _abs (ARG)
;!     ___fttol
;!       ___awtoft (ARG)
;!         ___ftpack
;!         _abs (ARG)
;!       ___lwtoft (ARG)
;!         ___ftpack
;!       _abs (ARG)
;!       _maximo (ARG)
;!         ___awtoft (ARG)
;!           ___ftpack
;!           _abs (ARG)
;!         ___ftge (ARG)
;!         ___lwtoft (ARG)
;!           ___ftpack
;!         _abs (ARG)
;!         _minimo (ARG)
;!           ___awtoft (ARG)
;!             ___ftpack
;!             _abs (ARG)
;!           ___ftge (ARG)
;!           ___lwtoft (ARG)
;!             ___ftpack
;!           _abs (ARG)
;!       _minimo (ARG)
;!         ___awtoft (ARG)
;!           ___ftpack
;!           _abs (ARG)
;!         ___ftge (ARG)
;!         ___lwtoft (ARG)
;!           ___ftpack
;!         _abs (ARG)
;!     ___lwtoft
;!       ___ftpack
;!     ___wmul
;!       ___fttol (ARG)
;!         ___awtoft (ARG)
;!           ___ftpack
;!           _abs (ARG)
;!         ___lwtoft (ARG)
;!           ___ftpack
;!         _abs (ARG)
;!         _maximo (ARG)
;!           ___awtoft (ARG)
;!             ___ftpack
;!             _abs (ARG)
;!           ___ftge (ARG)
;!           ___lwtoft (ARG)
;!             ___ftpack
;!           _abs (ARG)
;!           _minimo (ARG)
;!             ___awtoft (ARG)
;!               ___ftpack
;!               _abs (ARG)
;!             ___ftge (ARG)
;!             ___lwtoft (ARG)
;!               ___ftpack
;!             _abs (ARG)
;!         _minimo (ARG)
;!           ___awtoft (ARG)
;!             ___ftpack
;!             _abs (ARG)
;!           ___ftge (ARG)
;!           ___lwtoft (ARG)
;!             ___ftpack
;!           _abs (ARG)
;!       ___lwdiv (ARG)
;!       ___lwtoft (ARG)
;!         ___ftpack
;!       _maximo (ARG)
;!         ___awtoft (ARG)
;!           ___ftpack
;!           _abs (ARG)
;!         ___ftge (ARG)
;!         ___lwtoft (ARG)
;!           ___ftpack
;!         _abs (ARG)
;!         _minimo (ARG)
;!           ___awtoft (ARG)
;!             ___ftpack
;!             _abs (ARG)
;!           ___ftge (ARG)
;!           ___lwtoft (ARG)
;!             ___ftpack
;!           _abs (ARG)
;!       _minimo (ARG)
;!         ___awtoft (ARG)
;!           ___ftpack
;!           _abs (ARG)
;!         ___ftge (ARG)
;!         ___lwtoft (ARG)
;!           ___ftpack
;!         _abs (ARG)
;!     _abs
;!     _maximo
;!       ___awtoft (ARG)
;!         ___ftpack
;!         _abs (ARG)
;!       ___ftge (ARG)
;!       ___lwtoft (ARG)
;!         ___ftpack
;!       _abs (ARG)
;!       _minimo (ARG)
;!         ___awtoft (ARG)
;!           ___ftpack
;!           _abs (ARG)
;!         ___ftge (ARG)
;!         ___lwtoft (ARG)
;!           ___ftpack
;!         _abs (ARG)
;!     _minimo
;!       ___awtoft (ARG)
;!         ___ftpack
;!         _abs (ARG)
;!       ___ftge (ARG)
;!       ___lwtoft (ARG)
;!         ___ftpack
;!       _abs (ARG)
;!     _trapmf
;!       ___awtoft (ARG)
;!         ___ftpack
;!         _abs (ARG)
;!       ___ftadd (ARG)
;!         ___awtoft (ARG)
;!           ___ftpack
;!           _abs (ARG)
;!         ___ftneg (ARG)
;!           ___awtoft (ARG)
;!             ___ftpack
;!             _abs (ARG)
;!         ___ftpack (ARG)
;!       ___ftdiv (ARG)
;!         ___ftadd (ARG)
;!           ___awtoft (ARG)
;!             ___ftpack
;!             _abs (ARG)
;!           ___ftneg (ARG)
;!             ___awtoft (ARG)
;!               ___ftpack
;!               _abs (ARG)
;!           ___ftpack (ARG)
;!         ___ftneg (ARG)
;!           ___awtoft (ARG)
;!             ___ftpack
;!             _abs (ARG)
;!         ___ftpack (ARG)
;!       ___ftge (ARG)
;!       ___ftneg (ARG)
;!         ___awtoft (ARG)
;!           ___ftpack
;!           _abs (ARG)
;!       ___lwtoft (ARG)
;!         ___ftpack
;!     i1_PWM_DutyCycle2
;!   _USART_ReceiveChar
;!     _USART_WriteString
;!       _USART_WriteChar
;!   _USART_WriteString
;!     _USART_WriteChar
;!   ___lwdiv
;!   ___wmul
;!     ___fttol (ARG)
;!       ___awtoft (ARG)
;!         ___ftpack
;!         _abs (ARG)
;!       ___lwtoft (ARG)
;!         ___ftpack
;!       _abs (ARG)
;!       _maximo (ARG)
;!         ___awtoft (ARG)
;!           ___ftpack
;!           _abs (ARG)
;!         ___ftge (ARG)
;!         ___lwtoft (ARG)
;!           ___ftpack
;!         _abs (ARG)
;!         _minimo (ARG)
;!           ___awtoft (ARG)
;!             ___ftpack
;!             _abs (ARG)
;!           ___ftge (ARG)
;!           ___lwtoft (ARG)
;!             ___ftpack
;!           _abs (ARG)
;!       _minimo (ARG)
;!         ___awtoft (ARG)
;!           ___ftpack
;!           _abs (ARG)
;!         ___ftge (ARG)
;!         ___lwtoft (ARG)
;!           ___ftpack
;!         _abs (ARG)
;!     ___lwdiv (ARG)
;!     ___lwtoft (ARG)
;!       ___ftpack
;!     _maximo (ARG)
;!       ___awtoft (ARG)
;!         ___ftpack
;!         _abs (ARG)
;!       ___ftge (ARG)
;!       ___lwtoft (ARG)
;!         ___ftpack
;!       _abs (ARG)
;!       _minimo (ARG)
;!         ___awtoft (ARG)
;!           ___ftpack
;!           _abs (ARG)
;!         ___ftge (ARG)
;!         ___lwtoft (ARG)
;!           ___ftpack
;!         _abs (ARG)
;!     _minimo (ARG)
;!       ___awtoft (ARG)
;!         ___ftpack
;!         _abs (ARG)
;!       ___ftge (ARG)
;!       ___lwtoft (ARG)
;!         ___ftpack
;!       _abs (ARG)
;!   _enviabuffer
;!     _USART_WriteChar
;!   i1_PWM_DutyCycle2
;!   i1_TIMER0_Set
;!

;! Address spaces:

;!Name               Size   Autos  Total    Cost      Usage
;!BANK3               60     1A      3F       9       65.6%
;!BITBANK3            60      0       0       8        0.0%
;!SFR3                 0      0       0       4        0.0%
;!BITSFR3              0      0       0       4        0.0%
;!BANK2               60      0       0      11        0.0%
;!BITBANK2            60      0       0      10        0.0%
;!SFR2                 0      0       0       5        0.0%
;!BITSFR2              0      0       0       5        0.0%
;!BANK1               50     22      43       7       83.8%
;!BITBANK1            50      0       0       6        0.0%
;!SFR1                 0      0       0       2        0.0%
;!BITSFR1              0      0       0       2        0.0%
;!BANK0               50     4B      4F       5       98.8%
;!BITBANK0            50      0       0       4        0.0%
;!SFR0                 0      0       0       1        0.0%
;!BITSFR0              0      0       0       1        0.0%
;!COMMON               E      E       E       1      100.0%
;!BITCOMMON            E      0       0       0        0.0%
;!CODE                 0      0       0       0        0.0%
;!DATA                 0      0      DF      12        0.0%
;!ABS                  0      0      DF       3        0.0%
;!NULL                 0      0       0       0        0.0%
;!STACK                0      0       0       2        0.0%
;!EEDATA             100      0       0       0        0.0%

	global	_main

;; *************** function _main *****************
;; Defined at:
;;		line 466 in file "R:\Note\Sistema I\Ultimo C no MPLAB\main.c"
;; Parameters:    Size  Location     Type
;;		None
;; Auto vars:     Size  Location     Type
;;		None
;; Return value:  Size  Location     Type
;;		None               void
;; Registers used:
;;		wreg, fsr0l, fsr0h, status,2, status,0, pclath, cstack
;; Tracked objects:
;;		On entry : 17F/0
;;		On exit  : 0/0
;;		Unchanged: 0/0
;; Data sizes:     COMMON   BANK0   BANK1   BANK3   BANK2
;;      Params:         0       0       0       0       0
;;      Locals:         0       0       0       0       0
;;      Temps:          0       0       0       3       0
;;      Totals:         0       0       0       3       0
;;Total ram usage:        3 bytes
;; Hardware stack levels required when called:    7
;; This function calls:
;;		_ADC_Init
;;		_LCD_Clear
;;		_LCD_Cursor
;;		_LCD_Init
;;		_LCD_WriteString
;;		_PWM_DutyCycle1
;;		_PWM_DutyCycle2
;;		_PWM_Init
;;		_TIMER0_Init
;;		_TIMER0_Set
;;		_USART_Init
;; This function is called by:
;;		Startup code after reset
;; This function uses a non-reentrant model
;;
psect	maintext,global,class=CODE,delta=2,split=1
	file	"R:\Note\Sistema I\Ultimo C no MPLAB\main.c"
	line	466
global __pmaintext
__pmaintext:	;psect for function _main
psect	maintext
	file	"R:\Note\Sistema I\Ultimo C no MPLAB\main.c"
	line	466
	global	__size_of_main
	__size_of_main	equ	__end_of_main-_main
	
_main:	
;incstack = 0
	opt	stack 1
; Regs used in _main: [wreg-fsr0h+status,2+status,0+pclath+cstack]
	line	468
	
l3289:	
;main.c: 468: TRISA = 0b00000001;
	movlw	(01h)
	bsf	status, 5	;RP0=1, select bank1
	bcf	status, 6	;RP1=0, select bank1
	movwf	(133)^080h	;volatile
	line	469
;main.c: 469: PORTA = 0b00000001;
	movlw	(01h)
	bcf	status, 5	;RP0=0, select bank0
	bcf	status, 6	;RP1=0, select bank0
	movwf	(5)	;volatile
	line	470
	
l3291:	
;main.c: 470: TRISB = 0b00000000;
	bsf	status, 5	;RP0=1, select bank1
	bcf	status, 6	;RP1=0, select bank1
	clrf	(134)^080h	;volatile
	line	471
	
l3293:	
;main.c: 471: PORTB = 0b00000000;
	bcf	status, 5	;RP0=0, select bank0
	bcf	status, 6	;RP1=0, select bank0
	clrf	(6)	;volatile
	line	472
;main.c: 472: TRISC = 0b10000001;
	movlw	(081h)
	bsf	status, 5	;RP0=1, select bank1
	bcf	status, 6	;RP1=0, select bank1
	movwf	(135)^080h	;volatile
	line	473
;main.c: 473: PORTC = 0b11000000;
	movlw	(0C0h)
	bcf	status, 5	;RP0=0, select bank0
	bcf	status, 6	;RP1=0, select bank0
	movwf	(7)	;volatile
	line	474
	
l3295:	
;main.c: 474: TRISD = 0b00000000;
	bsf	status, 5	;RP0=1, select bank1
	bcf	status, 6	;RP1=0, select bank1
	clrf	(136)^080h	;volatile
	line	475
	
l3297:	
;main.c: 475: PORTD = 0b00000000;
	bcf	status, 5	;RP0=0, select bank0
	bcf	status, 6	;RP1=0, select bank0
	clrf	(8)	;volatile
	line	476
	
l3299:	
;main.c: 476: TRISE = 0b00000000;
	bsf	status, 5	;RP0=1, select bank1
	bcf	status, 6	;RP1=0, select bank1
	clrf	(137)^080h	;volatile
	line	477
	
l3301:	
;main.c: 477: PORTE = 0b00000000;
	bcf	status, 5	;RP0=0, select bank0
	bcf	status, 6	;RP1=0, select bank0
	clrf	(9)	;volatile
	line	480
;main.c: 480: T1CON = 0x03;
	movlw	(03h)
	movwf	(16)	;volatile
	line	481
	
l3303:	
;main.c: 481: TMR1L = 0x00;
	clrf	(14)	;volatile
	line	482
	
l3305:	
;main.c: 482: TMR1H = 0x00;
	clrf	(15)	;volatile
	line	485
	
l3307:	
;main.c: 485: USART_Init(115200);
	movlw	0
	bsf	status, 5	;RP0=1, select bank3
	bsf	status, 6	;RP1=1, select bank3
	movwf	(USART_Init@BaudRate+3)^0180h
	movlw	01h
	movwf	(USART_Init@BaudRate+2)^0180h
	movlw	0C2h
	movwf	(USART_Init@BaudRate+1)^0180h
	movlw	0
	movwf	(USART_Init@BaudRate)^0180h

	fcall	_USART_Init
	line	486
;main.c: 486: TIMER0_Init();
	fcall	_TIMER0_Init
	line	487
;main.c: 487: ADC_Init();
	fcall	_ADC_Init
	line	488
	
l3309:	
;main.c: 488: PWM_Init();
	fcall	_PWM_Init
	line	489
	
l3311:	
;main.c: 489: LCD_Init();
	fcall	_LCD_Init
	line	492
	
l3313:	
;main.c: 492: INTCONbits.PEIE = 1;
	bsf	(11),6	;volatile
	line	493
	
l3315:	
;main.c: 493: INTCONbits.GIE = 1;
	bsf	(11),7	;volatile
	line	500
	
l3317:	
;main.c: 500: LCD_Init();
	fcall	_LCD_Init
	line	501
	
l3319:	
;main.c: 501: LCD_Cursor(0,0);
	bsf	status, 5	;RP0=1, select bank3
	bsf	status, 6	;RP1=1, select bank3
	clrf	(LCD_Cursor@Col)^0180h
	movlw	(0)
	fcall	_LCD_Cursor
	line	502
	
l3321:	
;main.c: 502: LCD_WriteString("Inicializando...");
	movlw	((STR_2)-__stringbase)&0ffh
	fcall	_LCD_WriteString
	line	505
	
l3323:	
;main.c: 505: PWM_DutyCycle1(0);
	movlw	low(0)
	bsf	status, 5	;RP0=1, select bank3
	bsf	status, 6	;RP1=1, select bank3
	movwf	(PWM_DutyCycle1@valor)^0180h
	movlw	high(0)
	movwf	((PWM_DutyCycle1@valor)^0180h)+1
	fcall	_PWM_DutyCycle1
	line	506
	
l3325:	
;main.c: 506: PWM_DutyCycle2(0);
	movlw	low(0)
	bsf	status, 5	;RP0=1, select bank3
	bsf	status, 6	;RP1=1, select bank3
	movwf	(PWM_DutyCycle2@valor)^0180h
	movlw	high(0)
	movwf	((PWM_DutyCycle2@valor)^0180h)+1
	fcall	_PWM_DutyCycle2
	line	509
	
l3327:	
;main.c: 509: TIMER0_Set(238);
	movlw	(0EEh)
	fcall	_TIMER0_Set
	line	512
	
l3329:	
;main.c: 512: _delay((unsigned long)((1000)*(18432000/4000.0)));
	opt asmopt_off
movlw  24
	bsf	status, 5	;RP0=1, select bank3
	bsf	status, 6	;RP1=1, select bank3
movwf	((??_main+0)^0180h+0+2),f
movlw	97
movwf	((??_main+0)^0180h+0+1),f
	movlw	110
movwf	((??_main+0)^0180h+0),f
u5837:
	decfsz	((??_main+0)^0180h+0),f
	goto	u5837
	decfsz	((??_main+0)^0180h+0+1),f
	goto	u5837
	decfsz	((??_main+0)^0180h+0+2),f
	goto	u5837
	nop
opt asmopt_on

	goto	l3331
	line	515
;main.c: 515: while(1)
	
l219:	
	line	522
	
l3331:	
;main.c: 516: {
;main.c: 522: LCD_Clear();
	fcall	_LCD_Clear
	line	523
	
l3333:	
;main.c: 523: LCD_Cursor(0,0);
	bsf	status, 5	;RP0=1, select bank3
	bsf	status, 6	;RP1=1, select bank3
	clrf	(LCD_Cursor@Col)^0180h
	movlw	(0)
	fcall	_LCD_Cursor
	line	524
;main.c: 524: LCD_WriteString("kmH: ");
	movlw	((STR_3)-__stringbase)&0ffh
	fcall	_LCD_WriteString
	line	527
	
l3335:	
;main.c: 527: LCD_Cursor(1,0);
	bsf	status, 5	;RP0=1, select bank3
	bsf	status, 6	;RP1=1, select bank3
	clrf	(LCD_Cursor@Col)^0180h
	movlw	(01h)
	fcall	_LCD_Cursor
	line	532
	
l3337:	
;main.c: 532: _delay((unsigned long)((200)*(18432000/4000.0)));
	opt asmopt_off
movlw  5
	bsf	status, 5	;RP0=1, select bank3
	bsf	status, 6	;RP1=1, select bank3
movwf	((??_main+0)^0180h+0+2),f
movlw	173
movwf	((??_main+0)^0180h+0+1),f
	movlw	224
movwf	((??_main+0)^0180h+0),f
u5847:
	decfsz	((??_main+0)^0180h+0),f
	goto	u5847
	decfsz	((??_main+0)^0180h+0+1),f
	goto	u5847
	decfsz	((??_main+0)^0180h+0+2),f
	goto	u5847
opt asmopt_on

	goto	l3331
	line	533
	
l220:	
	line	515
	goto	l3331
	
l221:	
	line	534
	
l222:	
	global	start
	ljmp	start
	opt stack 0
GLOBAL	__end_of_main
	__end_of_main:
	signat	_main,88
	global	_USART_Init

;; *************** function _USART_Init *****************
;; Defined at:
;;		line 6 in file "R:\Note\Sistema I\Ultimo C no MPLAB\usart.c"
;; Parameters:    Size  Location     Type
;;  BaudRate        4   15[BANK3 ] long 
;; Auto vars:     Size  Location     Type
;;		None
;; Return value:  Size  Location     Type
;;		None               void
;; Registers used:
;;		wreg, status,2, status,0, pclath, cstack
;; Tracked objects:
;;		On entry : 0/0
;;		On exit  : 0/0
;;		Unchanged: 0/0
;; Data sizes:     COMMON   BANK0   BANK1   BANK3   BANK2
;;      Params:         0       0       0       4       0
;;      Locals:         0       0       0       0       0
;;      Temps:          0       0       0       4       0
;;      Totals:         0       0       0       8       0
;;Total ram usage:        8 bytes
;; Hardware stack levels used:    1
;; Hardware stack levels required when called:    6
;; This function calls:
;;		___aldiv
;; This function is called by:
;;		_main
;; This function uses a non-reentrant model
;;
psect	text1,local,class=CODE,delta=2,merge=1
	file	"R:\Note\Sistema I\Ultimo C no MPLAB\usart.c"
	line	6
global __ptext1
__ptext1:	;psect for function _USART_Init
psect	text1
	file	"R:\Note\Sistema I\Ultimo C no MPLAB\usart.c"
	line	6
	global	__size_of_USART_Init
	__size_of_USART_Init	equ	__end_of_USART_Init-_USART_Init
	
_USART_Init:	
;incstack = 0
	opt	stack 1
; Regs used in _USART_Init: [wreg+status,2+status,0+pclath+cstack]
	line	13
	
l3157:	
;usart.c: 13: SPBRG = (unsigned char)(18432000 / (16 * BaudRate)) - 1;
	bsf	status, 5	;RP0=1, select bank3
	bsf	status, 6	;RP1=1, select bank3
	movf	(USART_Init@BaudRate)^0180h,w
	movwf	(??_USART_Init+0)^0180h+0
	movf	(USART_Init@BaudRate+1)^0180h,w
	movwf	((??_USART_Init+0)^0180h+0+1)
	movf	(USART_Init@BaudRate+2)^0180h,w
	movwf	((??_USART_Init+0)^0180h+0+2)
	movf	(USART_Init@BaudRate+3)^0180h,w
	movwf	((??_USART_Init+0)^0180h+0+3)
	movlw	04h
u3875:
	clrc
	rlf	(??_USART_Init+0)^0180h+0,f
	rlf	(??_USART_Init+0)^0180h+1,f
	rlf	(??_USART_Init+0)^0180h+2,f
	rlf	(??_USART_Init+0)^0180h+3,f
u3870:
	addlw	-1
	skipz
	goto	u3875
	movf	3+(??_USART_Init+0)^0180h+0,w
	movwf	(___aldiv@divisor+3)^0180h
	movf	2+(??_USART_Init+0)^0180h+0,w
	movwf	(___aldiv@divisor+2)^0180h
	movf	1+(??_USART_Init+0)^0180h+0,w
	movwf	(___aldiv@divisor+1)^0180h
	movf	0+(??_USART_Init+0)^0180h+0,w
	movwf	(___aldiv@divisor)^0180h

	movlw	01h
	movwf	(___aldiv@dividend+3)^0180h
	movlw	019h
	movwf	(___aldiv@dividend+2)^0180h
	movlw	040h
	movwf	(___aldiv@dividend+1)^0180h
	movlw	0
	movwf	(___aldiv@dividend)^0180h

	fcall	___aldiv
	bsf	status, 5	;RP0=1, select bank3
	bsf	status, 6	;RP1=1, select bank3
	movf	0+(((0+(?___aldiv))^0180h)),w
	addlw	0FFh
	bsf	status, 5	;RP0=1, select bank1
	bcf	status, 6	;RP1=0, select bank1
	movwf	(153)^080h	;volatile
	line	16
	
l3159:	
;usart.c: 16: TXSTAbits.CSRC = 0;
	bcf	(152)^080h,7	;volatile
	line	17
	
l3161:	
;usart.c: 17: TXSTAbits.TX9 = 0;
	bcf	(152)^080h,6	;volatile
	line	18
	
l3163:	
;usart.c: 18: TXSTAbits.TXEN = 1;
	bsf	(152)^080h,5	;volatile
	line	19
	
l3165:	
;usart.c: 19: TXSTAbits.SYNC = 0;
	bcf	(152)^080h,4	;volatile
	line	21
	
l3167:	
;usart.c: 21: TXSTAbits.BRGH = 1;
	bsf	(152)^080h,2	;volatile
	line	22
	
l3169:	
;usart.c: 22: TXSTAbits.TRMT = 1;
	bsf	(152)^080h,1	;volatile
	line	23
	
l3171:	
;usart.c: 23: TXSTAbits.TX9D = 0;
	bcf	(152)^080h,0	;volatile
	line	26
	
l3173:	
;usart.c: 26: RCSTAbits.SPEN = 1;
	bcf	status, 5	;RP0=0, select bank0
	bcf	status, 6	;RP1=0, select bank0
	bsf	(24),7	;volatile
	line	27
	
l3175:	
;usart.c: 27: RCSTAbits.RX9 = 0;
	bcf	(24),6	;volatile
	line	28
	
l3177:	
;usart.c: 28: RCSTAbits.SREN = 0;
	bcf	(24),5	;volatile
	line	29
	
l3179:	
;usart.c: 29: RCSTAbits.CREN = 1;
	bsf	(24),4	;volatile
	line	30
	
l3181:	
;usart.c: 30: RCSTAbits.ADDEN = 0;
	bcf	(24),3	;volatile
	line	31
	
l3183:	
;usart.c: 31: RCSTAbits.FERR = 0;
	bcf	(24),2	;volatile
	line	32
	
l3185:	
;usart.c: 32: RCSTAbits.OERR = 0;
	bcf	(24),1	;volatile
	line	33
	
l3187:	
;usart.c: 33: RCSTAbits.RX9D = 0;
	bcf	(24),0	;volatile
	line	36
	
l3189:	
;usart.c: 36: PIE1bits.TXIE = 0;
	bsf	status, 5	;RP0=1, select bank1
	bcf	status, 6	;RP1=0, select bank1
	bcf	(140)^080h,4	;volatile
	line	37
	
l3191:	
;usart.c: 37: PIR1bits.TXIF = 0;
	bcf	status, 5	;RP0=0, select bank0
	bcf	status, 6	;RP1=0, select bank0
	bcf	(12),4	;volatile
	line	38
	
l3193:	
;usart.c: 38: PIE1bits.RCIE = 1;
	bsf	status, 5	;RP0=1, select bank1
	bcf	status, 6	;RP1=0, select bank1
	bsf	(140)^080h,5	;volatile
	line	39
	
l3195:	
;usart.c: 39: PIR1bits.RCIF = 0;
	bcf	status, 5	;RP0=0, select bank0
	bcf	status, 6	;RP1=0, select bank0
	bcf	(12),5	;volatile
	line	40
	
l241:	
	return
	opt stack 0
GLOBAL	__end_of_USART_Init
	__end_of_USART_Init:
	signat	_USART_Init,4216
	global	___aldiv

;; *************** function ___aldiv *****************
;; Defined at:
;;		line 6 in file "C:\Program Files (x86)\Microchip\xc8\v1.33\sources\common\aldiv.c"
;; Parameters:    Size  Location     Type
;;  divisor         4    0[BANK3 ] long 
;;  dividend        4    4[BANK3 ] long 
;; Auto vars:     Size  Location     Type
;;  quotient        4   11[BANK3 ] long 
;;  sign            1   10[BANK3 ] unsigned char 
;;  counter         1    9[BANK3 ] unsigned char 
;; Return value:  Size  Location     Type
;;                  4    0[BANK3 ] long 
;; Registers used:
;;		wreg, status,2, status,0
;; Tracked objects:
;;		On entry : 0/0
;;		On exit  : 0/0
;;		Unchanged: 0/0
;; Data sizes:     COMMON   BANK0   BANK1   BANK3   BANK2
;;      Params:         0       0       0       8       0
;;      Locals:         0       0       0       6       0
;;      Temps:          0       0       0       1       0
;;      Totals:         0       0       0      15       0
;;Total ram usage:       15 bytes
;; Hardware stack levels used:    1
;; Hardware stack levels required when called:    5
;; This function calls:
;;		Nothing
;; This function is called by:
;;		_USART_Init
;; This function uses a non-reentrant model
;;
psect	text2,local,class=CODE,delta=2,merge=1
	file	"C:\Program Files (x86)\Microchip\xc8\v1.33\sources\common\aldiv.c"
	line	6
global __ptext2
__ptext2:	;psect for function ___aldiv
psect	text2
	file	"C:\Program Files (x86)\Microchip\xc8\v1.33\sources\common\aldiv.c"
	line	6
	global	__size_of___aldiv
	__size_of___aldiv	equ	__end_of___aldiv-___aldiv
	
___aldiv:	
;incstack = 0
	opt	stack 1
; Regs used in ___aldiv: [wreg+status,2+status,0]
	line	14
	
l3111:	
	bsf	status, 5	;RP0=1, select bank3
	bsf	status, 6	;RP1=1, select bank3
	clrf	(___aldiv@sign)^0180h
	line	15
	
l3113:	
	btfss	(___aldiv@divisor+3)^0180h,7
	goto	u3761
	goto	u3760
u3761:
	goto	l623
u3760:
	line	16
	
l3115:	
	comf	(___aldiv@divisor)^0180h,f
	comf	(___aldiv@divisor+1)^0180h,f
	comf	(___aldiv@divisor+2)^0180h,f
	comf	(___aldiv@divisor+3)^0180h,f
	incf	(___aldiv@divisor)^0180h,f
	skipnz
	incf	(___aldiv@divisor+1)^0180h,f
	skipnz
	incf	(___aldiv@divisor+2)^0180h,f
	skipnz
	incf	(___aldiv@divisor+3)^0180h,f
	line	17
	clrf	(___aldiv@sign)^0180h
	incf	(___aldiv@sign)^0180h,f
	line	18
	
l623:	
	line	19
	btfss	(___aldiv@dividend+3)^0180h,7
	goto	u3771
	goto	u3770
u3771:
	goto	l3121
u3770:
	line	20
	
l3117:	
	comf	(___aldiv@dividend)^0180h,f
	comf	(___aldiv@dividend+1)^0180h,f
	comf	(___aldiv@dividend+2)^0180h,f
	comf	(___aldiv@dividend+3)^0180h,f
	incf	(___aldiv@dividend)^0180h,f
	skipnz
	incf	(___aldiv@dividend+1)^0180h,f
	skipnz
	incf	(___aldiv@dividend+2)^0180h,f
	skipnz
	incf	(___aldiv@dividend+3)^0180h,f
	line	21
	
l3119:	
	movlw	(01h)
	movwf	(??___aldiv+0)^0180h+0
	movf	(??___aldiv+0)^0180h+0,w
	xorwf	(___aldiv@sign)^0180h,f
	goto	l3121
	line	22
	
l624:	
	line	23
	
l3121:	
	movlw	0
	movwf	(___aldiv@quotient+3)^0180h
	movlw	0
	movwf	(___aldiv@quotient+2)^0180h
	movlw	0
	movwf	(___aldiv@quotient+1)^0180h
	movlw	0
	movwf	(___aldiv@quotient)^0180h

	line	24
	
l3123:	
	movf	(___aldiv@divisor+3)^0180h,w
	iorwf	(___aldiv@divisor+2)^0180h,w
	iorwf	(___aldiv@divisor+1)^0180h,w
	iorwf	(___aldiv@divisor)^0180h,w
	skipnz
	goto	u3781
	goto	u3780
u3781:
	goto	l3143
u3780:
	line	25
	
l3125:	
	clrf	(___aldiv@counter)^0180h
	incf	(___aldiv@counter)^0180h,f
	line	26
	goto	l3129
	
l627:	
	line	27
	
l3127:	
	movlw	01h
	movwf	(??___aldiv+0)^0180h+0
u3795:
	clrc
	rlf	(___aldiv@divisor)^0180h,f
	rlf	(___aldiv@divisor+1)^0180h,f
	rlf	(___aldiv@divisor+2)^0180h,f
	rlf	(___aldiv@divisor+3)^0180h,f
	decfsz	(??___aldiv+0)^0180h+0
	goto	u3795
	line	28
	movlw	(01h)
	movwf	(??___aldiv+0)^0180h+0
	movf	(??___aldiv+0)^0180h+0,w
	addwf	(___aldiv@counter)^0180h,f
	goto	l3129
	line	29
	
l626:	
	line	26
	
l3129:	
	btfss	(___aldiv@divisor+3)^0180h,(31)&7
	goto	u3801
	goto	u3800
u3801:
	goto	l3127
u3800:
	goto	l3131
	
l628:	
	goto	l3131
	line	30
	
l629:	
	line	31
	
l3131:	
	movlw	01h
	movwf	(??___aldiv+0)^0180h+0
u3815:
	clrc
	rlf	(___aldiv@quotient)^0180h,f
	rlf	(___aldiv@quotient+1)^0180h,f
	rlf	(___aldiv@quotient+2)^0180h,f
	rlf	(___aldiv@quotient+3)^0180h,f
	decfsz	(??___aldiv+0)^0180h+0
	goto	u3815
	line	32
	
l3133:	
	movf	(___aldiv@divisor+3)^0180h,w
	subwf	(___aldiv@dividend+3)^0180h,w
	skipz
	goto	u3825
	movf	(___aldiv@divisor+2)^0180h,w
	subwf	(___aldiv@dividend+2)^0180h,w
	skipz
	goto	u3825
	movf	(___aldiv@divisor+1)^0180h,w
	subwf	(___aldiv@dividend+1)^0180h,w
	skipz
	goto	u3825
	movf	(___aldiv@divisor)^0180h,w
	subwf	(___aldiv@dividend)^0180h,w
u3825:
	skipc
	goto	u3821
	goto	u3820
u3821:
	goto	l3139
u3820:
	line	33
	
l3135:	
	movf	(___aldiv@divisor)^0180h,w
	subwf	(___aldiv@dividend)^0180h,f
	movf	(___aldiv@divisor+1)^0180h,w
	skipc
	incfsz	(___aldiv@divisor+1)^0180h,w
	subwf	(___aldiv@dividend+1)^0180h,f
	movf	(___aldiv@divisor+2)^0180h,w
	skipc
	incfsz	(___aldiv@divisor+2)^0180h,w
	subwf	(___aldiv@dividend+2)^0180h,f
	movf	(___aldiv@divisor+3)^0180h,w
	skipc
	incfsz	(___aldiv@divisor+3)^0180h,w
	subwf	(___aldiv@dividend+3)^0180h,f
	line	34
	
l3137:	
	bsf	(___aldiv@quotient)^0180h+(0/8),(0)&7
	goto	l3139
	line	35
	
l630:	
	line	36
	
l3139:	
	movlw	01h
u3835:
	clrc
	rrf	(___aldiv@divisor+3)^0180h,f
	rrf	(___aldiv@divisor+2)^0180h,f
	rrf	(___aldiv@divisor+1)^0180h,f
	rrf	(___aldiv@divisor)^0180h,f
	addlw	-1
	skipz
	goto	u3835

	line	37
	
l3141:	
	movlw	low(01h)
	subwf	(___aldiv@counter)^0180h,f
	btfss	status,2
	goto	u3841
	goto	u3840
u3841:
	goto	l3131
u3840:
	goto	l3143
	
l631:	
	goto	l3143
	line	38
	
l625:	
	line	39
	
l3143:	
	movf	(___aldiv@sign)^0180h,w
	skipz
	goto	u3850
	goto	l3147
u3850:
	line	40
	
l3145:	
	comf	(___aldiv@quotient)^0180h,f
	comf	(___aldiv@quotient+1)^0180h,f
	comf	(___aldiv@quotient+2)^0180h,f
	comf	(___aldiv@quotient+3)^0180h,f
	incf	(___aldiv@quotient)^0180h,f
	skipnz
	incf	(___aldiv@quotient+1)^0180h,f
	skipnz
	incf	(___aldiv@quotient+2)^0180h,f
	skipnz
	incf	(___aldiv@quotient+3)^0180h,f
	goto	l3147
	
l632:	
	line	41
	
l3147:	
	movf	(___aldiv@quotient+3)^0180h,w
	movwf	(?___aldiv+3)^0180h
	movf	(___aldiv@quotient+2)^0180h,w
	movwf	(?___aldiv+2)^0180h
	movf	(___aldiv@quotient+1)^0180h,w
	movwf	(?___aldiv+1)^0180h
	movf	(___aldiv@quotient)^0180h,w
	movwf	(?___aldiv)^0180h

	goto	l633
	
l3149:	
	line	42
	
l633:	
	return
	opt stack 0
GLOBAL	__end_of___aldiv
	__end_of___aldiv:
	signat	___aldiv,8316
	global	_TIMER0_Set

;; *************** function _TIMER0_Set *****************
;; Defined at:
;;		line 20 in file "R:\Note\Sistema I\Ultimo C no MPLAB\timers.c"
;; Parameters:    Size  Location     Type
;;  contagens       1    wreg     unsigned char 
;; Auto vars:     Size  Location     Type
;;  contagens       1    0[BANK3 ] unsigned char 
;; Return value:  Size  Location     Type
;;		None               void
;; Registers used:
;;		wreg
;; Tracked objects:
;;		On entry : 0/0
;;		On exit  : 0/0
;;		Unchanged: 0/0
;; Data sizes:     COMMON   BANK0   BANK1   BANK3   BANK2
;;      Params:         0       0       0       0       0
;;      Locals:         0       0       0       1       0
;;      Temps:          0       0       0       0       0
;;      Totals:         0       0       0       1       0
;;Total ram usage:        1 bytes
;; Hardware stack levels used:    1
;; Hardware stack levels required when called:    5
;; This function calls:
;;		Nothing
;; This function is called by:
;;		_main
;; This function uses a non-reentrant model
;;
psect	text3,local,class=CODE,delta=2,merge=1
	file	"R:\Note\Sistema I\Ultimo C no MPLAB\timers.c"
	line	20
global __ptext3
__ptext3:	;psect for function _TIMER0_Set
psect	text3
	file	"R:\Note\Sistema I\Ultimo C no MPLAB\timers.c"
	line	20
	global	__size_of_TIMER0_Set
	__size_of_TIMER0_Set	equ	__end_of_TIMER0_Set-_TIMER0_Set
	
_TIMER0_Set:	
;incstack = 0
	opt	stack 2
; Regs used in _TIMER0_Set: [wreg]
;TIMER0_Set@contagens stored from wreg
	bsf	status, 5	;RP0=1, select bank3
	bsf	status, 6	;RP1=1, select bank3
	movwf	(TIMER0_Set@contagens)^0180h
	line	22
	
l3155:	
;timers.c: 22: TMR0 = contagens;
	movf	(TIMER0_Set@contagens)^0180h,w
	bcf	status, 5	;RP0=0, select bank0
	bcf	status, 6	;RP1=0, select bank0
	movwf	(1)	;volatile
	line	23
	
l301:	
	return
	opt stack 0
GLOBAL	__end_of_TIMER0_Set
	__end_of_TIMER0_Set:
	signat	_TIMER0_Set,4216
	global	_TIMER0_Init

;; *************** function _TIMER0_Init *****************
;; Defined at:
;;		line 6 in file "R:\Note\Sistema I\Ultimo C no MPLAB\timers.c"
;; Parameters:    Size  Location     Type
;;		None
;; Auto vars:     Size  Location     Type
;;		None
;; Return value:  Size  Location     Type
;;		None               void
;; Registers used:
;;		None
;; Tracked objects:
;;		On entry : 0/0
;;		On exit  : 0/0
;;		Unchanged: 0/0
;; Data sizes:     COMMON   BANK0   BANK1   BANK3   BANK2
;;      Params:         0       0       0       0       0
;;      Locals:         0       0       0       0       0
;;      Temps:          0       0       0       0       0
;;      Totals:         0       0       0       0       0
;;Total ram usage:        0 bytes
;; Hardware stack levels used:    1
;; Hardware stack levels required when called:    5
;; This function calls:
;;		Nothing
;; This function is called by:
;;		_main
;; This function uses a non-reentrant model
;;
psect	text4,local,class=CODE,delta=2,merge=1
	line	6
global __ptext4
__ptext4:	;psect for function _TIMER0_Init
psect	text4
	file	"R:\Note\Sistema I\Ultimo C no MPLAB\timers.c"
	line	6
	global	__size_of_TIMER0_Init
	__size_of_TIMER0_Init	equ	__end_of_TIMER0_Init-_TIMER0_Init
	
_TIMER0_Init:	
;incstack = 0
	opt	stack 2
; Regs used in _TIMER0_Init: []
	line	8
	
l3197:	
;timers.c: 8: OPTION_REGbits.T0CS = 0;
	bsf	status, 5	;RP0=1, select bank1
	bcf	status, 6	;RP1=0, select bank1
	bcf	(129)^080h,5	;volatile
	line	9
;timers.c: 9: OPTION_REGbits.T0SE = 0;
	bcf	(129)^080h,4	;volatile
	line	10
;timers.c: 10: OPTION_REGbits.PSA = 0;
	bcf	(129)^080h,3	;volatile
	line	11
;timers.c: 11: OPTION_REGbits.PS2 = 1;
	bsf	(129)^080h,2	;volatile
	line	12
;timers.c: 12: OPTION_REGbits.PS1 = 1;
	bsf	(129)^080h,1	;volatile
	line	13
;timers.c: 13: OPTION_REGbits.PS0 = 1;
	bsf	(129)^080h,0	;volatile
	line	14
;timers.c: 14: INTCONbits.TMR0IF = 0;
	bcf	(11),2	;volatile
	line	15
;timers.c: 15: INTCONbits.TMR0IE = 1;
	bsf	(11),5	;volatile
	line	16
	
l298:	
	return
	opt stack 0
GLOBAL	__end_of_TIMER0_Init
	__end_of_TIMER0_Init:
	signat	_TIMER0_Init,88
	global	_PWM_Init

;; *************** function _PWM_Init *****************
;; Defined at:
;;		line 5 in file "R:\Note\Sistema I\Ultimo C no MPLAB\pwm.c"
;; Parameters:    Size  Location     Type
;;		None
;; Auto vars:     Size  Location     Type
;;		None
;; Return value:  Size  Location     Type
;;		None               void
;; Registers used:
;;		wreg
;; Tracked objects:
;;		On entry : 0/0
;;		On exit  : 0/0
;;		Unchanged: 0/0
;; Data sizes:     COMMON   BANK0   BANK1   BANK3   BANK2
;;      Params:         0       0       0       0       0
;;      Locals:         0       0       0       0       0
;;      Temps:          0       0       0       0       0
;;      Totals:         0       0       0       0       0
;;Total ram usage:        0 bytes
;; Hardware stack levels used:    1
;; Hardware stack levels required when called:    5
;; This function calls:
;;		Nothing
;; This function is called by:
;;		_main
;; This function uses a non-reentrant model
;;
psect	text5,local,class=CODE,delta=2,merge=1
	file	"R:\Note\Sistema I\Ultimo C no MPLAB\pwm.c"
	line	5
global __ptext5
__ptext5:	;psect for function _PWM_Init
psect	text5
	file	"R:\Note\Sistema I\Ultimo C no MPLAB\pwm.c"
	line	5
	global	__size_of_PWM_Init
	__size_of_PWM_Init	equ	__end_of_PWM_Init-_PWM_Init
	
_PWM_Init:	
;incstack = 0
	opt	stack 2
; Regs used in _PWM_Init: [wreg]
	line	14
	
l3201:	
;pwm.c: 14: T2CONbits.T2CKPS1 = 1;
	bcf	status, 5	;RP0=0, select bank0
	bcf	status, 6	;RP1=0, select bank0
	bsf	(18),1	;volatile
	line	15
;pwm.c: 15: T2CONbits.T2CKPS0 = 0;
	bcf	(18),0	;volatile
	line	18
;pwm.c: 18: T2CONbits.TOUTPS3 = 0;
	bcf	(18),6	;volatile
	line	19
;pwm.c: 19: T2CONbits.TOUTPS2 = 0;
	bcf	(18),5	;volatile
	line	20
;pwm.c: 20: T2CONbits.TOUTPS1 = 0;
	bcf	(18),4	;volatile
	line	21
;pwm.c: 21: T2CONbits.TOUTPS0 = 0;
	bcf	(18),3	;volatile
	line	24
;pwm.c: 24: T2CONbits.TMR2ON = 1;
	bsf	(18),2	;volatile
	line	27
	
l3203:	
;pwm.c: 27: PR2 = 255;
	movlw	(0FFh)
	bsf	status, 5	;RP0=1, select bank1
	bcf	status, 6	;RP1=0, select bank1
	movwf	(146)^080h	;volatile
	line	43
	
l3205:	
;pwm.c: 43: CCP1CONbits.CCP1M3 = 1;
	bcf	status, 5	;RP0=0, select bank0
	bcf	status, 6	;RP1=0, select bank0
	bsf	(23),3	;volatile
	line	44
	
l3207:	
;pwm.c: 44: CCP1CONbits.CCP1M2 = 1;
	bsf	(23),2	;volatile
	line	45
	
l3209:	
;pwm.c: 45: CCP1CONbits.CCP1M1 = 1;
	bsf	(23),1	;volatile
	line	46
	
l3211:	
;pwm.c: 46: CCP1CONbits.CCP1M0 = 1;
	bsf	(23),0	;volatile
	line	49
	
l3213:	
;pwm.c: 49: PIE1bits.CCP1IE = 1;
	bsf	status, 5	;RP0=1, select bank1
	bcf	status, 6	;RP1=0, select bank1
	bsf	(140)^080h,2	;volatile
	line	50
	
l3215:	
;pwm.c: 50: PIR1bits.CCP1IF = 0;
	bcf	status, 5	;RP0=0, select bank0
	bcf	status, 6	;RP1=0, select bank0
	bcf	(12),2	;volatile
	line	53
	
l3217:	
;pwm.c: 53: CCP2CONbits.CCP2M3 = 1;
	bsf	(29),3	;volatile
	line	54
	
l3219:	
;pwm.c: 54: CCP2CONbits.CCP2M2 = 1;
	bsf	(29),2	;volatile
	line	55
	
l3221:	
;pwm.c: 55: CCP2CONbits.CCP2M1 = 1;
	bsf	(29),1	;volatile
	line	56
	
l3223:	
;pwm.c: 56: CCP2CONbits.CCP2M0 = 1;
	bsf	(29),0	;volatile
	line	59
	
l3225:	
;pwm.c: 59: PIE2bits.CCP2IE = 1;
	bsf	status, 5	;RP0=1, select bank1
	bcf	status, 6	;RP1=0, select bank1
	bsf	(141)^080h,0	;volatile
	line	60
	
l3227:	
;pwm.c: 60: PIR2bits.CCP2IF = 0;
	bcf	status, 5	;RP0=0, select bank0
	bcf	status, 6	;RP1=0, select bank0
	bcf	(13),0	;volatile
	line	61
	
l449:	
	return
	opt stack 0
GLOBAL	__end_of_PWM_Init
	__end_of_PWM_Init:
	signat	_PWM_Init,88
	global	_PWM_DutyCycle2

;; *************** function _PWM_DutyCycle2 *****************
;; Defined at:
;;		line 96 in file "R:\Note\Sistema I\Ultimo C no MPLAB\pwm.c"
;; Parameters:    Size  Location     Type
;;  valor           2    0[BANK3 ] int 
;; Auto vars:     Size  Location     Type
;;		None
;; Return value:  Size  Location     Type
;;		None               void
;; Registers used:
;;		wreg, status,2, status,0
;; Tracked objects:
;;		On entry : 0/0
;;		On exit  : 0/0
;;		Unchanged: 0/0
;; Data sizes:     COMMON   BANK0   BANK1   BANK3   BANK2
;;      Params:         0       0       0       2       0
;;      Locals:         0       0       0       0       0
;;      Temps:          0       0       0       2       0
;;      Totals:         0       0       0       4       0
;;Total ram usage:        4 bytes
;; Hardware stack levels used:    1
;; Hardware stack levels required when called:    5
;; This function calls:
;;		Nothing
;; This function is called by:
;;		_main
;; This function uses a non-reentrant model
;;
psect	text6,local,class=CODE,delta=2,merge=1
	line	96
global __ptext6
__ptext6:	;psect for function _PWM_DutyCycle2
psect	text6
	file	"R:\Note\Sistema I\Ultimo C no MPLAB\pwm.c"
	line	96
	global	__size_of_PWM_DutyCycle2
	__size_of_PWM_DutyCycle2	equ	__end_of_PWM_DutyCycle2-_PWM_DutyCycle2
	
_PWM_DutyCycle2:	
;incstack = 0
	opt	stack 2
; Regs used in _PWM_DutyCycle2: [wreg+status,2+status,0]
	line	98
	
l3151:	
;pwm.c: 98: CCPR2L = valor >> 2;
	bsf	status, 5	;RP0=1, select bank3
	bsf	status, 6	;RP1=1, select bank3
	movf	(PWM_DutyCycle2@valor+1)^0180h,w
	movwf	(??_PWM_DutyCycle2+0)^0180h+0+1
	movf	(PWM_DutyCycle2@valor)^0180h,w
	movwf	(??_PWM_DutyCycle2+0)^0180h+0
	rlf	(??_PWM_DutyCycle2+0)^0180h+1,w
	rrf	(??_PWM_DutyCycle2+0)^0180h+1,f
	rrf	(??_PWM_DutyCycle2+0)^0180h+0,f
	rlf	(??_PWM_DutyCycle2+0)^0180h+1,w
	rrf	(??_PWM_DutyCycle2+0)^0180h+1,f
	rrf	(??_PWM_DutyCycle2+0)^0180h+0,f
	movf	0+(??_PWM_DutyCycle2+0)^0180h+0,w
	bcf	status, 5	;RP0=0, select bank0
	bcf	status, 6	;RP1=0, select bank0
	movwf	(27)	;volatile
	line	99
	
l3153:	
;pwm.c: 99: CCP2CON = (valor << 4)|0X0C;
	bsf	status, 5	;RP0=1, select bank3
	bsf	status, 6	;RP1=1, select bank3
	movf	(PWM_DutyCycle2@valor)^0180h,w
	movwf	(??_PWM_DutyCycle2+0)^0180h+0
	movlw	(04h)-1
u3865:
	clrc
	rlf	(??_PWM_DutyCycle2+0)^0180h+0,f
	addlw	-1
	skipz
	goto	u3865
	clrc
	rlf	(??_PWM_DutyCycle2+0)^0180h+0,w
	iorlw	0Ch
	bcf	status, 5	;RP0=0, select bank0
	bcf	status, 6	;RP1=0, select bank0
	movwf	(29)	;volatile
	line	100
	
l455:	
	return
	opt stack 0
GLOBAL	__end_of_PWM_DutyCycle2
	__end_of_PWM_DutyCycle2:
	signat	_PWM_DutyCycle2,4216
	global	_PWM_DutyCycle1

;; *************** function _PWM_DutyCycle1 *****************
;; Defined at:
;;		line 64 in file "R:\Note\Sistema I\Ultimo C no MPLAB\pwm.c"
;; Parameters:    Size  Location     Type
;;  valor           2    0[BANK3 ] int 
;; Auto vars:     Size  Location     Type
;;		None
;; Return value:  Size  Location     Type
;;		None               void
;; Registers used:
;;		wreg, status,2, status,0
;; Tracked objects:
;;		On entry : 0/0
;;		On exit  : 0/0
;;		Unchanged: 0/0
;; Data sizes:     COMMON   BANK0   BANK1   BANK3   BANK2
;;      Params:         0       0       0       2       0
;;      Locals:         0       0       0       0       0
;;      Temps:          0       0       0       2       0
;;      Totals:         0       0       0       4       0
;;Total ram usage:        4 bytes
;; Hardware stack levels used:    1
;; Hardware stack levels required when called:    5
;; This function calls:
;;		Nothing
;; This function is called by:
;;		_main
;; This function uses a non-reentrant model
;;
psect	text7,local,class=CODE,delta=2,merge=1
	line	64
global __ptext7
__ptext7:	;psect for function _PWM_DutyCycle1
psect	text7
	file	"R:\Note\Sistema I\Ultimo C no MPLAB\pwm.c"
	line	64
	global	__size_of_PWM_DutyCycle1
	__size_of_PWM_DutyCycle1	equ	__end_of_PWM_DutyCycle1-_PWM_DutyCycle1
	
_PWM_DutyCycle1:	
;incstack = 0
	opt	stack 2
; Regs used in _PWM_DutyCycle1: [wreg+status,2+status,0]
	line	91
	
l3275:	
;pwm.c: 91: CCPR1L = valor >> 2;
	bsf	status, 5	;RP0=1, select bank3
	bsf	status, 6	;RP1=1, select bank3
	movf	(PWM_DutyCycle1@valor+1)^0180h,w
	movwf	(??_PWM_DutyCycle1+0)^0180h+0+1
	movf	(PWM_DutyCycle1@valor)^0180h,w
	movwf	(??_PWM_DutyCycle1+0)^0180h+0
	rlf	(??_PWM_DutyCycle1+0)^0180h+1,w
	rrf	(??_PWM_DutyCycle1+0)^0180h+1,f
	rrf	(??_PWM_DutyCycle1+0)^0180h+0,f
	rlf	(??_PWM_DutyCycle1+0)^0180h+1,w
	rrf	(??_PWM_DutyCycle1+0)^0180h+1,f
	rrf	(??_PWM_DutyCycle1+0)^0180h+0,f
	movf	0+(??_PWM_DutyCycle1+0)^0180h+0,w
	bcf	status, 5	;RP0=0, select bank0
	bcf	status, 6	;RP1=0, select bank0
	movwf	(21)	;volatile
	line	92
	
l3277:	
;pwm.c: 92: CCP1CON = (valor << 4)|0X0C;
	bsf	status, 5	;RP0=1, select bank3
	bsf	status, 6	;RP1=1, select bank3
	movf	(PWM_DutyCycle1@valor)^0180h,w
	movwf	(??_PWM_DutyCycle1+0)^0180h+0
	movlw	(04h)-1
u3905:
	clrc
	rlf	(??_PWM_DutyCycle1+0)^0180h+0,f
	addlw	-1
	skipz
	goto	u3905
	clrc
	rlf	(??_PWM_DutyCycle1+0)^0180h+0,w
	iorlw	0Ch
	bcf	status, 5	;RP0=0, select bank0
	bcf	status, 6	;RP1=0, select bank0
	movwf	(23)	;volatile
	line	94
	
l452:	
	return
	opt stack 0
GLOBAL	__end_of_PWM_DutyCycle1
	__end_of_PWM_DutyCycle1:
	signat	_PWM_DutyCycle1,4216
	global	_LCD_WriteString

;; *************** function _LCD_WriteString *****************
;; Defined at:
;;		line 61 in file "R:\Note\Sistema I\Ultimo C no MPLAB\lcd.c"
;; Parameters:    Size  Location     Type
;;  Str             1    wreg     PTR const unsigned char 
;;		 -> STR_3(6), STR_2(17), 
;; Auto vars:     Size  Location     Type
;;  Str             1    3[BANK3 ] PTR const unsigned char 
;;		 -> STR_3(6), STR_2(17), 
;; Return value:  Size  Location     Type
;;		None               void
;; Registers used:
;;		wreg, fsr0l, fsr0h, status,2, status,0, pclath, cstack
;; Tracked objects:
;;		On entry : 0/0
;;		On exit  : 0/0
;;		Unchanged: 0/0
;; Data sizes:     COMMON   BANK0   BANK1   BANK3   BANK2
;;      Params:         0       0       0       0       0
;;      Locals:         0       0       0       1       0
;;      Temps:          0       0       0       1       0
;;      Totals:         0       0       0       2       0
;;Total ram usage:        2 bytes
;; Hardware stack levels used:    1
;; Hardware stack levels required when called:    6
;; This function calls:
;;		_LCD_WriteData
;; This function is called by:
;;		_main
;; This function uses a non-reentrant model
;;
psect	text8,local,class=CODE,delta=2,merge=1
	file	"R:\Note\Sistema I\Ultimo C no MPLAB\lcd.c"
	line	61
global __ptext8
__ptext8:	;psect for function _LCD_WriteString
psect	text8
	file	"R:\Note\Sistema I\Ultimo C no MPLAB\lcd.c"
	line	61
	global	__size_of_LCD_WriteString
	__size_of_LCD_WriteString	equ	__end_of_LCD_WriteString-_LCD_WriteString
	
_LCD_WriteString:	
;incstack = 0
	opt	stack 1
; Regs used in _LCD_WriteString: [wreg-fsr0h+status,2+status,0+pclath+cstack]
;LCD_WriteString@Str stored from wreg
	bsf	status, 5	;RP0=1, select bank3
	bsf	status, 6	;RP1=1, select bank3
	movwf	(LCD_WriteString@Str)^0180h
	line	63
	
l3267:	
;lcd.c: 63: while(*Str != '\0')
	goto	l3273
	
l330:	
	line	65
	
l3269:	
;lcd.c: 64: {
;lcd.c: 65: LCD_WriteData(*Str);
	movf	(LCD_WriteString@Str)^0180h,w
	movwf	fsr0
	fcall	stringdir
	fcall	_LCD_WriteData
	line	66
	
l3271:	
;lcd.c: 66: Str++;
	movlw	(01h)
	bsf	status, 5	;RP0=1, select bank3
	bsf	status, 6	;RP1=1, select bank3
	movwf	(??_LCD_WriteString+0)^0180h+0
	movf	(??_LCD_WriteString+0)^0180h+0,w
	addwf	(LCD_WriteString@Str)^0180h,f
	goto	l3273
	line	67
	
l329:	
	line	63
	
l3273:	
	movf	(LCD_WriteString@Str)^0180h,w
	movwf	fsr0
	fcall	stringdir
	iorlw	0
	skipz
	goto	u3891
	goto	u3890
u3891:
	goto	l3269
u3890:
	goto	l332
	
l331:	
	line	68
	
l332:	
	return
	opt stack 0
GLOBAL	__end_of_LCD_WriteString
	__end_of_LCD_WriteString:
	signat	_LCD_WriteString,4216
	global	_LCD_WriteData

;; *************** function _LCD_WriteData *****************
;; Defined at:
;;		line 47 in file "R:\Note\Sistema I\Ultimo C no MPLAB\lcd.c"
;; Parameters:    Size  Location     Type
;;  Byte            1    wreg     unsigned char 
;; Auto vars:     Size  Location     Type
;;  Byte            1    1[BANK3 ] unsigned char 
;; Return value:  Size  Location     Type
;;		None               void
;; Registers used:
;;		wreg
;; Tracked objects:
;;		On entry : 0/0
;;		On exit  : 0/0
;;		Unchanged: 0/0
;; Data sizes:     COMMON   BANK0   BANK1   BANK3   BANK2
;;      Params:         0       0       0       0       0
;;      Locals:         0       0       0       1       0
;;      Temps:          0       0       0       1       0
;;      Totals:         0       0       0       2       0
;;Total ram usage:        2 bytes
;; Hardware stack levels used:    1
;; Hardware stack levels required when called:    5
;; This function calls:
;;		Nothing
;; This function is called by:
;;		_LCD_WriteString
;; This function uses a non-reentrant model
;;
psect	text9,local,class=CODE,delta=2,merge=1
	line	47
global __ptext9
__ptext9:	;psect for function _LCD_WriteData
psect	text9
	file	"R:\Note\Sistema I\Ultimo C no MPLAB\lcd.c"
	line	47
	global	__size_of_LCD_WriteData
	__size_of_LCD_WriteData	equ	__end_of_LCD_WriteData-_LCD_WriteData
	
_LCD_WriteData:	
;incstack = 0
	opt	stack 1
; Regs used in _LCD_WriteData: [wreg]
;LCD_WriteData@Byte stored from wreg
	bsf	status, 5	;RP0=1, select bank3
	bsf	status, 6	;RP1=1, select bank3
	movwf	(LCD_WriteData@Byte)^0180h
	line	49
	
l3103:	
;lcd.c: 49: PORTEbits.RE0 = 1;
	bcf	status, 5	;RP0=0, select bank0
	bcf	status, 6	;RP1=0, select bank0
	bsf	(9),0	;volatile
	line	51
	
l3105:	
;lcd.c: 51: PORTD = Byte;
	bsf	status, 5	;RP0=1, select bank3
	bsf	status, 6	;RP1=1, select bank3
	movf	(LCD_WriteData@Byte)^0180h,w
	bcf	status, 5	;RP0=0, select bank0
	bcf	status, 6	;RP1=0, select bank0
	movwf	(8)	;volatile
	line	53
	
l3107:	
;lcd.c: 53: PORTEbits.RE1 = 1;
	bsf	(9),1	;volatile
	line	55
;lcd.c: 55: _delay((unsigned long)((40)*(18432000/4000000.0)));
	opt asmopt_off
movlw	61
	bsf	status, 5	;RP0=1, select bank3
	bsf	status, 6	;RP1=1, select bank3
movwf	(??_LCD_WriteData+0)^0180h+0,f
u5857:
decfsz	(??_LCD_WriteData+0)^0180h+0,f
	goto	u5857
opt asmopt_on

	line	57
	
l3109:	
;lcd.c: 57: PORTEbits.RE1 = 0;
	bcf	status, 5	;RP0=0, select bank0
	bcf	status, 6	;RP1=0, select bank0
	bcf	(9),1	;volatile
	line	58
	
l326:	
	return
	opt stack 0
GLOBAL	__end_of_LCD_WriteData
	__end_of_LCD_WriteData:
	signat	_LCD_WriteData,4216
	global	_LCD_Init

;; *************** function _LCD_Init *****************
;; Defined at:
;;		line 87 in file "R:\Note\Sistema I\Ultimo C no MPLAB\lcd.c"
;; Parameters:    Size  Location     Type
;;		None
;; Auto vars:     Size  Location     Type
;;		None
;; Return value:  Size  Location     Type
;;		None               void
;; Registers used:
;;		wreg, status,2, status,0, pclath, cstack
;; Tracked objects:
;;		On entry : 0/0
;;		On exit  : 0/0
;;		Unchanged: 0/0
;; Data sizes:     COMMON   BANK0   BANK1   BANK3   BANK2
;;      Params:         0       0       0       0       0
;;      Locals:         0       0       0       0       0
;;      Temps:          0       0       0       2       0
;;      Totals:         0       0       0       2       0
;;Total ram usage:        2 bytes
;; Hardware stack levels used:    1
;; Hardware stack levels required when called:    6
;; This function calls:
;;		_LCD_WriteCmd
;; This function is called by:
;;		_main
;; This function uses a non-reentrant model
;;
psect	text10,local,class=CODE,delta=2,merge=1
	line	87
global __ptext10
__ptext10:	;psect for function _LCD_Init
psect	text10
	file	"R:\Note\Sistema I\Ultimo C no MPLAB\lcd.c"
	line	87
	global	__size_of_LCD_Init
	__size_of_LCD_Init	equ	__end_of_LCD_Init-_LCD_Init
	
_LCD_Init:	
;incstack = 0
	opt	stack 1
; Regs used in _LCD_Init: [wreg+status,2+status,0+pclath+cstack]
	line	90
	
l3229:	
;lcd.c: 90: ADCON1bits.PCFG3 = 0;
	bsf	status, 5	;RP0=1, select bank1
	bcf	status, 6	;RP1=0, select bank1
	bcf	(159)^080h,3	;volatile
	line	91
;lcd.c: 91: ADCON1bits.PCFG2 = 1;
	bsf	(159)^080h,2	;volatile
	line	92
;lcd.c: 92: ADCON1bits.PCFG1 = 0;
	bcf	(159)^080h,1	;volatile
	line	93
;lcd.c: 93: ADCON1bits.PCFG0 = 0;
	bcf	(159)^080h,0	;volatile
	line	95
	
l3231:	
;lcd.c: 95: _delay((unsigned long)((15)*(18432000/4000.0)));
	opt asmopt_off
movlw	90
	bsf	status, 5	;RP0=1, select bank3
	bsf	status, 6	;RP1=1, select bank3
movwf	((??_LCD_Init+0)^0180h+0+1),f
	movlw	195
movwf	((??_LCD_Init+0)^0180h+0),f
u5867:
	decfsz	((??_LCD_Init+0)^0180h+0),f
	goto	u5867
	decfsz	((??_LCD_Init+0)^0180h+0+1),f
	goto	u5867
opt asmopt_on

	line	97
	
l3233:	
;lcd.c: 97: LCD_WriteCmd(0x30);
	movlw	(030h)
	fcall	_LCD_WriteCmd
	line	98
	
l3235:	
;lcd.c: 98: _delay((unsigned long)((4)*(18432000/4000.0)));
	opt asmopt_off
movlw	24
	bsf	status, 5	;RP0=1, select bank3
	bsf	status, 6	;RP1=1, select bank3
movwf	((??_LCD_Init+0)^0180h+0+1),f
	movlw	239
movwf	((??_LCD_Init+0)^0180h+0),f
u5877:
	decfsz	((??_LCD_Init+0)^0180h+0),f
	goto	u5877
	decfsz	((??_LCD_Init+0)^0180h+0+1),f
	goto	u5877
opt asmopt_on

	line	100
;lcd.c: 100: LCD_WriteCmd(0x30);
	movlw	(030h)
	fcall	_LCD_WriteCmd
	line	101
	
l3237:	
;lcd.c: 101: _delay((unsigned long)((100)*(18432000/4000000.0)));
	opt asmopt_off
movlw	153
	bsf	status, 5	;RP0=1, select bank3
	bsf	status, 6	;RP1=1, select bank3
movwf	(??_LCD_Init+0)^0180h+0,f
u5887:
decfsz	(??_LCD_Init+0)^0180h+0,f
	goto	u5887
opt asmopt_on

	line	103
	
l3239:	
;lcd.c: 103: LCD_WriteCmd(0x30);
	movlw	(030h)
	fcall	_LCD_WriteCmd
	line	104
;lcd.c: 104: _delay((unsigned long)((40)*(18432000/4000000.0)));
	opt asmopt_off
movlw	61
	bsf	status, 5	;RP0=1, select bank3
	bsf	status, 6	;RP1=1, select bank3
movwf	(??_LCD_Init+0)^0180h+0,f
u5897:
decfsz	(??_LCD_Init+0)^0180h+0,f
	goto	u5897
opt asmopt_on

	line	106
	
l3241:	
;lcd.c: 106: LCD_WriteCmd(0x38);
	movlw	(038h)
	fcall	_LCD_WriteCmd
	line	107
	
l3243:	
;lcd.c: 107: _delay((unsigned long)((40)*(18432000/4000000.0)));
	opt asmopt_off
movlw	61
	bsf	status, 5	;RP0=1, select bank3
	bsf	status, 6	;RP1=1, select bank3
movwf	(??_LCD_Init+0)^0180h+0,f
u5907:
decfsz	(??_LCD_Init+0)^0180h+0,f
	goto	u5907
opt asmopt_on

	line	109
;lcd.c: 109: LCD_WriteCmd(0x01);
	movlw	(01h)
	fcall	_LCD_WriteCmd
	line	110
	
l3245:	
;lcd.c: 110: _delay((unsigned long)((2)*(18432000/4000.0)));
	opt asmopt_off
movlw	12
	bsf	status, 5	;RP0=1, select bank3
	bsf	status, 6	;RP1=1, select bank3
movwf	((??_LCD_Init+0)^0180h+0+1),f
	movlw	247
movwf	((??_LCD_Init+0)^0180h+0),f
u5917:
	decfsz	((??_LCD_Init+0)^0180h+0),f
	goto	u5917
	decfsz	((??_LCD_Init+0)^0180h+0+1),f
	goto	u5917
opt asmopt_on

	line	112
	
l3247:	
;lcd.c: 112: LCD_WriteCmd(0x0C);
	movlw	(0Ch)
	fcall	_LCD_WriteCmd
	line	113
;lcd.c: 113: _delay((unsigned long)((40)*(18432000/4000000.0)));
	opt asmopt_off
movlw	61
	bsf	status, 5	;RP0=1, select bank3
	bsf	status, 6	;RP1=1, select bank3
movwf	(??_LCD_Init+0)^0180h+0,f
u5927:
decfsz	(??_LCD_Init+0)^0180h+0,f
	goto	u5927
opt asmopt_on

	line	115
	
l3249:	
;lcd.c: 115: LCD_WriteCmd(0x06);
	movlw	(06h)
	fcall	_LCD_WriteCmd
	line	116
	
l3251:	
;lcd.c: 116: _delay((unsigned long)((40)*(18432000/4000000.0)));
	opt asmopt_off
movlw	61
	bsf	status, 5	;RP0=1, select bank3
	bsf	status, 6	;RP1=1, select bank3
movwf	(??_LCD_Init+0)^0180h+0,f
u5937:
decfsz	(??_LCD_Init+0)^0180h+0,f
	goto	u5937
opt asmopt_on

	line	117
	
l338:	
	return
	opt stack 0
GLOBAL	__end_of_LCD_Init
	__end_of_LCD_Init:
	signat	_LCD_Init,88
	global	_LCD_Cursor

;; *************** function _LCD_Cursor *****************
;; Defined at:
;;		line 10 in file "R:\Note\Sistema I\Ultimo C no MPLAB\lcd.c"
;; Parameters:    Size  Location     Type
;;  Row             1    wreg     unsigned char 
;;  Col             1    0[BANK3 ] unsigned char 
;; Auto vars:     Size  Location     Type
;;  Row             1    2[BANK3 ] unsigned char 
;; Return value:  Size  Location     Type
;;		None               void
;; Registers used:
;;		wreg, status,2, status,0
;; Tracked objects:
;;		On entry : 0/0
;;		On exit  : 0/0
;;		Unchanged: 0/0
;; Data sizes:     COMMON   BANK0   BANK1   BANK3   BANK2
;;      Params:         0       0       0       1       0
;;      Locals:         0       0       0       1       0
;;      Temps:          0       0       0       1       0
;;      Totals:         0       0       0       3       0
;;Total ram usage:        3 bytes
;; Hardware stack levels used:    1
;; Hardware stack levels required when called:    5
;; This function calls:
;;		Nothing
;; This function is called by:
;;		_main
;; This function uses a non-reentrant model
;;
psect	text11,local,class=CODE,delta=2,merge=1
	line	10
global __ptext11
__ptext11:	;psect for function _LCD_Cursor
psect	text11
	file	"R:\Note\Sistema I\Ultimo C no MPLAB\lcd.c"
	line	10
	global	__size_of_LCD_Cursor
	__size_of_LCD_Cursor	equ	__end_of_LCD_Cursor-_LCD_Cursor
	
_LCD_Cursor:	
;incstack = 0
	opt	stack 2
; Regs used in _LCD_Cursor: [wreg+status,2+status,0]
;LCD_Cursor@Row stored from wreg
	bsf	status, 5	;RP0=1, select bank3
	bsf	status, 6	;RP1=1, select bank3
	movwf	(LCD_Cursor@Row)^0180h
	line	12
	
l3253:	
;lcd.c: 12: PORTEbits.RE0 = 0;
	bcf	status, 5	;RP0=0, select bank0
	bcf	status, 6	;RP1=0, select bank0
	bcf	(9),0	;volatile
	line	14
	
l3255:	
;lcd.c: 14: if (Row == 0)
	bsf	status, 5	;RP0=1, select bank3
	bsf	status, 6	;RP1=1, select bank3
	movf	(LCD_Cursor@Row)^0180h,f
	skipz
	goto	u3881
	goto	u3880
u3881:
	goto	l3259
u3880:
	line	16
	
l3257:	
;lcd.c: 15: {
;lcd.c: 16: PORTD = 0x80 + Col;
	movf	(LCD_Cursor@Col)^0180h,w
	addlw	080h
	bcf	status, 5	;RP0=0, select bank0
	bcf	status, 6	;RP1=0, select bank0
	movwf	(8)	;volatile
	line	17
;lcd.c: 17: }
	goto	l3261
	line	18
	
l318:	
	line	20
	
l3259:	
;lcd.c: 18: else
;lcd.c: 19: {
;lcd.c: 20: PORTD = 0xC0 + Col;
	bsf	status, 5	;RP0=1, select bank3
	bsf	status, 6	;RP1=1, select bank3
	movf	(LCD_Cursor@Col)^0180h,w
	addlw	0C0h
	bcf	status, 5	;RP0=0, select bank0
	bcf	status, 6	;RP1=0, select bank0
	movwf	(8)	;volatile
	goto	l3261
	line	21
	
l319:	
	line	24
	
l3261:	
;lcd.c: 21: }
;lcd.c: 24: PORTEbits.RE1 = 1;
	bsf	(9),1	;volatile
	line	26
	
l3263:	
;lcd.c: 26: _delay((unsigned long)((40)*(18432000/4000000.0)));
	opt asmopt_off
movlw	61
	bsf	status, 5	;RP0=1, select bank3
	bsf	status, 6	;RP1=1, select bank3
movwf	(??_LCD_Cursor+0)^0180h+0,f
u5947:
decfsz	(??_LCD_Cursor+0)^0180h+0,f
	goto	u5947
opt asmopt_on

	line	28
	
l3265:	
;lcd.c: 28: PORTEbits.RE1 = 0;
	bcf	status, 5	;RP0=0, select bank0
	bcf	status, 6	;RP1=0, select bank0
	bcf	(9),1	;volatile
	line	29
	
l320:	
	return
	opt stack 0
GLOBAL	__end_of_LCD_Cursor
	__end_of_LCD_Cursor:
	signat	_LCD_Cursor,8312
	global	_LCD_Clear

;; *************** function _LCD_Clear *****************
;; Defined at:
;;		line 71 in file "R:\Note\Sistema I\Ultimo C no MPLAB\lcd.c"
;; Parameters:    Size  Location     Type
;;		None
;; Auto vars:     Size  Location     Type
;;		None
;; Return value:  Size  Location     Type
;;		None               void
;; Registers used:
;;		wreg, status,2, status,0, pclath, cstack
;; Tracked objects:
;;		On entry : 0/0
;;		On exit  : 0/0
;;		Unchanged: 0/0
;; Data sizes:     COMMON   BANK0   BANK1   BANK3   BANK2
;;      Params:         0       0       0       0       0
;;      Locals:         0       0       0       0       0
;;      Temps:          0       0       0       2       0
;;      Totals:         0       0       0       2       0
;;Total ram usage:        2 bytes
;; Hardware stack levels used:    1
;; Hardware stack levels required when called:    6
;; This function calls:
;;		_LCD_WriteCmd
;; This function is called by:
;;		_main
;; This function uses a non-reentrant model
;;
psect	text12,local,class=CODE,delta=2,merge=1
	line	71
global __ptext12
__ptext12:	;psect for function _LCD_Clear
psect	text12
	file	"R:\Note\Sistema I\Ultimo C no MPLAB\lcd.c"
	line	71
	global	__size_of_LCD_Clear
	__size_of_LCD_Clear	equ	__end_of_LCD_Clear-_LCD_Clear
	
_LCD_Clear:	
;incstack = 0
	opt	stack 1
; Regs used in _LCD_Clear: [wreg+status,2+status,0+pclath+cstack]
	line	73
	
l3279:	
;lcd.c: 73: LCD_WriteCmd(0x01);
	movlw	(01h)
	fcall	_LCD_WriteCmd
	line	75
	
l3281:	
;lcd.c: 75: _delay((unsigned long)((2)*(18432000/4000.0)));
	opt asmopt_off
movlw	12
	bsf	status, 5	;RP0=1, select bank3
	bsf	status, 6	;RP1=1, select bank3
movwf	((??_LCD_Clear+0)^0180h+0+1),f
	movlw	247
movwf	((??_LCD_Clear+0)^0180h+0),f
u5957:
	decfsz	((??_LCD_Clear+0)^0180h+0),f
	goto	u5957
	decfsz	((??_LCD_Clear+0)^0180h+0+1),f
	goto	u5957
opt asmopt_on

	line	77
	
l3283:	
;lcd.c: 77: LCD_WriteCmd(0x0C);
	movlw	(0Ch)
	fcall	_LCD_WriteCmd
	line	79
;lcd.c: 79: _delay((unsigned long)((40)*(18432000/4000000.0)));
	opt asmopt_off
movlw	61
	bsf	status, 5	;RP0=1, select bank3
	bsf	status, 6	;RP1=1, select bank3
movwf	(??_LCD_Clear+0)^0180h+0,f
u5967:
decfsz	(??_LCD_Clear+0)^0180h+0,f
	goto	u5967
opt asmopt_on

	line	81
	
l3285:	
;lcd.c: 81: LCD_WriteCmd(0x06);
	movlw	(06h)
	fcall	_LCD_WriteCmd
	line	83
	
l3287:	
;lcd.c: 83: _delay((unsigned long)((40)*(18432000/4000000.0)));
	opt asmopt_off
movlw	61
	bsf	status, 5	;RP0=1, select bank3
	bsf	status, 6	;RP1=1, select bank3
movwf	(??_LCD_Clear+0)^0180h+0,f
u5977:
decfsz	(??_LCD_Clear+0)^0180h+0,f
	goto	u5977
opt asmopt_on

	line	84
	
l335:	
	return
	opt stack 0
GLOBAL	__end_of_LCD_Clear
	__end_of_LCD_Clear:
	signat	_LCD_Clear,88
	global	_LCD_WriteCmd

;; *************** function _LCD_WriteCmd *****************
;; Defined at:
;;		line 32 in file "R:\Note\Sistema I\Ultimo C no MPLAB\lcd.c"
;; Parameters:    Size  Location     Type
;;  Byte            1    wreg     unsigned char 
;; Auto vars:     Size  Location     Type
;;  Byte            1    1[BANK3 ] unsigned char 
;; Return value:  Size  Location     Type
;;		None               void
;; Registers used:
;;		wreg
;; Tracked objects:
;;		On entry : 0/0
;;		On exit  : 0/0
;;		Unchanged: 0/0
;; Data sizes:     COMMON   BANK0   BANK1   BANK3   BANK2
;;      Params:         0       0       0       0       0
;;      Locals:         0       0       0       1       0
;;      Temps:          0       0       0       1       0
;;      Totals:         0       0       0       2       0
;;Total ram usage:        2 bytes
;; Hardware stack levels used:    1
;; Hardware stack levels required when called:    5
;; This function calls:
;;		Nothing
;; This function is called by:
;;		_LCD_Clear
;;		_LCD_Init
;; This function uses a non-reentrant model
;;
psect	text13,local,class=CODE,delta=2,merge=1
	line	32
global __ptext13
__ptext13:	;psect for function _LCD_WriteCmd
psect	text13
	file	"R:\Note\Sistema I\Ultimo C no MPLAB\lcd.c"
	line	32
	global	__size_of_LCD_WriteCmd
	__size_of_LCD_WriteCmd	equ	__end_of_LCD_WriteCmd-_LCD_WriteCmd
	
_LCD_WriteCmd:	
;incstack = 0
	opt	stack 1
; Regs used in _LCD_WriteCmd: [wreg]
;LCD_WriteCmd@Byte stored from wreg
	bsf	status, 5	;RP0=1, select bank3
	bsf	status, 6	;RP1=1, select bank3
	movwf	(LCD_WriteCmd@Byte)^0180h
	line	34
	
l3095:	
;lcd.c: 34: PORTEbits.RE0 = 0;
	bcf	status, 5	;RP0=0, select bank0
	bcf	status, 6	;RP1=0, select bank0
	bcf	(9),0	;volatile
	line	36
	
l3097:	
;lcd.c: 36: PORTD = Byte;
	bsf	status, 5	;RP0=1, select bank3
	bsf	status, 6	;RP1=1, select bank3
	movf	(LCD_WriteCmd@Byte)^0180h,w
	bcf	status, 5	;RP0=0, select bank0
	bcf	status, 6	;RP1=0, select bank0
	movwf	(8)	;volatile
	line	39
	
l3099:	
;lcd.c: 39: PORTEbits.RE1 = 1;
	bsf	(9),1	;volatile
	line	41
;lcd.c: 41: _delay((unsigned long)((40)*(18432000/4000000.0)));
	opt asmopt_off
movlw	61
	bsf	status, 5	;RP0=1, select bank3
	bsf	status, 6	;RP1=1, select bank3
movwf	(??_LCD_WriteCmd+0)^0180h+0,f
u5987:
decfsz	(??_LCD_WriteCmd+0)^0180h+0,f
	goto	u5987
opt asmopt_on

	line	43
	
l3101:	
;lcd.c: 43: PORTEbits.RE1 = 0;
	bcf	status, 5	;RP0=0, select bank0
	bcf	status, 6	;RP1=0, select bank0
	bcf	(9),1	;volatile
	line	44
	
l323:	
	return
	opt stack 0
GLOBAL	__end_of_LCD_WriteCmd
	__end_of_LCD_WriteCmd:
	signat	_LCD_WriteCmd,4216
	global	_ADC_Init

;; *************** function _ADC_Init *****************
;; Defined at:
;;		line 6 in file "R:\Note\Sistema I\Ultimo C no MPLAB\adc.c"
;; Parameters:    Size  Location     Type
;;		None
;; Auto vars:     Size  Location     Type
;;		None
;; Return value:  Size  Location     Type
;;		None               void
;; Registers used:
;;		None
;; Tracked objects:
;;		On entry : 0/0
;;		On exit  : 0/0
;;		Unchanged: 0/0
;; Data sizes:     COMMON   BANK0   BANK1   BANK3   BANK2
;;      Params:         0       0       0       0       0
;;      Locals:         0       0       0       0       0
;;      Temps:          0       0       0       0       0
;;      Totals:         0       0       0       0       0
;;Total ram usage:        0 bytes
;; Hardware stack levels used:    1
;; Hardware stack levels required when called:    5
;; This function calls:
;;		Nothing
;; This function is called by:
;;		_main
;; This function uses a non-reentrant model
;;
psect	text14,local,class=CODE,delta=2,merge=1
	file	"R:\Note\Sistema I\Ultimo C no MPLAB\adc.c"
	line	6
global __ptext14
__ptext14:	;psect for function _ADC_Init
psect	text14
	file	"R:\Note\Sistema I\Ultimo C no MPLAB\adc.c"
	line	6
	global	__size_of_ADC_Init
	__size_of_ADC_Init	equ	__end_of_ADC_Init-_ADC_Init
	
_ADC_Init:	
;incstack = 0
	opt	stack 2
; Regs used in _ADC_Init: []
	line	9
	
l3199:	
;adc.c: 9: ADCON1bits.ADFM = 1;
	bsf	status, 5	;RP0=1, select bank1
	bcf	status, 6	;RP1=0, select bank1
	bsf	(159)^080h,7	;volatile
	line	32
;adc.c: 32: ADCON1bits.PCFG3 = 1;
	bsf	(159)^080h,3	;volatile
	line	33
;adc.c: 33: ADCON1bits.PCFG2 = 1;
	bsf	(159)^080h,2	;volatile
	line	34
;adc.c: 34: ADCON1bits.PCFG1 = 1;
	bsf	(159)^080h,1	;volatile
	line	35
;adc.c: 35: ADCON1bits.PCFG0 = 0;
	bcf	(159)^080h,0	;volatile
	line	38
;adc.c: 38: ADCON0bits.ADCS1 = 1;
	bcf	status, 5	;RP0=0, select bank0
	bcf	status, 6	;RP1=0, select bank0
	bsf	(31),7	;volatile
	line	39
;adc.c: 39: ADCON0bits.ADCS0 = 0;
	bcf	(31),6	;volatile
	line	42
;adc.c: 42: PIE1bits.ADIE = 0;
	bsf	status, 5	;RP0=1, select bank1
	bcf	status, 6	;RP1=0, select bank1
	bcf	(140)^080h,6	;volatile
	line	43
;adc.c: 43: PIR1bits.ADIF = 0;
	bcf	status, 5	;RP0=0, select bank0
	bcf	status, 6	;RP1=0, select bank0
	bcf	(12),6	;volatile
	line	44
	
l275:	
	return
	opt stack 0
GLOBAL	__end_of_ADC_Init
	__end_of_ADC_Init:
	signat	_ADC_Init,88
	global	_ISR

;; *************** function _ISR *****************
;; Defined at:
;;		line 312 in file "R:\Note\Sistema I\Ultimo C no MPLAB\main.c"
;; Parameters:    Size  Location     Type
;;		None
;; Auto vars:     Size  Location     Type
;;  byte            1   74[BANK0 ] unsigned char 
;; Return value:  Size  Location     Type
;;		None               void
;; Registers used:
;;		wreg, fsr0l, fsr0h, status,2, status,0, btemp+1, pclath, cstack
;; Tracked objects:
;;		On entry : 0/0
;;		On exit  : 0/0
;;		Unchanged: 0/0
;; Data sizes:     COMMON   BANK0   BANK1   BANK3   BANK2
;;      Params:         0       0       0       0       0
;;      Locals:         0       1       0       0       0
;;      Temps:          0       6       0       0       0
;;      Totals:         0       7       0       0       0
;;Total ram usage:        7 bytes
;; Hardware stack levels used:    1
;; Hardware stack levels required when called:    4
;; This function calls:
;;		_Fuzzy
;;		_USART_ReceiveChar
;;		_USART_WriteString
;;		___lwdiv
;;		___wmul
;;		_enviabuffer
;;		i1_PWM_DutyCycle2
;;		i1_TIMER0_Set
;; This function is called by:
;;		Interrupt level 1
;; This function uses a non-reentrant model
;;
psect	text15,local,class=CODE,delta=2,merge=1
	file	"R:\Note\Sistema I\Ultimo C no MPLAB\main.c"
	line	312
global __ptext15
__ptext15:	;psect for function _ISR
psect	text15
	file	"R:\Note\Sistema I\Ultimo C no MPLAB\main.c"
	line	312
	global	__size_of_ISR
	__size_of_ISR	equ	__end_of_ISR-_ISR
	
_ISR:	
;incstack = 0
	opt	stack 1
; Regs used in _ISR: [wreg-fsr0h+status,2+status,0+btemp+1+pclath+cstack]
psect	intentry,class=CODE,delta=2
global __pintentry
__pintentry:
global interrupt_function
interrupt_function:
	global saved_w
	saved_w	set	btemp+0
	movwf	saved_w
	swapf	status,w
	bcf	status, 5	;RP0=0, select bank0
	bcf	status, 6	;RP1=0, select bank0
	movwf	(??_ISR+2)
	movf	fsr0,w
	movwf	(??_ISR+3)
	movf	pclath,w
	movwf	(??_ISR+4)
	movf	btemp+1,w
	movwf	(??_ISR+5)
	ljmp	_ISR
psect	text15
	line	315
	
i1l4011:	
;main.c: 315: if (PIR1bits.RCIF)
	btfss	(12),5	;volatile
	goto	u557_21
	goto	u557_20
u557_21:
	goto	i1l4103
u557_20:
	line	318
	
i1l4013:	
;main.c: 316: {
;main.c: 318: unsigned char byte = USART_ReceiveChar();
	fcall	_USART_ReceiveChar
	bcf	status, 5	;RP0=0, select bank0
	bcf	status, 6	;RP1=0, select bank0
	movwf	(??_ISR+0)+0
	movf	(??_ISR+0)+0,w
	movwf	(ISR@byte)
	line	319
	
i1l4015:	
;main.c: 319: if (byte == '#')
	movf	(ISR@byte),w
	xorlw	023h
	skipz
	goto	u558_21
	goto	u558_20
u558_21:
	goto	i1l4025
u558_20:
	line	321
	
i1l4017:	
;main.c: 320: {
;main.c: 321: indicebuffer = 0;
	clrf	(_indicebuffer)
	clrf	(_indicebuffer+1)
	line	322
	
i1l4019:	
;main.c: 322: lendo = 'S';
	movlw	(053h)
	movwf	(??_ISR+0)+0
	movf	(??_ISR+0)+0,w
	movwf	(_lendo)
	line	323
	
i1l4021:	
;main.c: 323: PORTBbits.RB0 = 1;
	bsf	(6),0	;volatile
	line	324
	
i1l4023:	
;main.c: 324: bufferRecebido[indicebuffer] = byte;
	movf	(ISR@byte),w
	movwf	(??_ISR+0)+0
	movf	(_indicebuffer),w
	addlw	_bufferRecebido&0ffh
	movwf	fsr0
	movf	(??_ISR+0)+0,w
	bsf	status, 7	;select IRP bank3
	movwf	indf
	line	325
;main.c: 325: } else if(lendo == 'S'){
	goto	i1l4031
	
i1l195:	
	
i1l4025:	
	movf	(_lendo),w
	xorlw	053h
	skipz
	goto	u559_21
	goto	u559_20
u559_21:
	goto	i1l4031
u559_20:
	line	326
	
i1l4027:	
;main.c: 326: indicebuffer++;
	movlw	low(01h)
	addwf	(_indicebuffer),f
	skipnc
	incf	(_indicebuffer+1),f
	movlw	high(01h)
	addwf	(_indicebuffer+1),f
	line	327
	
i1l4029:	
;main.c: 327: bufferRecebido[indicebuffer] = byte;
	movf	(ISR@byte),w
	movwf	(??_ISR+0)+0
	movf	(_indicebuffer),w
	addlw	_bufferRecebido&0ffh
	movwf	fsr0
	movf	(??_ISR+0)+0,w
	bsf	status, 7	;select IRP bank3
	movwf	indf
	goto	i1l4031
	line	328
	
i1l197:	
	goto	i1l4031
	line	330
	
i1l196:	
	
i1l4031:	
;main.c: 328: }
;main.c: 330: if (indicebuffer >= 6 && lendo == 'S') {
	movlw	high(06h)
	subwf	(_indicebuffer+1),w
	movlw	low(06h)
	skipnz
	subwf	(_indicebuffer),w
	skipc
	goto	u560_21
	goto	u560_20
u560_21:
	goto	i1l4049
u560_20:
	
i1l4033:	
	movf	(_lendo),w
	xorlw	053h
	skipz
	goto	u561_21
	goto	u561_20
u561_21:
	goto	i1l4049
u561_20:
	line	331
	
i1l4035:	
;main.c: 331: indicebuffer = 0;
	clrf	(_indicebuffer)
	clrf	(_indicebuffer+1)
	line	333
	
i1l4037:	
;main.c: 333: if (bufferRecebido[0] == '#' && bufferRecebido[1] == '$' && bufferRecebido[2] == ':') {
	bsf	status, 5	;RP0=1, select bank3
	bsf	status, 6	;RP1=1, select bank3
	movf	(_bufferRecebido)^0180h,w
	xorlw	023h
	skipz
	goto	u562_21
	goto	u562_20
u562_21:
	goto	i1l4049
u562_20:
	
i1l4039:	
	movf	0+(_bufferRecebido)^0180h+01h,w
	xorlw	024h
	skipz
	goto	u563_21
	goto	u563_20
u563_21:
	goto	i1l4049
u563_20:
	
i1l4041:	
	movf	0+(_bufferRecebido)^0180h+02h,w
	xorlw	03Ah
	skipz
	goto	u564_21
	goto	u564_20
u564_21:
	goto	i1l4049
u564_20:
	line	335
	
i1l4043:	
;main.c: 335: antigoUI = 0;
	bsf	status, 5	;RP0=1, select bank1
	bcf	status, 6	;RP1=0, select bank1
	clrf	(_antigoUI)^080h
	clrf	(_antigoUI+1)^080h
	line	336
;main.c: 336: deltaV = 0;
	clrf	(_deltaV)^080h
	clrf	(_deltaV+1)^080h
	line	337
	
i1l4045:	
;main.c: 337: PORTBbits.RB2 = 1;
	bcf	status, 5	;RP0=0, select bank0
	bcf	status, 6	;RP1=0, select bank0
	bsf	(6),2	;volatile
	line	339
	
i1l4047:	
;main.c: 339: setpointUI = (bufferRecebido[3] << 8) + (bufferRecebido[4]);
	bsf	status, 5	;RP0=1, select bank3
	bsf	status, 6	;RP1=1, select bank3
	movf	0+(_bufferRecebido)^0180h+03h,w
	bcf	status, 5	;RP0=0, select bank0
	bcf	status, 6	;RP1=0, select bank0
	movwf	(??_ISR+0)+0
	clrf	(??_ISR+0)+0+1
	movf	(??_ISR+0)+0,w
	movwf	(??_ISR+0)+1
	clrf	(??_ISR+0)+0
	bsf	status, 5	;RP0=1, select bank3
	bsf	status, 6	;RP1=1, select bank3
	movf	0+(_bufferRecebido)^0180h+04h,w
	bcf	status, 5	;RP0=0, select bank0
	bcf	status, 6	;RP1=0, select bank0
	addwf	0+(??_ISR+0)+0,w
	bsf	status, 5	;RP0=1, select bank1
	bcf	status, 6	;RP1=0, select bank1
	movwf	(_setpointUI)^080h
	movlw	0
	skipnc
	movlw	1
	bcf	status, 5	;RP0=0, select bank0
	bcf	status, 6	;RP1=0, select bank0
	addwf	1+(??_ISR+0)+0,w
	bsf	status, 5	;RP0=1, select bank1
	bcf	status, 6	;RP1=0, select bank1
	movwf	1+(_setpointUI)^080h
	goto	i1l4049
	line	349
	
i1l199:	
	goto	i1l4049
	line	350
	
i1l198:	
	line	353
	
i1l4049:	
;main.c: 349: }
;main.c: 350: }
;main.c: 353: if (USART_ReceiveChar() == '0' && lendo == 'N')
	fcall	_USART_ReceiveChar
	xorlw	030h
	skipz
	goto	u565_21
	goto	u565_20
u565_21:
	goto	i1l4061
u565_20:
	
i1l4051:	
	bcf	status, 5	;RP0=0, select bank0
	bcf	status, 6	;RP1=0, select bank0
	movf	(_lendo),w
	xorlw	04Eh
	skipz
	goto	u566_21
	goto	u566_20
u566_21:
	goto	i1l4061
u566_20:
	line	355
	
i1l4053:	
;main.c: 354: {
;main.c: 355: USART_WriteString("\n\rfreio\n\r");
	movlw	((STR_1)-__stringbase)&0ffh
	fcall	_USART_WriteString
	line	357
	
i1l4055:	
;main.c: 357: PWM_DutyCycle2(0);
	movlw	low(0)
	movwf	(i1PWM_DutyCycle2@valor)
	movlw	high(0)
	movwf	((i1PWM_DutyCycle2@valor))+1
	fcall	i1_PWM_DutyCycle2
	line	358
	
i1l4057:	
;main.c: 358: cruzeiroSet = 'N';
	movlw	(04Eh)
	bcf	status, 5	;RP0=0, select bank0
	bcf	status, 6	;RP1=0, select bank0
	movwf	(??_ISR+0)+0
	movf	(??_ISR+0)+0,w
	movwf	(_cruzeiroSet)
	goto	i1l201
	line	359
	
i1l4059:	
;main.c: 359: return;
	goto	i1l201
	line	360
	
i1l200:	
	line	364
	
i1l4061:	
;main.c: 360: }
;main.c: 364: if((USART_ReceiveChar() == 'S' || cruzeiroSet == 'S') && (lendo == 'N'))
	fcall	_USART_ReceiveChar
	xorlw	053h
	skipnz
	goto	u567_21
	goto	u567_20
u567_21:
	goto	i1l4065
u567_20:
	
i1l4063:	
	bcf	status, 5	;RP0=0, select bank0
	bcf	status, 6	;RP1=0, select bank0
	movf	(_cruzeiroSet),w
	xorlw	053h
	skipz
	goto	u568_21
	goto	u568_20
u568_21:
	goto	i1l4071
u568_20:
	goto	i1l4065
	
i1l204:	
	
i1l4065:	
	bcf	status, 5	;RP0=0, select bank0
	bcf	status, 6	;RP1=0, select bank0
	movf	(_lendo),w
	xorlw	04Eh
	skipz
	goto	u569_21
	goto	u569_20
u569_21:
	goto	i1l4071
u569_20:
	line	366
	
i1l4067:	
;main.c: 365: {
;main.c: 366: setpointUI = antigoUI;
	bsf	status, 5	;RP0=1, select bank1
	bcf	status, 6	;RP1=0, select bank1
	movf	(_antigoUI+1)^080h,w
	clrf	(_setpointUI+1)^080h
	addwf	(_setpointUI+1)^080h
	movf	(_antigoUI)^080h,w
	clrf	(_setpointUI)^080h
	addwf	(_setpointUI)^080h

	line	367
;main.c: 367: cruzeiroVel = setpointUI;
	movf	(_setpointUI+1)^080h,w
	clrf	(_cruzeiroVel+1)^080h
	addwf	(_cruzeiroVel+1)^080h
	movf	(_setpointUI)^080h,w
	clrf	(_cruzeiroVel)^080h
	addwf	(_cruzeiroVel)^080h

	line	368
	
i1l4069:	
;main.c: 368: cruzeiroSet = 'S';
	movlw	(053h)
	bcf	status, 5	;RP0=0, select bank0
	bcf	status, 6	;RP1=0, select bank0
	movwf	(??_ISR+0)+0
	movf	(??_ISR+0)+0,w
	movwf	(_cruzeiroSet)
	line	369
;main.c: 369: }else if(USART_ReceiveChar() == 'R' && cruzeiroSet == 'S' && lendo == 'N')
	goto	i1l4091
	
i1l202:	
	
i1l4071:	
	fcall	_USART_ReceiveChar
	xorlw	052h
	skipz
	goto	u570_21
	goto	u570_20
u570_21:
	goto	i1l4081
u570_20:
	
i1l4073:	
	bcf	status, 5	;RP0=0, select bank0
	bcf	status, 6	;RP1=0, select bank0
	movf	(_cruzeiroSet),w
	xorlw	053h
	skipz
	goto	u571_21
	goto	u571_20
u571_21:
	goto	i1l4081
u571_20:
	
i1l4075:	
	movf	(_lendo),w
	xorlw	04Eh
	skipz
	goto	u572_21
	goto	u572_20
u572_21:
	goto	i1l4081
u572_20:
	line	371
	
i1l4077:	
;main.c: 370: {
;main.c: 371: setpointUI += 150;
	movlw	low(096h)
	bsf	status, 5	;RP0=1, select bank1
	bcf	status, 6	;RP1=0, select bank1
	addwf	(_setpointUI)^080h,f
	skipnc
	incf	(_setpointUI+1)^080h,f
	movlw	high(096h)
	addwf	(_setpointUI+1)^080h,f
	line	372
	
i1l4079:	
;main.c: 372: cruzeiroVel = setpointUI;
	movf	(_setpointUI+1)^080h,w
	clrf	(_cruzeiroVel+1)^080h
	addwf	(_cruzeiroVel+1)^080h
	movf	(_setpointUI)^080h,w
	clrf	(_cruzeiroVel)^080h
	addwf	(_cruzeiroVel)^080h

	line	373
;main.c: 373: }else if(USART_ReceiveChar() == 'R' && cruzeiroSet == 'N' && lendo == 'N')
	goto	i1l4091
	
i1l206:	
	
i1l4081:	
	fcall	_USART_ReceiveChar
	xorlw	052h
	skipz
	goto	u573_21
	goto	u573_20
u573_21:
	goto	i1l4091
u573_20:
	
i1l4083:	
	bcf	status, 5	;RP0=0, select bank0
	bcf	status, 6	;RP1=0, select bank0
	movf	(_cruzeiroSet),w
	xorlw	04Eh
	skipz
	goto	u574_21
	goto	u574_20
u574_21:
	goto	i1l4091
u574_20:
	
i1l4085:	
	movf	(_lendo),w
	xorlw	04Eh
	skipz
	goto	u575_21
	goto	u575_20
u575_21:
	goto	i1l4091
u575_20:
	line	375
	
i1l4087:	
;main.c: 374: {
;main.c: 375: setpointUI = antigoUI;
	bsf	status, 5	;RP0=1, select bank1
	bcf	status, 6	;RP1=0, select bank1
	movf	(_antigoUI+1)^080h,w
	clrf	(_setpointUI+1)^080h
	addwf	(_setpointUI+1)^080h
	movf	(_antigoUI)^080h,w
	clrf	(_setpointUI)^080h
	addwf	(_setpointUI)^080h

	line	376
;main.c: 376: cruzeiroVel = setpointUI;
	movf	(_setpointUI+1)^080h,w
	clrf	(_cruzeiroVel+1)^080h
	addwf	(_cruzeiroVel+1)^080h
	movf	(_setpointUI)^080h,w
	clrf	(_cruzeiroVel)^080h
	addwf	(_cruzeiroVel)^080h

	line	377
	
i1l4089:	
;main.c: 377: cruzeiroSet = 'S';
	movlw	(053h)
	bcf	status, 5	;RP0=0, select bank0
	bcf	status, 6	;RP1=0, select bank0
	movwf	(??_ISR+0)+0
	movf	(??_ISR+0)+0,w
	movwf	(_cruzeiroSet)
	goto	i1l4091
	line	378
	
i1l208:	
	goto	i1l4091
	line	381
	
i1l207:	
	goto	i1l4091
	
i1l205:	
	
i1l4091:	
;main.c: 378: }
;main.c: 381: if (lendo == 'N')
	bcf	status, 5	;RP0=0, select bank0
	bcf	status, 6	;RP1=0, select bank0
	movf	(_lendo),w
	xorlw	04Eh
	skipz
	goto	u576_21
	goto	u576_20
u576_21:
	goto	i1l4097
u576_20:
	line	383
	
i1l4093:	
;main.c: 382: {
;main.c: 383: Fuzzy();
	fcall	_Fuzzy
	line	384
	
i1l4095:	
;main.c: 384: antigoUI = setpointUI;
	bsf	status, 5	;RP0=1, select bank1
	bcf	status, 6	;RP1=0, select bank1
	movf	(_setpointUI+1)^080h,w
	clrf	(_antigoUI+1)^080h
	addwf	(_antigoUI+1)^080h
	movf	(_setpointUI)^080h,w
	clrf	(_antigoUI)^080h
	addwf	(_antigoUI)^080h

	goto	i1l4097
	line	385
	
i1l209:	
	line	388
	
i1l4097:	
;main.c: 385: }
;main.c: 388: if(lendo == 'N')
	bcf	status, 5	;RP0=0, select bank0
	movf	(_lendo),w
	xorlw	04Eh
	skipz
	goto	u577_21
	goto	u577_20
u577_21:
	goto	i1l4101
u577_20:
	line	390
	
i1l4099:	
;main.c: 389: {
;main.c: 390: enviabuffer();
	fcall	_enviabuffer
	goto	i1l4101
	line	391
	
i1l210:	
	line	393
	
i1l4101:	
;main.c: 391: }
;main.c: 393: PIR1bits.RCIF = 0;
	bcf	status, 5	;RP0=0, select bank0
	bcf	status, 6	;RP1=0, select bank0
	bcf	(12),5	;volatile
	goto	i1l4103
	line	394
	
i1l194:	
	line	397
	
i1l4103:	
;main.c: 394: }
;main.c: 397: if (PIR1bits.ADIF)
	btfss	(12),6	;volatile
	goto	u578_21
	goto	u578_20
u578_21:
	goto	i1l211
u578_20:
	line	402
	
i1l4105:	
;main.c: 398: {
;main.c: 402: PIR1bits.ADIF = 0;
	bcf	(12),6	;volatile
	line	403
	
i1l211:	
	line	407
;main.c: 403: }
;main.c: 407: if (INTCONbits.T0IF)
	btfss	(11),2	;volatile
	goto	u579_21
	goto	u579_20
u579_21:
	goto	i1l4129
u579_20:
	line	410
	
i1l4107:	
;main.c: 408: {
;main.c: 410: TIMER0_Set(238);
	movlw	(0EEh)
	fcall	i1_TIMER0_Set
	line	413
	
i1l4109:	
;main.c: 413: if (contagens_tm0 < 499)
	movlw	high(01F3h)
	bsf	status, 5	;RP0=1, select bank1
	bcf	status, 6	;RP1=0, select bank1
	subwf	(_contagens_tm0+1)^080h,w
	movlw	low(01F3h)
	skipnz
	subwf	(_contagens_tm0)^080h,w
	skipnc
	goto	u580_21
	goto	u580_20
u580_21:
	goto	i1l4115
u580_20:
	line	416
	
i1l4111:	
;main.c: 414: {
;main.c: 416: contagens_tm0++;
	movlw	low(01h)
	addwf	(_contagens_tm0)^080h,f
	skipnc
	incf	(_contagens_tm0+1)^080h,f
	movlw	high(01h)
	addwf	(_contagens_tm0+1)^080h,f
	line	419
	
i1l4113:	
;main.c: 419: PORTBbits.RB6 = 1;
	bcf	status, 5	;RP0=0, select bank0
	bcf	status, 6	;RP1=0, select bank0
	bsf	(6),6	;volatile
	line	420
;main.c: 420: }
	goto	i1l4127
	line	421
	
i1l213:	
	line	424
	
i1l4115:	
;main.c: 421: else
;main.c: 422: {
;main.c: 424: contagens_tm0 = 0;
	bsf	status, 5	;RP0=1, select bank1
	bcf	status, 6	;RP1=0, select bank1
	clrf	(_contagens_tm0)^080h
	clrf	(_contagens_tm0+1)^080h
	line	427
	
i1l4117:	
;main.c: 427: pulsos = (TMR1H << 8) + TMR1L;
	bcf	status, 5	;RP0=0, select bank0
	bcf	status, 6	;RP1=0, select bank0
	movf	(15),w	;volatile
	bsf	status, 5	;RP0=1, select bank1
	bcf	status, 6	;RP1=0, select bank1
	clrf	(_pulsos+1)^080h
	addwf	(_pulsos+1)^080h
	bcf	status, 5	;RP0=0, select bank0
	bcf	status, 6	;RP1=0, select bank0
	movf	(14),w	;volatile
	bsf	status, 5	;RP0=1, select bank1
	bcf	status, 6	;RP1=0, select bank1
	clrf	(_pulsos)^080h
	addwf	(_pulsos)^080h

	line	428
	
i1l4119:	
;main.c: 428: rpm = ((pulsos / pas_cooler) * 120);
	movf	(_pas_cooler+1)^080h,w
	clrf	(___lwdiv@divisor+1)
	addwf	(___lwdiv@divisor+1)
	movf	(_pas_cooler)^080h,w
	clrf	(___lwdiv@divisor)
	addwf	(___lwdiv@divisor)

	movf	(_pulsos+1)^080h,w
	clrf	(___lwdiv@dividend+1)
	addwf	(___lwdiv@dividend+1)
	movf	(_pulsos)^080h,w
	clrf	(___lwdiv@dividend)
	addwf	(___lwdiv@dividend)

	fcall	___lwdiv
	movf	(1+(?___lwdiv)),w
	bcf	status, 5	;RP0=0, select bank0
	bcf	status, 6	;RP1=0, select bank0
	clrf	(___wmul@multiplier+1)
	addwf	(___wmul@multiplier+1)
	movf	(0+(?___lwdiv)),w
	clrf	(___wmul@multiplier)
	addwf	(___wmul@multiplier)

	movlw	low(078h)
	movwf	(___wmul@multiplicand)
	movlw	high(078h)
	movwf	((___wmul@multiplicand))+1
	fcall	___wmul
	bcf	status, 5	;RP0=0, select bank0
	bcf	status, 6	;RP1=0, select bank0
	movf	(1+(?___wmul)),w
	bsf	status, 5	;RP0=1, select bank1
	bcf	status, 6	;RP1=0, select bank1
	clrf	(_rpm+1)^080h
	addwf	(_rpm+1)^080h
	bcf	status, 5	;RP0=0, select bank0
	bcf	status, 6	;RP1=0, select bank0
	movf	(0+(?___wmul)),w
	bsf	status, 5	;RP0=1, select bank1
	bcf	status, 6	;RP1=0, select bank1
	clrf	(_rpm)^080h
	addwf	(_rpm)^080h

	line	435
	
i1l4121:	
;main.c: 435: TMR1L = 0x00;
	bcf	status, 5	;RP0=0, select bank0
	bcf	status, 6	;RP1=0, select bank0
	clrf	(14)	;volatile
	line	436
	
i1l4123:	
;main.c: 436: TMR1H = 0x00;
	clrf	(15)	;volatile
	line	439
	
i1l4125:	
;main.c: 439: PORTBbits.RB6 = 0;
	bcf	(6),6	;volatile
	goto	i1l4127
	line	440
	
i1l214:	
	line	443
	
i1l4127:	
;main.c: 440: }
;main.c: 443: INTCONbits.T0IF = 0;
	bcf	(11),2	;volatile
	goto	i1l4129
	line	444
	
i1l212:	
	line	447
	
i1l4129:	
;main.c: 444: }
;main.c: 447: if (PIR1bits.TMR1IF)
	btfss	(12),0	;volatile
	goto	u581_21
	goto	u581_20
u581_21:
	goto	i1l215
u581_20:
	line	452
	
i1l4131:	
;main.c: 448: {
;main.c: 452: PIR1bits.TMR1IF = 0;
	bcf	(12),0	;volatile
	line	453
	
i1l215:	
	line	456
;main.c: 453: }
;main.c: 456: if (PIR1bits.SSPIF)
	btfss	(12),3	;volatile
	goto	u582_21
	goto	u582_20
u582_21:
	goto	i1l201
u582_20:
	line	461
	
i1l4133:	
;main.c: 457: {
;main.c: 461: PIR1bits.SSPIF = 0;
	bcf	(12),3	;volatile
	goto	i1l201
	line	462
	
i1l216:	
	line	463
	
i1l201:	
	movf	(??_ISR+5),w
	movwf	btemp+1
	movf	(??_ISR+4),w
	movwf	pclath
	movf	(??_ISR+3),w
	movwf	fsr0
	swapf	(??_ISR+2)^00h,w
	movwf	status
	swapf	saved_w,f
	swapf	saved_w,w
	retfie
	opt stack 0
GLOBAL	__end_of_ISR
	__end_of_ISR:
	signat	_ISR,88
	global	i1_TIMER0_Set

;; *************** function i1_TIMER0_Set *****************
;; Defined at:
;;		line 20 in file "R:\Note\Sistema I\Ultimo C no MPLAB\timers.c"
;; Parameters:    Size  Location     Type
;;  contagens       1    wreg     unsigned char 
;; Auto vars:     Size  Location     Type
;;  contagens       1    0[COMMON] unsigned char 
;; Return value:  Size  Location     Type
;;		None               void
;; Registers used:
;;		wreg
;; Tracked objects:
;;		On entry : 0/0
;;		On exit  : 0/0
;;		Unchanged: 0/0
;; Data sizes:     COMMON   BANK0   BANK1   BANK3   BANK2
;;      Params:         0       0       0       0       0
;;      Locals:         1       0       0       0       0
;;      Temps:          0       0       0       0       0
;;      Totals:         1       0       0       0       0
;;Total ram usage:        1 bytes
;; Hardware stack levels used:    1
;; This function calls:
;;		Nothing
;; This function is called by:
;;		_ISR
;; This function uses a non-reentrant model
;;
psect	text16,local,class=CODE,delta=2,merge=1
	file	"R:\Note\Sistema I\Ultimo C no MPLAB\timers.c"
	line	20
global __ptext16
__ptext16:	;psect for function i1_TIMER0_Set
psect	text16
	file	"R:\Note\Sistema I\Ultimo C no MPLAB\timers.c"
	line	20
	global	__size_ofi1_TIMER0_Set
	__size_ofi1_TIMER0_Set	equ	__end_ofi1_TIMER0_Set-i1_TIMER0_Set
	
i1_TIMER0_Set:	
;incstack = 0
	opt	stack 4
; Regs used in i1_TIMER0_Set: [wreg]
;i1TIMER0_Set@contagens stored from wreg
	movwf	(i1TIMER0_Set@contagens)
	line	22
	
i1l2883:	
;timers.c: 22: TMR0 = contagens;
	movf	(i1TIMER0_Set@contagens),w
	bcf	status, 5	;RP0=0, select bank0
	bcf	status, 6	;RP1=0, select bank0
	movwf	(1)	;volatile
	line	23
	
i1l301:	
	return
	opt stack 0
GLOBAL	__end_ofi1_TIMER0_Set
	__end_ofi1_TIMER0_Set:
	signat	i1_TIMER0_Set,88
	global	_enviabuffer

;; *************** function _enviabuffer *****************
;; Defined at:
;;		line 122 in file "R:\Note\Sistema I\Ultimo C no MPLAB\main.c"
;; Parameters:    Size  Location     Type
;;		None
;; Auto vars:     Size  Location     Type
;;  index           1    3[COMMON] unsigned char 
;;  checksum        1    2[COMMON] unsigned char 
;; Return value:  Size  Location     Type
;;		None               void
;; Registers used:
;;		wreg, fsr0l, fsr0h, status,2, status,0, pclath, cstack
;; Tracked objects:
;;		On entry : 0/0
;;		On exit  : 0/0
;;		Unchanged: 0/0
;; Data sizes:     COMMON   BANK0   BANK1   BANK3   BANK2
;;      Params:         0       0       0       0       0
;;      Locals:         2       0       0       0       0
;;      Temps:          1       0       0       0       0
;;      Totals:         3       0       0       0       0
;;Total ram usage:        3 bytes
;; Hardware stack levels used:    1
;; Hardware stack levels required when called:    1
;; This function calls:
;;		_USART_WriteChar
;; This function is called by:
;;		_ISR
;; This function uses a non-reentrant model
;;
psect	text17,local,class=CODE,delta=2,merge=1
	file	"R:\Note\Sistema I\Ultimo C no MPLAB\main.c"
	line	122
global __ptext17
__ptext17:	;psect for function _enviabuffer
psect	text17
	file	"R:\Note\Sistema I\Ultimo C no MPLAB\main.c"
	line	122
	global	__size_of_enviabuffer
	__size_of_enviabuffer	equ	__end_of_enviabuffer-_enviabuffer
	
_enviabuffer:	
;incstack = 0
	opt	stack 3
; Regs used in _enviabuffer: [wreg-fsr0h+status,2+status,0+pclath+cstack]
	line	125
	
i1l2519:	
;main.c: 125: buffer[0] = '#';
	movlw	(023h)
	movwf	(??_enviabuffer+0)+0
	movf	(??_enviabuffer+0)+0,w
	bsf	status, 5	;RP0=1, select bank3
	bsf	status, 6	;RP1=1, select bank3
	movwf	(_buffer)^0180h
	line	126
;main.c: 126: buffer[1] = '$';
	movlw	(024h)
	movwf	(??_enviabuffer+0)+0
	movf	(??_enviabuffer+0)+0,w
	movwf	0+(_buffer)^0180h+01h
	line	127
;main.c: 127: buffer[2] = ':';
	movlw	(03Ah)
	movwf	(??_enviabuffer+0)+0
	movf	(??_enviabuffer+0)+0,w
	movwf	0+(_buffer)^0180h+02h
	line	131
	
i1l2521:	
;main.c: 131: buffer[3] = (rpm >> 8) & 0xFF;
	bsf	status, 5	;RP0=1, select bank1
	bcf	status, 6	;RP1=0, select bank1
	movf	(_rpm+1)^080h,w
	movwf	(??_enviabuffer+0)+0
	movf	(??_enviabuffer+0)+0,w
	bsf	status, 5	;RP0=1, select bank3
	bsf	status, 6	;RP1=1, select bank3
	movwf	0+(_buffer)^0180h+03h
	line	132
	
i1l2523:	
;main.c: 132: buffer[4] = rpm & 0xFF;
	bsf	status, 5	;RP0=1, select bank1
	bcf	status, 6	;RP1=0, select bank1
	movf	(_rpm)^080h,w
	movwf	(??_enviabuffer+0)+0
	movf	(??_enviabuffer+0)+0,w
	bsf	status, 5	;RP0=1, select bank3
	bsf	status, 6	;RP1=1, select bank3
	movwf	0+(_buffer)^0180h+04h
	line	133
	
i1l2525:	
;main.c: 133: buffer[5] = 'V';
	movlw	(056h)
	movwf	(??_enviabuffer+0)+0
	movf	(??_enviabuffer+0)+0,w
	movwf	0+(_buffer)^0180h+05h
	line	136
	
i1l2527:	
;main.c: 136: buffer[6] = (setpointUI >> 8) & 0xFF;
	bsf	status, 5	;RP0=1, select bank1
	bcf	status, 6	;RP1=0, select bank1
	movf	(_setpointUI+1)^080h,w
	movwf	(??_enviabuffer+0)+0
	movf	(??_enviabuffer+0)+0,w
	bsf	status, 5	;RP0=1, select bank3
	bsf	status, 6	;RP1=1, select bank3
	movwf	0+(_buffer)^0180h+06h
	line	137
;main.c: 137: buffer[7] = setpointUI & 0xFF;
	bsf	status, 5	;RP0=1, select bank1
	bcf	status, 6	;RP1=0, select bank1
	movf	(_setpointUI)^080h,w
	movwf	(??_enviabuffer+0)+0
	movf	(??_enviabuffer+0)+0,w
	bsf	status, 5	;RP0=1, select bank3
	bsf	status, 6	;RP1=1, select bank3
	movwf	0+(_buffer)^0180h+07h
	line	138
;main.c: 138: buffer[8] = 'S';
	movlw	(053h)
	movwf	(??_enviabuffer+0)+0
	movf	(??_enviabuffer+0)+0,w
	movwf	0+(_buffer)^0180h+08h
	line	141
	
i1l2529:	
;main.c: 141: buffer[9] = (deltaV >> 8) & 0xFF;
	bsf	status, 5	;RP0=1, select bank1
	bcf	status, 6	;RP1=0, select bank1
	movf	(_deltaV+1)^080h,w
	movwf	(??_enviabuffer+0)+0
	movf	(??_enviabuffer+0)+0,w
	bsf	status, 5	;RP0=1, select bank3
	bsf	status, 6	;RP1=1, select bank3
	movwf	0+(_buffer)^0180h+09h
	line	142
	
i1l2531:	
;main.c: 142: buffer[10] = deltaV & 0xFF;
	bsf	status, 5	;RP0=1, select bank1
	bcf	status, 6	;RP1=0, select bank1
	movf	(_deltaV)^080h,w
	movwf	(??_enviabuffer+0)+0
	movf	(??_enviabuffer+0)+0,w
	bsf	status, 5	;RP0=1, select bank3
	bsf	status, 6	;RP1=1, select bank3
	movwf	0+(_buffer)^0180h+0Ah
	line	143
	
i1l2533:	
;main.c: 143: buffer[11] = 'S';
	movlw	(053h)
	movwf	(??_enviabuffer+0)+0
	movf	(??_enviabuffer+0)+0,w
	movwf	0+(_buffer)^0180h+0Bh
	line	145
;main.c: 145: unsigned char checksum = 0x00;
	clrf	(enviabuffer@checksum)
	line	146
;main.c: 146: for (unsigned char index = 0; index < 12; index++)
	clrf	(enviabuffer@index)
	
i1l2535:	
	movlw	(0Ch)
	subwf	(enviabuffer@index),w
	skipc
	goto	u297_21
	goto	u297_20
u297_21:
	goto	i1l2539
u297_20:
	goto	i1l2547
	
i1l2537:	
	goto	i1l2547
	line	147
	
i1l149:	
	line	148
	
i1l2539:	
;main.c: 147: {
;main.c: 148: USART_WriteChar(buffer[index]);
	movf	(enviabuffer@index),w
	addlw	_buffer&0ffh
	movwf	fsr0
	bsf	status, 7	;select IRP bank3
	movf	indf,w
	fcall	_USART_WriteChar
	line	149
	
i1l2541:	
;main.c: 149: checksum ^= buffer[index];
	movf	(enviabuffer@index),w
	addlw	_buffer&0ffh
	movwf	fsr0
	bsf	status, 7	;select IRP bank3
	movf	indf,w
	movwf	(??_enviabuffer+0)+0
	movf	(??_enviabuffer+0)+0,w
	xorwf	(enviabuffer@checksum),f
	line	146
	
i1l2543:	
	movlw	(01h)
	movwf	(??_enviabuffer+0)+0
	movf	(??_enviabuffer+0)+0,w
	addwf	(enviabuffer@index),f
	
i1l2545:	
	movlw	(0Ch)
	subwf	(enviabuffer@index),w
	skipc
	goto	u298_21
	goto	u298_20
u298_21:
	goto	i1l2539
u298_20:
	goto	i1l2547
	
i1l150:	
	line	151
	
i1l2547:	
;main.c: 150: }
;main.c: 151: buffer[12] = checksum;
	movf	(enviabuffer@checksum),w
	movwf	(??_enviabuffer+0)+0
	movf	(??_enviabuffer+0)+0,w
	bsf	status, 5	;RP0=1, select bank3
	bsf	status, 6	;RP1=1, select bank3
	movwf	0+(_buffer)^0180h+0Ch
	line	152
	
i1l2549:	
;main.c: 152: USART_WriteChar(buffer[12]);
	movf	0+(_buffer)^0180h+0Ch,w
	fcall	_USART_WriteChar
	line	153
	
i1l151:	
	return
	opt stack 0
GLOBAL	__end_of_enviabuffer
	__end_of_enviabuffer:
	signat	_enviabuffer,88
	global	___lwdiv

;; *************** function ___lwdiv *****************
;; Defined at:
;;		line 6 in file "C:\Program Files (x86)\Microchip\xc8\v1.33\sources\common\lwdiv.c"
;; Parameters:    Size  Location     Type
;;  divisor         2    0[COMMON] unsigned int 
;;  dividend        2    2[COMMON] unsigned int 
;; Auto vars:     Size  Location     Type
;;  quotient        2    5[COMMON] unsigned int 
;;  counter         1    7[COMMON] unsigned char 
;; Return value:  Size  Location     Type
;;                  2    0[COMMON] unsigned int 
;; Registers used:
;;		wreg, status,2, status,0
;; Tracked objects:
;;		On entry : 0/0
;;		On exit  : 0/0
;;		Unchanged: 0/0
;; Data sizes:     COMMON   BANK0   BANK1   BANK3   BANK2
;;      Params:         4       0       0       0       0
;;      Locals:         3       0       0       0       0
;;      Temps:          1       0       0       0       0
;;      Totals:         8       0       0       0       0
;;Total ram usage:        8 bytes
;; Hardware stack levels used:    1
;; This function calls:
;;		Nothing
;; This function is called by:
;;		_ISR
;; This function uses a non-reentrant model
;;
psect	text18,local,class=CODE,delta=2,merge=1
	file	"C:\Program Files (x86)\Microchip\xc8\v1.33\sources\common\lwdiv.c"
	line	6
global __ptext18
__ptext18:	;psect for function ___lwdiv
psect	text18
	file	"C:\Program Files (x86)\Microchip\xc8\v1.33\sources\common\lwdiv.c"
	line	6
	global	__size_of___lwdiv
	__size_of___lwdiv	equ	__end_of___lwdiv-___lwdiv
	
___lwdiv:	
;incstack = 0
	opt	stack 4
; Regs used in ___lwdiv: [wreg+status,2+status,0]
	line	14
	
i1l2857:	
	clrf	(___lwdiv@quotient)
	clrf	(___lwdiv@quotient+1)
	line	15
	
i1l2859:	
	movf	(___lwdiv@divisor+1),w
	iorwf	(___lwdiv@divisor),w
	skipnz
	goto	u337_21
	goto	u337_20
u337_21:
	goto	i1l2879
u337_20:
	line	16
	
i1l2861:	
	clrf	(___lwdiv@counter)
	incf	(___lwdiv@counter),f
	line	17
	goto	i1l2867
	
i1l899:	
	line	18
	
i1l2863:	
	movlw	01h
	
u338_25:
	clrc
	rlf	(___lwdiv@divisor),f
	rlf	(___lwdiv@divisor+1),f
	addlw	-1
	skipz
	goto	u338_25
	line	19
	
i1l2865:	
	movlw	(01h)
	movwf	(??___lwdiv+0)+0
	movf	(??___lwdiv+0)+0,w
	addwf	(___lwdiv@counter),f
	goto	i1l2867
	line	20
	
i1l898:	
	line	17
	
i1l2867:	
	btfss	(___lwdiv@divisor+1),(15)&7
	goto	u339_21
	goto	u339_20
u339_21:
	goto	i1l2863
u339_20:
	goto	i1l2869
	
i1l900:	
	goto	i1l2869
	line	21
	
i1l901:	
	line	22
	
i1l2869:	
	movlw	01h
	
u340_25:
	clrc
	rlf	(___lwdiv@quotient),f
	rlf	(___lwdiv@quotient+1),f
	addlw	-1
	skipz
	goto	u340_25
	line	23
	movf	(___lwdiv@divisor+1),w
	subwf	(___lwdiv@dividend+1),w
	skipz
	goto	u341_25
	movf	(___lwdiv@divisor),w
	subwf	(___lwdiv@dividend),w
u341_25:
	skipc
	goto	u341_21
	goto	u341_20
u341_21:
	goto	i1l2875
u341_20:
	line	24
	
i1l2871:	
	movf	(___lwdiv@divisor),w
	subwf	(___lwdiv@dividend),f
	movf	(___lwdiv@divisor+1),w
	skipc
	decf	(___lwdiv@dividend+1),f
	subwf	(___lwdiv@dividend+1),f
	line	25
	
i1l2873:	
	bsf	(___lwdiv@quotient)+(0/8),(0)&7
	goto	i1l2875
	line	26
	
i1l902:	
	line	27
	
i1l2875:	
	movlw	01h
	
u342_25:
	clrc
	rrf	(___lwdiv@divisor+1),f
	rrf	(___lwdiv@divisor),f
	addlw	-1
	skipz
	goto	u342_25
	line	28
	
i1l2877:	
	movlw	low(01h)
	subwf	(___lwdiv@counter),f
	btfss	status,2
	goto	u343_21
	goto	u343_20
u343_21:
	goto	i1l2869
u343_20:
	goto	i1l2879
	
i1l903:	
	goto	i1l2879
	line	29
	
i1l897:	
	line	30
	
i1l2879:	
	movf	(___lwdiv@quotient+1),w
	clrf	(?___lwdiv+1)
	addwf	(?___lwdiv+1)
	movf	(___lwdiv@quotient),w
	clrf	(?___lwdiv)
	addwf	(?___lwdiv)

	goto	i1l904
	
i1l2881:	
	line	31
	
i1l904:	
	return
	opt stack 0
GLOBAL	__end_of___lwdiv
	__end_of___lwdiv:
	signat	___lwdiv,8314
	global	_USART_ReceiveChar

;; *************** function _USART_ReceiveChar *****************
;; Defined at:
;;		line 63 in file "R:\Note\Sistema I\Ultimo C no MPLAB\usart.c"
;; Parameters:    Size  Location     Type
;;		None
;; Auto vars:     Size  Location     Type
;;  byte            1    4[COMMON] unsigned char 
;; Return value:  Size  Location     Type
;;                  1    wreg      unsigned char 
;; Registers used:
;;		wreg, fsr0l, fsr0h, status,2, status,0, pclath, cstack
;; Tracked objects:
;;		On entry : 0/0
;;		On exit  : 0/0
;;		Unchanged: 0/0
;; Data sizes:     COMMON   BANK0   BANK1   BANK3   BANK2
;;      Params:         0       0       0       0       0
;;      Locals:         1       0       0       0       0
;;      Temps:          1       0       0       0       0
;;      Totals:         2       0       0       0       0
;;Total ram usage:        2 bytes
;; Hardware stack levels used:    1
;; Hardware stack levels required when called:    2
;; This function calls:
;;		_USART_WriteString
;; This function is called by:
;;		_ISR
;; This function uses a non-reentrant model
;;
psect	text19,local,class=CODE,delta=2,merge=1
	file	"R:\Note\Sistema I\Ultimo C no MPLAB\usart.c"
	line	63
global __ptext19
__ptext19:	;psect for function _USART_ReceiveChar
psect	text19
	file	"R:\Note\Sistema I\Ultimo C no MPLAB\usart.c"
	line	63
	global	__size_of_USART_ReceiveChar
	__size_of_USART_ReceiveChar	equ	__end_of_USART_ReceiveChar-_USART_ReceiveChar
	
_USART_ReceiveChar:	
;incstack = 0
	opt	stack 2
; Regs used in _USART_ReceiveChar: [wreg-fsr0h+status,2+status,0+pclath+cstack]
	line	67
	
i1l2703:	
;usart.c: 65: unsigned char byte;
;usart.c: 67: if (!OERR)
	bcf	status, 5	;RP0=0, select bank0
	bcf	status, 6	;RP1=0, select bank0
	btfsc	(193/8),(193)&7	;volatile
	goto	u332_21
	goto	u332_20
u332_21:
	goto	i1l2709
u332_20:
	line	69
	
i1l2705:	
;usart.c: 68: {
;usart.c: 69: byte = RCREG;
	movf	(26),w	;volatile
	movwf	(??_USART_ReceiveChar+0)+0
	movf	(??_USART_ReceiveChar+0)+0,w
	movwf	(USART_ReceiveChar@byte)
	line	70
	
i1l2707:	
;usart.c: 70: PIR1bits.RCIF = 0;
	bcf	(12),5	;volatile
	line	71
;usart.c: 71: }
	goto	i1l2719
	line	72
	
i1l256:	
	line	74
	
i1l2709:	
;usart.c: 72: else
;usart.c: 73: {
;usart.c: 74: USART_WriteString("\n\r ------- ESTOURO DE PILHA ------- \n\r ");
	movlw	((STR_4)-__stringbase)&0ffh
	fcall	_USART_WriteString
	line	76
	
i1l2711:	
;usart.c: 76: RCSTAbits.CREN = 0;
	bcf	status, 5	;RP0=0, select bank0
	bcf	status, 6	;RP1=0, select bank0
	bcf	(24),4	;volatile
	line	77
	
i1l2713:	
;usart.c: 77: byte = RCREG;
	movf	(26),w	;volatile
	movwf	(??_USART_ReceiveChar+0)+0
	movf	(??_USART_ReceiveChar+0)+0,w
	movwf	(USART_ReceiveChar@byte)
	line	78
	
i1l2715:	
;usart.c: 78: RCSTAbits.CREN = 1;
	bsf	(24),4	;volatile
	line	79
	
i1l2717:	
;usart.c: 79: PIR1bits.RCIF = 0;
	bcf	(12),5	;volatile
	goto	i1l2719
	line	80
	
i1l257:	
	line	82
	
i1l2719:	
;usart.c: 80: }
;usart.c: 82: return(byte);
	movf	(USART_ReceiveChar@byte),w
	goto	i1l258
	
i1l2721:	
	line	83
	
i1l258:	
	return
	opt stack 0
GLOBAL	__end_of_USART_ReceiveChar
	__end_of_USART_ReceiveChar:
	signat	_USART_ReceiveChar,89
	global	_USART_WriteString

;; *************** function _USART_WriteString *****************
;; Defined at:
;;		line 52 in file "R:\Note\Sistema I\Ultimo C no MPLAB\usart.c"
;; Parameters:    Size  Location     Type
;;  str             1    wreg     PTR const unsigned char 
;;		 -> STR_4(40), STR_1(10), 
;; Auto vars:     Size  Location     Type
;;  str             1    2[COMMON] PTR const unsigned char 
;;		 -> STR_4(40), STR_1(10), 
;; Return value:  Size  Location     Type
;;		None               void
;; Registers used:
;;		wreg, fsr0l, fsr0h, status,2, status,0, pclath, cstack
;; Tracked objects:
;;		On entry : 0/0
;;		On exit  : 0/0
;;		Unchanged: 0/0
;; Data sizes:     COMMON   BANK0   BANK1   BANK3   BANK2
;;      Params:         0       0       0       0       0
;;      Locals:         1       0       0       0       0
;;      Temps:          1       0       0       0       0
;;      Totals:         2       0       0       0       0
;;Total ram usage:        2 bytes
;; Hardware stack levels used:    1
;; Hardware stack levels required when called:    1
;; This function calls:
;;		_USART_WriteChar
;; This function is called by:
;;		_ISR
;;		_USART_ReceiveChar
;; This function uses a non-reentrant model
;;
psect	text20,local,class=CODE,delta=2,merge=1
	line	52
global __ptext20
__ptext20:	;psect for function _USART_WriteString
psect	text20
	file	"R:\Note\Sistema I\Ultimo C no MPLAB\usart.c"
	line	52
	global	__size_of_USART_WriteString
	__size_of_USART_WriteString	equ	__end_of_USART_WriteString-_USART_WriteString
	
_USART_WriteString:	
;incstack = 0
	opt	stack 3
; Regs used in _USART_WriteString: [wreg-fsr0h+status,2+status,0+pclath+cstack]
;USART_WriteString@str stored from wreg
	movwf	(USART_WriteString@str)
	line	54
	
i1l2329:	
;usart.c: 54: while(*str != '\0')
	goto	i1l2335
	
i1l251:	
	line	56
	
i1l2331:	
;usart.c: 55: {
;usart.c: 56: USART_WriteChar(*str);
	movf	(USART_WriteString@str),w
	movwf	fsr0
	fcall	stringdir
	fcall	_USART_WriteChar
	line	57
	
i1l2333:	
;usart.c: 57: str++;
	movlw	(01h)
	movwf	(??_USART_WriteString+0)+0
	movf	(??_USART_WriteString+0)+0,w
	addwf	(USART_WriteString@str),f
	goto	i1l2335
	line	58
	
i1l250:	
	line	54
	
i1l2335:	
	movf	(USART_WriteString@str),w
	movwf	fsr0
	fcall	stringdir
	iorlw	0
	skipz
	goto	u256_21
	goto	u256_20
u256_21:
	goto	i1l2331
u256_20:
	goto	i1l253
	
i1l252:	
	line	59
	
i1l253:	
	return
	opt stack 0
GLOBAL	__end_of_USART_WriteString
	__end_of_USART_WriteString:
	signat	_USART_WriteString,4216
	global	_USART_WriteChar

;; *************** function _USART_WriteChar *****************
;; Defined at:
;;		line 44 in file "R:\Note\Sistema I\Ultimo C no MPLAB\usart.c"
;; Parameters:    Size  Location     Type
;;  byte            1    wreg     unsigned char 
;; Auto vars:     Size  Location     Type
;;  byte            1    0[COMMON] unsigned char 
;; Return value:  Size  Location     Type
;;		None               void
;; Registers used:
;;		wreg
;; Tracked objects:
;;		On entry : 0/0
;;		On exit  : 0/0
;;		Unchanged: 0/0
;; Data sizes:     COMMON   BANK0   BANK1   BANK3   BANK2
;;      Params:         0       0       0       0       0
;;      Locals:         1       0       0       0       0
;;      Temps:          0       0       0       0       0
;;      Totals:         1       0       0       0       0
;;Total ram usage:        1 bytes
;; Hardware stack levels used:    1
;; This function calls:
;;		Nothing
;; This function is called by:
;;		_enviabuffer
;;		_USART_WriteString
;; This function uses a non-reentrant model
;;
psect	text21,local,class=CODE,delta=2,merge=1
	line	44
global __ptext21
__ptext21:	;psect for function _USART_WriteChar
psect	text21
	file	"R:\Note\Sistema I\Ultimo C no MPLAB\usart.c"
	line	44
	global	__size_of_USART_WriteChar
	__size_of_USART_WriteChar	equ	__end_of_USART_WriteChar-_USART_WriteChar
	
_USART_WriteChar:	
;incstack = 0
	opt	stack 3
; Regs used in _USART_WriteChar: [wreg]
;USART_WriteChar@byte stored from wreg
	movwf	(USART_WriteChar@byte)
	line	46
	
i1l2131:	
;usart.c: 46: while(!PIR1bits.TXIF);
	goto	i1l244
	
i1l245:	
	
i1l244:	
	bcf	status, 5	;RP0=0, select bank0
	bcf	status, 6	;RP1=0, select bank0
	btfss	(12),4	;volatile
	goto	u206_21
	goto	u206_20
u206_21:
	goto	i1l244
u206_20:
	goto	i1l2133
	
i1l246:	
	line	47
	
i1l2133:	
;usart.c: 47: TXREG = byte;
	movf	(USART_WriteChar@byte),w
	movwf	(25)	;volatile
	line	48
	
i1l247:	
	return
	opt stack 0
GLOBAL	__end_of_USART_WriteChar
	__end_of_USART_WriteChar:
	signat	_USART_WriteChar,4216
	global	_Fuzzy

;; *************** function _Fuzzy *****************
;; Defined at:
;;		line 177 in file "R:\Note\Sistema I\Ultimo C no MPLAB\main.c"
;; Parameters:    Size  Location     Type
;;		None
;; Auto vars:     Size  Location     Type
;;  a               2   16[BANK1 ] int 
;;  a               2   14[BANK1 ] int 
;;  a               2   12[BANK1 ] int 
;;  a               2   10[BANK1 ] int 
;;  a               2   26[BANK1 ] int 
;;  x               3   31[BANK1 ] float 
;;  rule            3   28[BANK1 ] float 
;;  total_area      3   23[BANK1 ] float 
;;  soma            3   20[BANK1 ] float 
;;  reajuste        3    5[BANK1 ] float 
;;  delta           2   18[BANK1 ] int 
;; Return value:  Size  Location     Type
;;		None               void
;; Registers used:
;;		wreg, status,2, status,0, btemp+1, pclath, cstack
;; Tracked objects:
;;		On entry : 0/0
;;		On exit  : 0/0
;;		Unchanged: 0/0
;; Data sizes:     COMMON   BANK0   BANK1   BANK3   BANK2
;;      Params:         0       0       0       0       0
;;      Locals:         0       0      34       0       0
;;      Temps:          0       2       0       0       0
;;      Totals:         0       2      34       0       0
;;Total ram usage:       36 bytes
;; Hardware stack levels used:    1
;; Hardware stack levels required when called:    3
;; This function calls:
;;		___awtoft
;;		___ftadd
;;		___ftdiv
;;		___ftge
;;		___ftmul
;;		___ftneg
;;		___fttol
;;		___lwtoft
;;		___wmul
;;		_abs
;;		_maximo
;;		_minimo
;;		_trapmf
;;		i1_PWM_DutyCycle2
;; This function is called by:
;;		_ISR
;; This function uses a non-reentrant model
;;
psect	text22,local,class=CODE,delta=2,merge=1
	file	"R:\Note\Sistema I\Ultimo C no MPLAB\main.c"
	line	177
global __ptext22
__ptext22:	;psect for function _Fuzzy
psect	text22
	file	"R:\Note\Sistema I\Ultimo C no MPLAB\main.c"
	line	177
	global	__size_of_Fuzzy
	__size_of_Fuzzy	equ	__end_of_Fuzzy-_Fuzzy
	
_Fuzzy:	
;incstack = 0
	opt	stack 1
; Regs used in _Fuzzy: [wreg+status,2+status,0+btemp+1+pclath+cstack]
	line	187
	
i1l3839:	
;main.c: 187: deltaV = minimo(abs(setpointUI - rpm), 2000);
	movlw	0x0
	bcf	status, 5	;RP0=0, select bank0
	bcf	status, 6	;RP1=0, select bank0
	movwf	(minimo@b)
	movlw	0xfa
	movwf	(minimo@b+1)
	movlw	0x44
	movwf	(minimo@b+2)
	bsf	status, 5	;RP0=1, select bank1
	bcf	status, 6	;RP1=0, select bank1
	comf	(_rpm)^080h,w
	bcf	status, 5	;RP0=0, select bank0
	bcf	status, 6	;RP1=0, select bank0
	movwf	(??_Fuzzy+0)+0
	bsf	status, 5	;RP0=1, select bank1
	bcf	status, 6	;RP1=0, select bank1
	comf	(_rpm+1)^080h,w
	bcf	status, 5	;RP0=0, select bank0
	bcf	status, 6	;RP1=0, select bank0
	movwf	((??_Fuzzy+0)+0+1)
	incf	(??_Fuzzy+0)+0,f
	skipnz
	incf	((??_Fuzzy+0)+0+1),f
	bsf	status, 5	;RP0=1, select bank1
	bcf	status, 6	;RP1=0, select bank1
	movf	(_setpointUI)^080h,w
	bcf	status, 5	;RP0=0, select bank0
	bcf	status, 6	;RP1=0, select bank0
	addwf	0+(??_Fuzzy+0)+0,w
	movwf	(abs@a)
	bsf	status, 5	;RP0=1, select bank1
	bcf	status, 6	;RP1=0, select bank1
	movf	(_setpointUI+1)^080h,w
	skipnc
	incf	(_setpointUI+1)^080h,w
	bcf	status, 5	;RP0=0, select bank0
	bcf	status, 6	;RP1=0, select bank0
	addwf	1+(??_Fuzzy+0)+0,w
	movwf	1+(abs@a)
	fcall	_abs
	movf	(1+(?_abs)),w
	clrf	(___awtoft@c+1)
	addwf	(___awtoft@c+1)
	movf	(0+(?_abs)),w
	clrf	(___awtoft@c)
	addwf	(___awtoft@c)

	fcall	___awtoft
	movf	(0+(?___awtoft)),w
	bcf	status, 5	;RP0=0, select bank0
	bcf	status, 6	;RP1=0, select bank0
	movwf	(minimo@a)
	movf	(1+(?___awtoft)),w
	movwf	(minimo@a+1)
	movf	(2+(?___awtoft)),w
	movwf	(minimo@a+2)
	fcall	_minimo
	bcf	status, 5	;RP0=0, select bank0
	bcf	status, 6	;RP1=0, select bank0
	movf	(0+(?_minimo)),w
	movwf	(___fttol@f1)
	movf	(1+(?_minimo)),w
	movwf	(___fttol@f1+1)
	movf	(2+(?_minimo)),w
	movwf	(___fttol@f1+2)
	fcall	___fttol
	bcf	status, 5	;RP0=0, select bank0
	bcf	status, 6	;RP1=0, select bank0
	movf	1+(((0+(?___fttol)))),w
	bsf	status, 5	;RP0=1, select bank1
	bcf	status, 6	;RP1=0, select bank1
	clrf	(_deltaV+1)^080h
	addwf	(_deltaV+1)^080h
	bcf	status, 5	;RP0=0, select bank0
	bcf	status, 6	;RP1=0, select bank0
	movf	0+(((0+(?___fttol)))),w
	bsf	status, 5	;RP0=1, select bank1
	bcf	status, 6	;RP1=0, select bank1
	clrf	(_deltaV)^080h
	addwf	(_deltaV)^080h

	line	188
;main.c: 188: int delta = maximo(minimo(abs(deltaV - antigoUI), 1000), 1);
	movlw	0x0
	bcf	status, 5	;RP0=0, select bank0
	bcf	status, 6	;RP1=0, select bank0
	movwf	(maximo@b)
	movlw	0x80
	movwf	(maximo@b+1)
	movlw	0x3f
	movwf	(maximo@b+2)
	movlw	0x0
	movwf	(minimo@b)
	movlw	0x7a
	movwf	(minimo@b+1)
	movlw	0x44
	movwf	(minimo@b+2)
	bsf	status, 5	;RP0=1, select bank1
	bcf	status, 6	;RP1=0, select bank1
	comf	(_antigoUI)^080h,w
	bcf	status, 5	;RP0=0, select bank0
	bcf	status, 6	;RP1=0, select bank0
	movwf	(??_Fuzzy+0)+0
	bsf	status, 5	;RP0=1, select bank1
	bcf	status, 6	;RP1=0, select bank1
	comf	(_antigoUI+1)^080h,w
	bcf	status, 5	;RP0=0, select bank0
	bcf	status, 6	;RP1=0, select bank0
	movwf	((??_Fuzzy+0)+0+1)
	incf	(??_Fuzzy+0)+0,f
	skipnz
	incf	((??_Fuzzy+0)+0+1),f
	bsf	status, 5	;RP0=1, select bank1
	bcf	status, 6	;RP1=0, select bank1
	movf	(_deltaV)^080h,w
	bcf	status, 5	;RP0=0, select bank0
	bcf	status, 6	;RP1=0, select bank0
	addwf	0+(??_Fuzzy+0)+0,w
	movwf	(abs@a)
	bsf	status, 5	;RP0=1, select bank1
	bcf	status, 6	;RP1=0, select bank1
	movf	(_deltaV+1)^080h,w
	skipnc
	incf	(_deltaV+1)^080h,w
	bcf	status, 5	;RP0=0, select bank0
	bcf	status, 6	;RP1=0, select bank0
	addwf	1+(??_Fuzzy+0)+0,w
	movwf	1+(abs@a)
	fcall	_abs
	movf	(1+(?_abs)),w
	clrf	(___awtoft@c+1)
	addwf	(___awtoft@c+1)
	movf	(0+(?_abs)),w
	clrf	(___awtoft@c)
	addwf	(___awtoft@c)

	fcall	___awtoft
	movf	(0+(?___awtoft)),w
	bcf	status, 5	;RP0=0, select bank0
	bcf	status, 6	;RP1=0, select bank0
	movwf	(minimo@a)
	movf	(1+(?___awtoft)),w
	movwf	(minimo@a+1)
	movf	(2+(?___awtoft)),w
	movwf	(minimo@a+2)
	fcall	_minimo
	bcf	status, 5	;RP0=0, select bank0
	bcf	status, 6	;RP1=0, select bank0
	movf	(0+(?_minimo)),w
	movwf	(maximo@a)
	movf	(1+(?_minimo)),w
	movwf	(maximo@a+1)
	movf	(2+(?_minimo)),w
	movwf	(maximo@a+2)
	fcall	_maximo
	bcf	status, 5	;RP0=0, select bank0
	bcf	status, 6	;RP1=0, select bank0
	movf	(0+(?_maximo)),w
	movwf	(___fttol@f1)
	movf	(1+(?_maximo)),w
	movwf	(___fttol@f1+1)
	movf	(2+(?_maximo)),w
	movwf	(___fttol@f1+2)
	fcall	___fttol
	bcf	status, 5	;RP0=0, select bank0
	bcf	status, 6	;RP1=0, select bank0
	movf	1+(((0+(?___fttol)))),w
	bsf	status, 5	;RP0=1, select bank1
	bcf	status, 6	;RP1=0, select bank1
	clrf	(Fuzzy@delta+1)^080h
	addwf	(Fuzzy@delta+1)^080h
	bcf	status, 5	;RP0=0, select bank0
	bcf	status, 6	;RP1=0, select bank0
	movf	0+(((0+(?___fttol)))),w
	bsf	status, 5	;RP0=1, select bank1
	bcf	status, 6	;RP1=0, select bank1
	clrf	(Fuzzy@delta)^080h
	addwf	(Fuzzy@delta)^080h

	line	189
	
i1l3841:	
;main.c: 189: float x = 0;
	movlw	0x0
	movwf	(Fuzzy@x)^080h
	movlw	0x0
	movwf	(Fuzzy@x+1)^080h
	movlw	0x0
	movwf	(Fuzzy@x+2)^080h
	line	190
	
i1l3843:	
;main.c: 190: float rule = 0;
	movlw	0x0
	movwf	(Fuzzy@rule)^080h
	movlw	0x0
	movwf	(Fuzzy@rule+1)^080h
	movlw	0x0
	movwf	(Fuzzy@rule+2)^080h
	line	193
	
i1l3845:	
;main.c: 193: if (deltaV <= 100) {
	movlw	high(065h)
	subwf	(_deltaV+1)^080h,w
	movlw	low(065h)
	skipnz
	subwf	(_deltaV)^080h,w
	skipnc
	goto	u519_21
	goto	u519_20
u519_21:
	goto	i1l3867
u519_20:
	line	195
	
i1l3847:	
;main.c: 195: rule = trapmf(deltaV, -1, 0, 1, 100);
	movf	(_deltaV+1)^080h,w
	clrf	(___lwtoft@c+1)
	addwf	(___lwtoft@c+1)
	movf	(_deltaV)^080h,w
	clrf	(___lwtoft@c)
	addwf	(___lwtoft@c)

	fcall	___lwtoft
	movf	(0+(?___lwtoft)),w
	bcf	status, 5	;RP0=0, select bank0
	bcf	status, 6	;RP1=0, select bank0
	movwf	(trapmf@x)
	movf	(1+(?___lwtoft)),w
	movwf	(trapmf@x+1)
	movf	(2+(?___lwtoft)),w
	movwf	(trapmf@x+2)
	movlw	0x0
	movwf	(trapmf@a)
	movlw	0x80
	movwf	(trapmf@a+1)
	movlw	0xbf
	movwf	(trapmf@a+2)
	movlw	0x0
	movwf	(trapmf@b)
	movlw	0x0
	movwf	(trapmf@b+1)
	movlw	0x0
	movwf	(trapmf@b+2)
	movlw	0x0
	movwf	(trapmf@c)
	movlw	0x80
	movwf	(trapmf@c+1)
	movlw	0x3f
	movwf	(trapmf@c+2)
	movlw	0x0
	movwf	(trapmf@d)
	movlw	0xc8
	movwf	(trapmf@d+1)
	movlw	0x42
	movwf	(trapmf@d+2)
	fcall	_trapmf
	bcf	status, 5	;RP0=0, select bank0
	bcf	status, 6	;RP1=0, select bank0
	movf	(0+(?_trapmf)),w
	bsf	status, 5	;RP0=1, select bank1
	bcf	status, 6	;RP1=0, select bank1
	movwf	(Fuzzy@rule)^080h
	bcf	status, 5	;RP0=0, select bank0
	bcf	status, 6	;RP1=0, select bank0
	movf	(1+(?_trapmf)),w
	bsf	status, 5	;RP0=1, select bank1
	bcf	status, 6	;RP1=0, select bank1
	movwf	(Fuzzy@rule+1)^080h
	bcf	status, 5	;RP0=0, select bank0
	bcf	status, 6	;RP1=0, select bank0
	movf	(2+(?_trapmf)),w
	bsf	status, 5	;RP0=1, select bank1
	bcf	status, 6	;RP1=0, select bank1
	movwf	(Fuzzy@rule+2)^080h
	line	197
	
i1l3849:	
;main.c: 197: x = 0;
	movlw	0x0
	movwf	(Fuzzy@x)^080h
	movlw	0x0
	movwf	(Fuzzy@x+1)^080h
	movlw	0x0
	movwf	(Fuzzy@x+2)^080h
	line	198
	
i1l3851:	
;main.c: 198: for (int a = 0; a <= 15; a++) {
	clrf	(Fuzzy@a)^080h
	clrf	(Fuzzy@a+1)^080h
	
i1l3853:	
	movf	(Fuzzy@a+1)^080h,w
	xorlw	80h
	movwf	btemp+1
	movlw	(high(010h))^80h
	subwf	btemp+1,w
	skipz
	goto	u520_25
	movlw	low(010h)
	subwf	(Fuzzy@a)^080h,w
u520_25:

	skipc
	goto	u520_21
	goto	u520_20
u520_21:
	goto	i1l3857
u520_20:
	goto	i1l3867
	
i1l3855:	
	goto	i1l3867
	
i1l165:	
	line	199
	
i1l3857:	
;main.c: 199: rulepequeno = trapmf(x, -1, 0, 0, 5);
	bsf	status, 5	;RP0=1, select bank1
	bcf	status, 6	;RP1=0, select bank1
	movf	(Fuzzy@x)^080h,w
	bcf	status, 5	;RP0=0, select bank0
	bcf	status, 6	;RP1=0, select bank0
	movwf	(trapmf@x)
	bsf	status, 5	;RP0=1, select bank1
	bcf	status, 6	;RP1=0, select bank1
	movf	(Fuzzy@x+1)^080h,w
	bcf	status, 5	;RP0=0, select bank0
	bcf	status, 6	;RP1=0, select bank0
	movwf	(trapmf@x+1)
	bsf	status, 5	;RP0=1, select bank1
	bcf	status, 6	;RP1=0, select bank1
	movf	(Fuzzy@x+2)^080h,w
	bcf	status, 5	;RP0=0, select bank0
	bcf	status, 6	;RP1=0, select bank0
	movwf	(trapmf@x+2)
	movlw	0x0
	movwf	(trapmf@a)
	movlw	0x80
	movwf	(trapmf@a+1)
	movlw	0xbf
	movwf	(trapmf@a+2)
	movlw	0x0
	movwf	(trapmf@b)
	movlw	0x0
	movwf	(trapmf@b+1)
	movlw	0x0
	movwf	(trapmf@b+2)
	movlw	0x0
	movwf	(trapmf@c)
	movlw	0x0
	movwf	(trapmf@c+1)
	movlw	0x0
	movwf	(trapmf@c+2)
	movlw	0x0
	movwf	(trapmf@d)
	movlw	0xa0
	movwf	(trapmf@d+1)
	movlw	0x40
	movwf	(trapmf@d+2)
	fcall	_trapmf
	bcf	status, 5	;RP0=0, select bank0
	bcf	status, 6	;RP1=0, select bank0
	movf	(0+(?_trapmf)),w
	bsf	status, 5	;RP0=1, select bank1
	bcf	status, 6	;RP1=0, select bank1
	movwf	(_rulepequeno)^080h
	bcf	status, 5	;RP0=0, select bank0
	bcf	status, 6	;RP1=0, select bank0
	movf	(1+(?_trapmf)),w
	bsf	status, 5	;RP0=1, select bank1
	bcf	status, 6	;RP1=0, select bank1
	movwf	(_rulepequeno+1)^080h
	bcf	status, 5	;RP0=0, select bank0
	bcf	status, 6	;RP1=0, select bank0
	movf	(2+(?_trapmf)),w
	bsf	status, 5	;RP0=1, select bank1
	bcf	status, 6	;RP1=0, select bank1
	movwf	(_rulepequeno+2)^080h
	line	200
;main.c: 200: if (rulepequeno >= rule) {
	movf	(_rulepequeno)^080h,w
	movwf	(___ftge@ff1)
	movf	(_rulepequeno+1)^080h,w
	movwf	(___ftge@ff1+1)
	movf	(_rulepequeno+2)^080h,w
	movwf	(___ftge@ff1+2)
	movf	(Fuzzy@rule)^080h,w
	movwf	(___ftge@ff2)
	movf	(Fuzzy@rule+1)^080h,w
	movwf	(___ftge@ff2+1)
	movf	(Fuzzy@rule+2)^080h,w
	movwf	(___ftge@ff2+2)
	fcall	___ftge
	btfss	status,0
	goto	u521_21
	goto	u521_20
u521_21:
	goto	i1l3861
u521_20:
	line	201
	
i1l3859:	
;main.c: 201: rulepequeno = rule;
	bsf	status, 5	;RP0=1, select bank1
	bcf	status, 6	;RP1=0, select bank1
	movf	(Fuzzy@rule)^080h,w
	movwf	(_rulepequeno)^080h
	movf	(Fuzzy@rule+1)^080h,w
	movwf	(_rulepequeno+1)^080h
	movf	(Fuzzy@rule+2)^080h,w
	movwf	(_rulepequeno+2)^080h
	goto	i1l3861
	line	202
	
i1l167:	
	line	204
	
i1l3861:	
;main.c: 202: }
;main.c: 204: x += 1;
	movlw	0x0
	bcf	status, 5	;RP0=0, select bank0
	bcf	status, 6	;RP1=0, select bank0
	movwf	(___ftadd@f1)
	movlw	0x80
	movwf	(___ftadd@f1+1)
	movlw	0x3f
	movwf	(___ftadd@f1+2)
	bsf	status, 5	;RP0=1, select bank1
	bcf	status, 6	;RP1=0, select bank1
	movf	(Fuzzy@x)^080h,w
	bcf	status, 5	;RP0=0, select bank0
	bcf	status, 6	;RP1=0, select bank0
	movwf	(___ftadd@f2)
	bsf	status, 5	;RP0=1, select bank1
	bcf	status, 6	;RP1=0, select bank1
	movf	(Fuzzy@x+1)^080h,w
	bcf	status, 5	;RP0=0, select bank0
	bcf	status, 6	;RP1=0, select bank0
	movwf	(___ftadd@f2+1)
	bsf	status, 5	;RP0=1, select bank1
	bcf	status, 6	;RP1=0, select bank1
	movf	(Fuzzy@x+2)^080h,w
	bcf	status, 5	;RP0=0, select bank0
	bcf	status, 6	;RP1=0, select bank0
	movwf	(___ftadd@f2+2)
	fcall	___ftadd
	bcf	status, 5	;RP0=0, select bank0
	bcf	status, 6	;RP1=0, select bank0
	movf	(0+(?___ftadd)),w
	bsf	status, 5	;RP0=1, select bank1
	bcf	status, 6	;RP1=0, select bank1
	movwf	(Fuzzy@x)^080h
	bcf	status, 5	;RP0=0, select bank0
	bcf	status, 6	;RP1=0, select bank0
	movf	(1+(?___ftadd)),w
	bsf	status, 5	;RP0=1, select bank1
	bcf	status, 6	;RP1=0, select bank1
	movwf	(Fuzzy@x+1)^080h
	bcf	status, 5	;RP0=0, select bank0
	bcf	status, 6	;RP1=0, select bank0
	movf	(2+(?___ftadd)),w
	bsf	status, 5	;RP0=1, select bank1
	bcf	status, 6	;RP1=0, select bank1
	movwf	(Fuzzy@x+2)^080h
	line	198
	
i1l3863:	
	movlw	low(01h)
	addwf	(Fuzzy@a)^080h,f
	skipnc
	incf	(Fuzzy@a+1)^080h,f
	movlw	high(01h)
	addwf	(Fuzzy@a+1)^080h,f
	
i1l3865:	
	movf	(Fuzzy@a+1)^080h,w
	xorlw	80h
	movwf	btemp+1
	movlw	(high(010h))^80h
	subwf	btemp+1,w
	skipz
	goto	u522_25
	movlw	low(010h)
	subwf	(Fuzzy@a)^080h,w
u522_25:

	skipc
	goto	u522_21
	goto	u522_20
u522_21:
	goto	i1l3857
u522_20:
	goto	i1l3867
	
i1l166:	
	goto	i1l3867
	line	206
	
i1l164:	
	line	209
	
i1l3867:	
;main.c: 205: }
;main.c: 206: }
;main.c: 209: if (deltaV >= 100 && deltaV <= 1001 && delta <= 200)
	movlw	high(064h)
	bsf	status, 5	;RP0=1, select bank1
	bcf	status, 6	;RP1=0, select bank1
	subwf	(_deltaV+1)^080h,w
	movlw	low(064h)
	skipnz
	subwf	(_deltaV)^080h,w
	skipc
	goto	u523_21
	goto	u523_20
u523_21:
	goto	i1l3893
u523_20:
	
i1l3869:	
	movlw	high(03EAh)
	subwf	(_deltaV+1)^080h,w
	movlw	low(03EAh)
	skipnz
	subwf	(_deltaV)^080h,w
	skipnc
	goto	u524_21
	goto	u524_20
u524_21:
	goto	i1l3893
u524_20:
	
i1l3871:	
	movf	(Fuzzy@delta+1)^080h,w
	xorlw	80h
	movwf	btemp+1
	movlw	(high(0C9h))^80h
	subwf	btemp+1,w
	skipz
	goto	u525_25
	movlw	low(0C9h)
	subwf	(Fuzzy@delta)^080h,w
u525_25:

	skipnc
	goto	u525_21
	goto	u525_20
u525_21:
	goto	i1l3893
u525_20:
	line	212
	
i1l3873:	
;main.c: 210: {
;main.c: 212: rule = trapmf(deltaV, 50, 800, 800, 1550) * (1 - trapmf(delta, -1, 0, 1, 200));
	movlw	0x0
	bcf	status, 5	;RP0=0, select bank0
	bcf	status, 6	;RP1=0, select bank0
	movwf	(trapmf@d)
	movlw	0x48
	movwf	(trapmf@d+1)
	movlw	0x43
	movwf	(trapmf@d+2)
	movlw	0x0
	movwf	(trapmf@c)
	movlw	0x80
	movwf	(trapmf@c+1)
	movlw	0x3f
	movwf	(trapmf@c+2)
	movlw	0x0
	movwf	(trapmf@b)
	movlw	0x0
	movwf	(trapmf@b+1)
	movlw	0x0
	movwf	(trapmf@b+2)
	movlw	0x0
	movwf	(trapmf@a)
	movlw	0x80
	movwf	(trapmf@a+1)
	movlw	0xbf
	movwf	(trapmf@a+2)
	bsf	status, 5	;RP0=1, select bank1
	bcf	status, 6	;RP1=0, select bank1
	movf	(Fuzzy@delta+1)^080h,w
	clrf	(___awtoft@c+1)
	addwf	(___awtoft@c+1)
	movf	(Fuzzy@delta)^080h,w
	clrf	(___awtoft@c)
	addwf	(___awtoft@c)

	fcall	___awtoft
	movf	(0+(?___awtoft)),w
	bcf	status, 5	;RP0=0, select bank0
	bcf	status, 6	;RP1=0, select bank0
	movwf	(trapmf@x)
	movf	(1+(?___awtoft)),w
	movwf	(trapmf@x+1)
	movf	(2+(?___awtoft)),w
	movwf	(trapmf@x+2)
	fcall	_trapmf
	bcf	status, 5	;RP0=0, select bank0
	bcf	status, 6	;RP1=0, select bank0
	movf	(0+(?_trapmf)),w
	bsf	status, 5	;RP0=1, select bank1
	bcf	status, 6	;RP1=0, select bank1
	movwf	(_Fuzzy$1692)^080h
	bcf	status, 5	;RP0=0, select bank0
	bcf	status, 6	;RP1=0, select bank0
	movf	(1+(?_trapmf)),w
	bsf	status, 5	;RP0=1, select bank1
	bcf	status, 6	;RP1=0, select bank1
	movwf	(_Fuzzy$1692+1)^080h
	bcf	status, 5	;RP0=0, select bank0
	bcf	status, 6	;RP1=0, select bank0
	movf	(2+(?_trapmf)),w
	bsf	status, 5	;RP0=1, select bank1
	bcf	status, 6	;RP1=0, select bank1
	movwf	(_Fuzzy$1692+2)^080h
;main.c: 210: {
;main.c: 212: rule = trapmf(deltaV, 50, 800, 800, 1550) * (1 - trapmf(delta, -1, 0, 1, 200));
	movlw	0xc0
	bcf	status, 5	;RP0=0, select bank0
	bcf	status, 6	;RP1=0, select bank0
	movwf	(trapmf@d)
	movlw	0xc1
	movwf	(trapmf@d+1)
	movlw	0x44
	movwf	(trapmf@d+2)
	movlw	0x0
	movwf	(trapmf@c)
	movlw	0x48
	movwf	(trapmf@c+1)
	movlw	0x44
	movwf	(trapmf@c+2)
	movlw	0x0
	movwf	(trapmf@b)
	movlw	0x48
	movwf	(trapmf@b+1)
	movlw	0x44
	movwf	(trapmf@b+2)
	movlw	0x0
	movwf	(trapmf@a)
	movlw	0x48
	movwf	(trapmf@a+1)
	movlw	0x42
	movwf	(trapmf@a+2)
	bsf	status, 5	;RP0=1, select bank1
	bcf	status, 6	;RP1=0, select bank1
	movf	(_deltaV+1)^080h,w
	clrf	(___lwtoft@c+1)
	addwf	(___lwtoft@c+1)
	movf	(_deltaV)^080h,w
	clrf	(___lwtoft@c)
	addwf	(___lwtoft@c)

	fcall	___lwtoft
	movf	(0+(?___lwtoft)),w
	bcf	status, 5	;RP0=0, select bank0
	bcf	status, 6	;RP1=0, select bank0
	movwf	(trapmf@x)
	movf	(1+(?___lwtoft)),w
	movwf	(trapmf@x+1)
	movf	(2+(?___lwtoft)),w
	movwf	(trapmf@x+2)
	fcall	_trapmf
	bcf	status, 5	;RP0=0, select bank0
	bcf	status, 6	;RP1=0, select bank0
	movf	(0+(?_trapmf)),w
	movwf	(___ftmul@f1)
	movf	(1+(?_trapmf)),w
	movwf	(___ftmul@f1+1)
	movf	(2+(?_trapmf)),w
	movwf	(___ftmul@f1+2)
	movlw	0x0
	movwf	(___ftadd@f1)
	movlw	0x80
	movwf	(___ftadd@f1+1)
	movlw	0x3f
	movwf	(___ftadd@f1+2)
	bsf	status, 5	;RP0=1, select bank1
	bcf	status, 6	;RP1=0, select bank1
	movf	(_Fuzzy$1692)^080h,w
	bcf	status, 5	;RP0=0, select bank0
	bcf	status, 6	;RP1=0, select bank0
	movwf	(___ftneg@f1)
	bsf	status, 5	;RP0=1, select bank1
	bcf	status, 6	;RP1=0, select bank1
	movf	(_Fuzzy$1692+1)^080h,w
	bcf	status, 5	;RP0=0, select bank0
	bcf	status, 6	;RP1=0, select bank0
	movwf	(___ftneg@f1+1)
	bsf	status, 5	;RP0=1, select bank1
	bcf	status, 6	;RP1=0, select bank1
	movf	(_Fuzzy$1692+2)^080h,w
	bcf	status, 5	;RP0=0, select bank0
	bcf	status, 6	;RP1=0, select bank0
	movwf	(___ftneg@f1+2)
	fcall	___ftneg
	bcf	status, 5	;RP0=0, select bank0
	bcf	status, 6	;RP1=0, select bank0
	movf	(0+(?___ftneg)),w
	movwf	(___ftadd@f2)
	movf	(1+(?___ftneg)),w
	movwf	(___ftadd@f2+1)
	movf	(2+(?___ftneg)),w
	movwf	(___ftadd@f2+2)
	fcall	___ftadd
	bcf	status, 5	;RP0=0, select bank0
	bcf	status, 6	;RP1=0, select bank0
	movf	(0+(?___ftadd)),w
	movwf	(___ftmul@f2)
	movf	(1+(?___ftadd)),w
	movwf	(___ftmul@f2+1)
	movf	(2+(?___ftadd)),w
	movwf	(___ftmul@f2+2)
	fcall	___ftmul
	bcf	status, 5	;RP0=0, select bank0
	bcf	status, 6	;RP1=0, select bank0
	movf	(0+(?___ftmul)),w
	bsf	status, 5	;RP0=1, select bank1
	bcf	status, 6	;RP1=0, select bank1
	movwf	(Fuzzy@rule)^080h
	bcf	status, 5	;RP0=0, select bank0
	bcf	status, 6	;RP1=0, select bank0
	movf	(1+(?___ftmul)),w
	bsf	status, 5	;RP0=1, select bank1
	bcf	status, 6	;RP1=0, select bank1
	movwf	(Fuzzy@rule+1)^080h
	bcf	status, 5	;RP0=0, select bank0
	bcf	status, 6	;RP1=0, select bank0
	movf	(2+(?___ftmul)),w
	bsf	status, 5	;RP0=1, select bank1
	bcf	status, 6	;RP1=0, select bank1
	movwf	(Fuzzy@rule+2)^080h
	line	214
	
i1l3875:	
;main.c: 214: x = 0;
	movlw	0x0
	movwf	(Fuzzy@x)^080h
	movlw	0x0
	movwf	(Fuzzy@x+1)^080h
	movlw	0x0
	movwf	(Fuzzy@x+2)^080h
	line	215
	
i1l3877:	
;main.c: 215: for (int a = 0; a <= 15; a++) {
	clrf	(Fuzzy@a_244)^080h
	clrf	(Fuzzy@a_244+1)^080h
	
i1l3879:	
	movf	(Fuzzy@a_244+1)^080h,w
	xorlw	80h
	movwf	btemp+1
	movlw	(high(010h))^80h
	subwf	btemp+1,w
	skipz
	goto	u526_25
	movlw	low(010h)
	subwf	(Fuzzy@a_244)^080h,w
u526_25:

	skipc
	goto	u526_21
	goto	u526_20
u526_21:
	goto	i1l3883
u526_20:
	goto	i1l3893
	
i1l3881:	
	goto	i1l3893
	
i1l169:	
	line	216
	
i1l3883:	
;main.c: 216: rulepequeno = trapmf(x, 2, 5, 5, 10);
	bsf	status, 5	;RP0=1, select bank1
	bcf	status, 6	;RP1=0, select bank1
	movf	(Fuzzy@x)^080h,w
	bcf	status, 5	;RP0=0, select bank0
	bcf	status, 6	;RP1=0, select bank0
	movwf	(trapmf@x)
	bsf	status, 5	;RP0=1, select bank1
	bcf	status, 6	;RP1=0, select bank1
	movf	(Fuzzy@x+1)^080h,w
	bcf	status, 5	;RP0=0, select bank0
	bcf	status, 6	;RP1=0, select bank0
	movwf	(trapmf@x+1)
	bsf	status, 5	;RP0=1, select bank1
	bcf	status, 6	;RP1=0, select bank1
	movf	(Fuzzy@x+2)^080h,w
	bcf	status, 5	;RP0=0, select bank0
	bcf	status, 6	;RP1=0, select bank0
	movwf	(trapmf@x+2)
	movlw	0x0
	movwf	(trapmf@a)
	movlw	0x0
	movwf	(trapmf@a+1)
	movlw	0x40
	movwf	(trapmf@a+2)
	movlw	0x0
	movwf	(trapmf@b)
	movlw	0xa0
	movwf	(trapmf@b+1)
	movlw	0x40
	movwf	(trapmf@b+2)
	movlw	0x0
	movwf	(trapmf@c)
	movlw	0xa0
	movwf	(trapmf@c+1)
	movlw	0x40
	movwf	(trapmf@c+2)
	movlw	0x0
	movwf	(trapmf@d)
	movlw	0x20
	movwf	(trapmf@d+1)
	movlw	0x41
	movwf	(trapmf@d+2)
	fcall	_trapmf
	bcf	status, 5	;RP0=0, select bank0
	bcf	status, 6	;RP1=0, select bank0
	movf	(0+(?_trapmf)),w
	bsf	status, 5	;RP0=1, select bank1
	bcf	status, 6	;RP1=0, select bank1
	movwf	(_rulepequeno)^080h
	bcf	status, 5	;RP0=0, select bank0
	bcf	status, 6	;RP1=0, select bank0
	movf	(1+(?_trapmf)),w
	bsf	status, 5	;RP0=1, select bank1
	bcf	status, 6	;RP1=0, select bank1
	movwf	(_rulepequeno+1)^080h
	bcf	status, 5	;RP0=0, select bank0
	bcf	status, 6	;RP1=0, select bank0
	movf	(2+(?_trapmf)),w
	bsf	status, 5	;RP0=1, select bank1
	bcf	status, 6	;RP1=0, select bank1
	movwf	(_rulepequeno+2)^080h
	line	217
;main.c: 217: if (rulepequeno >= rule) {
	movf	(_rulepequeno)^080h,w
	movwf	(___ftge@ff1)
	movf	(_rulepequeno+1)^080h,w
	movwf	(___ftge@ff1+1)
	movf	(_rulepequeno+2)^080h,w
	movwf	(___ftge@ff1+2)
	movf	(Fuzzy@rule)^080h,w
	movwf	(___ftge@ff2)
	movf	(Fuzzy@rule+1)^080h,w
	movwf	(___ftge@ff2+1)
	movf	(Fuzzy@rule+2)^080h,w
	movwf	(___ftge@ff2+2)
	fcall	___ftge
	btfss	status,0
	goto	u527_21
	goto	u527_20
u527_21:
	goto	i1l3887
u527_20:
	line	218
	
i1l3885:	
;main.c: 218: rulepequeno = rule;
	bsf	status, 5	;RP0=1, select bank1
	bcf	status, 6	;RP1=0, select bank1
	movf	(Fuzzy@rule)^080h,w
	movwf	(_rulepequeno)^080h
	movf	(Fuzzy@rule+1)^080h,w
	movwf	(_rulepequeno+1)^080h
	movf	(Fuzzy@rule+2)^080h,w
	movwf	(_rulepequeno+2)^080h
	goto	i1l3887
	line	219
	
i1l171:	
	line	221
	
i1l3887:	
;main.c: 219: }
;main.c: 221: x += 1;
	movlw	0x0
	bcf	status, 5	;RP0=0, select bank0
	bcf	status, 6	;RP1=0, select bank0
	movwf	(___ftadd@f1)
	movlw	0x80
	movwf	(___ftadd@f1+1)
	movlw	0x3f
	movwf	(___ftadd@f1+2)
	bsf	status, 5	;RP0=1, select bank1
	bcf	status, 6	;RP1=0, select bank1
	movf	(Fuzzy@x)^080h,w
	bcf	status, 5	;RP0=0, select bank0
	bcf	status, 6	;RP1=0, select bank0
	movwf	(___ftadd@f2)
	bsf	status, 5	;RP0=1, select bank1
	bcf	status, 6	;RP1=0, select bank1
	movf	(Fuzzy@x+1)^080h,w
	bcf	status, 5	;RP0=0, select bank0
	bcf	status, 6	;RP1=0, select bank0
	movwf	(___ftadd@f2+1)
	bsf	status, 5	;RP0=1, select bank1
	bcf	status, 6	;RP1=0, select bank1
	movf	(Fuzzy@x+2)^080h,w
	bcf	status, 5	;RP0=0, select bank0
	bcf	status, 6	;RP1=0, select bank0
	movwf	(___ftadd@f2+2)
	fcall	___ftadd
	bcf	status, 5	;RP0=0, select bank0
	bcf	status, 6	;RP1=0, select bank0
	movf	(0+(?___ftadd)),w
	bsf	status, 5	;RP0=1, select bank1
	bcf	status, 6	;RP1=0, select bank1
	movwf	(Fuzzy@x)^080h
	bcf	status, 5	;RP0=0, select bank0
	bcf	status, 6	;RP1=0, select bank0
	movf	(1+(?___ftadd)),w
	bsf	status, 5	;RP0=1, select bank1
	bcf	status, 6	;RP1=0, select bank1
	movwf	(Fuzzy@x+1)^080h
	bcf	status, 5	;RP0=0, select bank0
	bcf	status, 6	;RP1=0, select bank0
	movf	(2+(?___ftadd)),w
	bsf	status, 5	;RP0=1, select bank1
	bcf	status, 6	;RP1=0, select bank1
	movwf	(Fuzzy@x+2)^080h
	line	215
	
i1l3889:	
	movlw	low(01h)
	addwf	(Fuzzy@a_244)^080h,f
	skipnc
	incf	(Fuzzy@a_244+1)^080h,f
	movlw	high(01h)
	addwf	(Fuzzy@a_244+1)^080h,f
	
i1l3891:	
	movf	(Fuzzy@a_244+1)^080h,w
	xorlw	80h
	movwf	btemp+1
	movlw	(high(010h))^80h
	subwf	btemp+1,w
	skipz
	goto	u528_25
	movlw	low(010h)
	subwf	(Fuzzy@a_244)^080h,w
u528_25:

	skipc
	goto	u528_21
	goto	u528_20
u528_21:
	goto	i1l3883
u528_20:
	goto	i1l3893
	
i1l170:	
	goto	i1l3893
	line	223
	
i1l168:	
	line	226
	
i1l3893:	
;main.c: 222: }
;main.c: 223: }
;main.c: 226: if (deltaV >= 100 && deltaV <= 1001 && delta >= 201)
	movlw	high(064h)
	bsf	status, 5	;RP0=1, select bank1
	bcf	status, 6	;RP1=0, select bank1
	subwf	(_deltaV+1)^080h,w
	movlw	low(064h)
	skipnz
	subwf	(_deltaV)^080h,w
	skipc
	goto	u529_21
	goto	u529_20
u529_21:
	goto	i1l3919
u529_20:
	
i1l3895:	
	movlw	high(03EAh)
	subwf	(_deltaV+1)^080h,w
	movlw	low(03EAh)
	skipnz
	subwf	(_deltaV)^080h,w
	skipnc
	goto	u530_21
	goto	u530_20
u530_21:
	goto	i1l3919
u530_20:
	
i1l3897:	
	movf	(Fuzzy@delta+1)^080h,w
	xorlw	80h
	movwf	btemp+1
	movlw	(high(0C9h))^80h
	subwf	btemp+1,w
	skipz
	goto	u531_25
	movlw	low(0C9h)
	subwf	(Fuzzy@delta)^080h,w
u531_25:

	skipc
	goto	u531_21
	goto	u531_20
u531_21:
	goto	i1l3919
u531_20:
	line	230
	
i1l3899:	
;main.c: 227: {
;main.c: 229: rule = trapmf(deltaV, 50, 800, 800, 1550) *
;main.c: 230: trapmf(delta, 200, 500, 2000, 2001);
	movlw	0x20
	bcf	status, 5	;RP0=0, select bank0
	bcf	status, 6	;RP1=0, select bank0
	movwf	(trapmf@d)
	movlw	0xfa
	movwf	(trapmf@d+1)
	movlw	0x44
	movwf	(trapmf@d+2)
	movlw	0x0
	movwf	(trapmf@c)
	movlw	0xfa
	movwf	(trapmf@c+1)
	movlw	0x44
	movwf	(trapmf@c+2)
	movlw	0x0
	movwf	(trapmf@b)
	movlw	0xfa
	movwf	(trapmf@b+1)
	movlw	0x43
	movwf	(trapmf@b+2)
	movlw	0x0
	movwf	(trapmf@a)
	movlw	0x48
	movwf	(trapmf@a+1)
	movlw	0x43
	movwf	(trapmf@a+2)
	bsf	status, 5	;RP0=1, select bank1
	bcf	status, 6	;RP1=0, select bank1
	movf	(Fuzzy@delta+1)^080h,w
	clrf	(___awtoft@c+1)
	addwf	(___awtoft@c+1)
	movf	(Fuzzy@delta)^080h,w
	clrf	(___awtoft@c)
	addwf	(___awtoft@c)

	fcall	___awtoft
	movf	(0+(?___awtoft)),w
	bcf	status, 5	;RP0=0, select bank0
	bcf	status, 6	;RP1=0, select bank0
	movwf	(trapmf@x)
	movf	(1+(?___awtoft)),w
	movwf	(trapmf@x+1)
	movf	(2+(?___awtoft)),w
	movwf	(trapmf@x+2)
	fcall	_trapmf
	bcf	status, 5	;RP0=0, select bank0
	bcf	status, 6	;RP1=0, select bank0
	movf	(0+(?_trapmf)),w
	movwf	(___ftmul@f1)
	movf	(1+(?_trapmf)),w
	movwf	(___ftmul@f1+1)
	movf	(2+(?_trapmf)),w
	movwf	(___ftmul@f1+2)
	movlw	0xc0
	movwf	(trapmf@d)
	movlw	0xc1
	movwf	(trapmf@d+1)
	movlw	0x44
	movwf	(trapmf@d+2)
	movlw	0x0
	movwf	(trapmf@c)
	movlw	0x48
	movwf	(trapmf@c+1)
	movlw	0x44
	movwf	(trapmf@c+2)
	movlw	0x0
	movwf	(trapmf@b)
	movlw	0x48
	movwf	(trapmf@b+1)
	movlw	0x44
	movwf	(trapmf@b+2)
	movlw	0x0
	movwf	(trapmf@a)
	movlw	0x48
	movwf	(trapmf@a+1)
	movlw	0x42
	movwf	(trapmf@a+2)
	bsf	status, 5	;RP0=1, select bank1
	bcf	status, 6	;RP1=0, select bank1
	movf	(_deltaV+1)^080h,w
	clrf	(___lwtoft@c+1)
	addwf	(___lwtoft@c+1)
	movf	(_deltaV)^080h,w
	clrf	(___lwtoft@c)
	addwf	(___lwtoft@c)

	fcall	___lwtoft
	movf	(0+(?___lwtoft)),w
	bcf	status, 5	;RP0=0, select bank0
	bcf	status, 6	;RP1=0, select bank0
	movwf	(trapmf@x)
	movf	(1+(?___lwtoft)),w
	movwf	(trapmf@x+1)
	movf	(2+(?___lwtoft)),w
	movwf	(trapmf@x+2)
	fcall	_trapmf
	bcf	status, 5	;RP0=0, select bank0
	bcf	status, 6	;RP1=0, select bank0
	movf	(0+(?_trapmf)),w
	movwf	(___ftmul@f2)
	movf	(1+(?_trapmf)),w
	movwf	(___ftmul@f2+1)
	movf	(2+(?_trapmf)),w
	movwf	(___ftmul@f2+2)
	fcall	___ftmul
	bcf	status, 5	;RP0=0, select bank0
	bcf	status, 6	;RP1=0, select bank0
	movf	(0+(?___ftmul)),w
	bsf	status, 5	;RP0=1, select bank1
	bcf	status, 6	;RP1=0, select bank1
	movwf	(Fuzzy@rule)^080h
	bcf	status, 5	;RP0=0, select bank0
	bcf	status, 6	;RP1=0, select bank0
	movf	(1+(?___ftmul)),w
	bsf	status, 5	;RP0=1, select bank1
	bcf	status, 6	;RP1=0, select bank1
	movwf	(Fuzzy@rule+1)^080h
	bcf	status, 5	;RP0=0, select bank0
	bcf	status, 6	;RP1=0, select bank0
	movf	(2+(?___ftmul)),w
	bsf	status, 5	;RP0=1, select bank1
	bcf	status, 6	;RP1=0, select bank1
	movwf	(Fuzzy@rule+2)^080h
	line	232
	
i1l3901:	
;main.c: 232: x = 0;
	movlw	0x0
	movwf	(Fuzzy@x)^080h
	movlw	0x0
	movwf	(Fuzzy@x+1)^080h
	movlw	0x0
	movwf	(Fuzzy@x+2)^080h
	line	233
	
i1l3903:	
;main.c: 233: for (int a = 0; a <= 15; a++) {
	clrf	(Fuzzy@a_245)^080h
	clrf	(Fuzzy@a_245+1)^080h
	
i1l3905:	
	movf	(Fuzzy@a_245+1)^080h,w
	xorlw	80h
	movwf	btemp+1
	movlw	(high(010h))^80h
	subwf	btemp+1,w
	skipz
	goto	u532_25
	movlw	low(010h)
	subwf	(Fuzzy@a_245)^080h,w
u532_25:

	skipc
	goto	u532_21
	goto	u532_20
u532_21:
	goto	i1l3909
u532_20:
	goto	i1l3919
	
i1l3907:	
	goto	i1l3919
	
i1l173:	
	line	234
	
i1l3909:	
;main.c: 234: rulemedio = trapmf(x, 2, 5, 5, 10);
	bsf	status, 5	;RP0=1, select bank1
	bcf	status, 6	;RP1=0, select bank1
	movf	(Fuzzy@x)^080h,w
	bcf	status, 5	;RP0=0, select bank0
	bcf	status, 6	;RP1=0, select bank0
	movwf	(trapmf@x)
	bsf	status, 5	;RP0=1, select bank1
	bcf	status, 6	;RP1=0, select bank1
	movf	(Fuzzy@x+1)^080h,w
	bcf	status, 5	;RP0=0, select bank0
	bcf	status, 6	;RP1=0, select bank0
	movwf	(trapmf@x+1)
	bsf	status, 5	;RP0=1, select bank1
	bcf	status, 6	;RP1=0, select bank1
	movf	(Fuzzy@x+2)^080h,w
	bcf	status, 5	;RP0=0, select bank0
	bcf	status, 6	;RP1=0, select bank0
	movwf	(trapmf@x+2)
	movlw	0x0
	movwf	(trapmf@a)
	movlw	0x0
	movwf	(trapmf@a+1)
	movlw	0x40
	movwf	(trapmf@a+2)
	movlw	0x0
	movwf	(trapmf@b)
	movlw	0xa0
	movwf	(trapmf@b+1)
	movlw	0x40
	movwf	(trapmf@b+2)
	movlw	0x0
	movwf	(trapmf@c)
	movlw	0xa0
	movwf	(trapmf@c+1)
	movlw	0x40
	movwf	(trapmf@c+2)
	movlw	0x0
	movwf	(trapmf@d)
	movlw	0x20
	movwf	(trapmf@d+1)
	movlw	0x41
	movwf	(trapmf@d+2)
	fcall	_trapmf
	bcf	status, 5	;RP0=0, select bank0
	bcf	status, 6	;RP1=0, select bank0
	movf	(0+(?_trapmf)),w
	bsf	status, 5	;RP0=1, select bank1
	bcf	status, 6	;RP1=0, select bank1
	movwf	(_rulemedio)^080h
	bcf	status, 5	;RP0=0, select bank0
	bcf	status, 6	;RP1=0, select bank0
	movf	(1+(?_trapmf)),w
	bsf	status, 5	;RP0=1, select bank1
	bcf	status, 6	;RP1=0, select bank1
	movwf	(_rulemedio+1)^080h
	bcf	status, 5	;RP0=0, select bank0
	bcf	status, 6	;RP1=0, select bank0
	movf	(2+(?_trapmf)),w
	bsf	status, 5	;RP0=1, select bank1
	bcf	status, 6	;RP1=0, select bank1
	movwf	(_rulemedio+2)^080h
	line	236
;main.c: 236: if (rulemedio >= rule) {
	movf	(_rulemedio)^080h,w
	movwf	(___ftge@ff1)
	movf	(_rulemedio+1)^080h,w
	movwf	(___ftge@ff1+1)
	movf	(_rulemedio+2)^080h,w
	movwf	(___ftge@ff1+2)
	movf	(Fuzzy@rule)^080h,w
	movwf	(___ftge@ff2)
	movf	(Fuzzy@rule+1)^080h,w
	movwf	(___ftge@ff2+1)
	movf	(Fuzzy@rule+2)^080h,w
	movwf	(___ftge@ff2+2)
	fcall	___ftge
	btfss	status,0
	goto	u533_21
	goto	u533_20
u533_21:
	goto	i1l3913
u533_20:
	line	237
	
i1l3911:	
;main.c: 237: rulemedio = rule;
	bsf	status, 5	;RP0=1, select bank1
	bcf	status, 6	;RP1=0, select bank1
	movf	(Fuzzy@rule)^080h,w
	movwf	(_rulemedio)^080h
	movf	(Fuzzy@rule+1)^080h,w
	movwf	(_rulemedio+1)^080h
	movf	(Fuzzy@rule+2)^080h,w
	movwf	(_rulemedio+2)^080h
	goto	i1l3913
	line	238
	
i1l175:	
	line	240
	
i1l3913:	
;main.c: 238: }
;main.c: 240: x += 1;
	movlw	0x0
	bcf	status, 5	;RP0=0, select bank0
	bcf	status, 6	;RP1=0, select bank0
	movwf	(___ftadd@f1)
	movlw	0x80
	movwf	(___ftadd@f1+1)
	movlw	0x3f
	movwf	(___ftadd@f1+2)
	bsf	status, 5	;RP0=1, select bank1
	bcf	status, 6	;RP1=0, select bank1
	movf	(Fuzzy@x)^080h,w
	bcf	status, 5	;RP0=0, select bank0
	bcf	status, 6	;RP1=0, select bank0
	movwf	(___ftadd@f2)
	bsf	status, 5	;RP0=1, select bank1
	bcf	status, 6	;RP1=0, select bank1
	movf	(Fuzzy@x+1)^080h,w
	bcf	status, 5	;RP0=0, select bank0
	bcf	status, 6	;RP1=0, select bank0
	movwf	(___ftadd@f2+1)
	bsf	status, 5	;RP0=1, select bank1
	bcf	status, 6	;RP1=0, select bank1
	movf	(Fuzzy@x+2)^080h,w
	bcf	status, 5	;RP0=0, select bank0
	bcf	status, 6	;RP1=0, select bank0
	movwf	(___ftadd@f2+2)
	fcall	___ftadd
	bcf	status, 5	;RP0=0, select bank0
	bcf	status, 6	;RP1=0, select bank0
	movf	(0+(?___ftadd)),w
	bsf	status, 5	;RP0=1, select bank1
	bcf	status, 6	;RP1=0, select bank1
	movwf	(Fuzzy@x)^080h
	bcf	status, 5	;RP0=0, select bank0
	bcf	status, 6	;RP1=0, select bank0
	movf	(1+(?___ftadd)),w
	bsf	status, 5	;RP0=1, select bank1
	bcf	status, 6	;RP1=0, select bank1
	movwf	(Fuzzy@x+1)^080h
	bcf	status, 5	;RP0=0, select bank0
	bcf	status, 6	;RP1=0, select bank0
	movf	(2+(?___ftadd)),w
	bsf	status, 5	;RP0=1, select bank1
	bcf	status, 6	;RP1=0, select bank1
	movwf	(Fuzzy@x+2)^080h
	line	233
	
i1l3915:	
	movlw	low(01h)
	addwf	(Fuzzy@a_245)^080h,f
	skipnc
	incf	(Fuzzy@a_245+1)^080h,f
	movlw	high(01h)
	addwf	(Fuzzy@a_245+1)^080h,f
	
i1l3917:	
	movf	(Fuzzy@a_245+1)^080h,w
	xorlw	80h
	movwf	btemp+1
	movlw	(high(010h))^80h
	subwf	btemp+1,w
	skipz
	goto	u534_25
	movlw	low(010h)
	subwf	(Fuzzy@a_245)^080h,w
u534_25:

	skipc
	goto	u534_21
	goto	u534_20
u534_21:
	goto	i1l3909
u534_20:
	goto	i1l3919
	
i1l174:	
	goto	i1l3919
	line	242
	
i1l172:	
	line	245
	
i1l3919:	
;main.c: 241: }
;main.c: 242: }
;main.c: 245: if (deltaV >= 1001)
	movlw	high(03E9h)
	bsf	status, 5	;RP0=1, select bank1
	bcf	status, 6	;RP1=0, select bank1
	subwf	(_deltaV+1)^080h,w
	movlw	low(03E9h)
	skipnz
	subwf	(_deltaV)^080h,w
	skipc
	goto	u535_21
	goto	u535_20
u535_21:
	goto	i1l3941
u535_20:
	line	248
	
i1l3921:	
;main.c: 246: {
;main.c: 248: rule = trapmf(deltaV, 1001, 1500, 2000, 2001);
	movf	(_deltaV+1)^080h,w
	clrf	(___lwtoft@c+1)
	addwf	(___lwtoft@c+1)
	movf	(_deltaV)^080h,w
	clrf	(___lwtoft@c)
	addwf	(___lwtoft@c)

	fcall	___lwtoft
	movf	(0+(?___lwtoft)),w
	bcf	status, 5	;RP0=0, select bank0
	bcf	status, 6	;RP1=0, select bank0
	movwf	(trapmf@x)
	movf	(1+(?___lwtoft)),w
	movwf	(trapmf@x+1)
	movf	(2+(?___lwtoft)),w
	movwf	(trapmf@x+2)
	movlw	0x40
	movwf	(trapmf@a)
	movlw	0x7a
	movwf	(trapmf@a+1)
	movlw	0x44
	movwf	(trapmf@a+2)
	movlw	0x80
	movwf	(trapmf@b)
	movlw	0xbb
	movwf	(trapmf@b+1)
	movlw	0x44
	movwf	(trapmf@b+2)
	movlw	0x0
	movwf	(trapmf@c)
	movlw	0xfa
	movwf	(trapmf@c+1)
	movlw	0x44
	movwf	(trapmf@c+2)
	movlw	0x20
	movwf	(trapmf@d)
	movlw	0xfa
	movwf	(trapmf@d+1)
	movlw	0x44
	movwf	(trapmf@d+2)
	fcall	_trapmf
	bcf	status, 5	;RP0=0, select bank0
	bcf	status, 6	;RP1=0, select bank0
	movf	(0+(?_trapmf)),w
	bsf	status, 5	;RP0=1, select bank1
	bcf	status, 6	;RP1=0, select bank1
	movwf	(Fuzzy@rule)^080h
	bcf	status, 5	;RP0=0, select bank0
	bcf	status, 6	;RP1=0, select bank0
	movf	(1+(?_trapmf)),w
	bsf	status, 5	;RP0=1, select bank1
	bcf	status, 6	;RP1=0, select bank1
	movwf	(Fuzzy@rule+1)^080h
	bcf	status, 5	;RP0=0, select bank0
	bcf	status, 6	;RP1=0, select bank0
	movf	(2+(?_trapmf)),w
	bsf	status, 5	;RP0=1, select bank1
	bcf	status, 6	;RP1=0, select bank1
	movwf	(Fuzzy@rule+2)^080h
	line	250
	
i1l3923:	
;main.c: 250: x = 0;
	movlw	0x0
	movwf	(Fuzzy@x)^080h
	movlw	0x0
	movwf	(Fuzzy@x+1)^080h
	movlw	0x0
	movwf	(Fuzzy@x+2)^080h
	line	251
	
i1l3925:	
;main.c: 251: for (int a = 0; a <= 15; a++) {
	clrf	(Fuzzy@a_246)^080h
	clrf	(Fuzzy@a_246+1)^080h
	
i1l3927:	
	movf	(Fuzzy@a_246+1)^080h,w
	xorlw	80h
	movwf	btemp+1
	movlw	(high(010h))^80h
	subwf	btemp+1,w
	skipz
	goto	u536_25
	movlw	low(010h)
	subwf	(Fuzzy@a_246)^080h,w
u536_25:

	skipc
	goto	u536_21
	goto	u536_20
u536_21:
	goto	i1l3931
u536_20:
	goto	i1l3941
	
i1l3929:	
	goto	i1l3941
	
i1l177:	
	line	252
	
i1l3931:	
;main.c: 252: rulegrande = trapmf(x, 5, 10, 15, 16);
	bsf	status, 5	;RP0=1, select bank1
	bcf	status, 6	;RP1=0, select bank1
	movf	(Fuzzy@x)^080h,w
	bcf	status, 5	;RP0=0, select bank0
	bcf	status, 6	;RP1=0, select bank0
	movwf	(trapmf@x)
	bsf	status, 5	;RP0=1, select bank1
	bcf	status, 6	;RP1=0, select bank1
	movf	(Fuzzy@x+1)^080h,w
	bcf	status, 5	;RP0=0, select bank0
	bcf	status, 6	;RP1=0, select bank0
	movwf	(trapmf@x+1)
	bsf	status, 5	;RP0=1, select bank1
	bcf	status, 6	;RP1=0, select bank1
	movf	(Fuzzy@x+2)^080h,w
	bcf	status, 5	;RP0=0, select bank0
	bcf	status, 6	;RP1=0, select bank0
	movwf	(trapmf@x+2)
	movlw	0x0
	movwf	(trapmf@a)
	movlw	0xa0
	movwf	(trapmf@a+1)
	movlw	0x40
	movwf	(trapmf@a+2)
	movlw	0x0
	movwf	(trapmf@b)
	movlw	0x20
	movwf	(trapmf@b+1)
	movlw	0x41
	movwf	(trapmf@b+2)
	movlw	0x0
	movwf	(trapmf@c)
	movlw	0x70
	movwf	(trapmf@c+1)
	movlw	0x41
	movwf	(trapmf@c+2)
	movlw	0x0
	movwf	(trapmf@d)
	movlw	0x80
	movwf	(trapmf@d+1)
	movlw	0x41
	movwf	(trapmf@d+2)
	fcall	_trapmf
	bcf	status, 5	;RP0=0, select bank0
	bcf	status, 6	;RP1=0, select bank0
	movf	(0+(?_trapmf)),w
	bsf	status, 5	;RP0=1, select bank1
	bcf	status, 6	;RP1=0, select bank1
	movwf	(_rulegrande)^080h
	bcf	status, 5	;RP0=0, select bank0
	bcf	status, 6	;RP1=0, select bank0
	movf	(1+(?_trapmf)),w
	bsf	status, 5	;RP0=1, select bank1
	bcf	status, 6	;RP1=0, select bank1
	movwf	(_rulegrande+1)^080h
	bcf	status, 5	;RP0=0, select bank0
	bcf	status, 6	;RP1=0, select bank0
	movf	(2+(?_trapmf)),w
	bsf	status, 5	;RP0=1, select bank1
	bcf	status, 6	;RP1=0, select bank1
	movwf	(_rulegrande+2)^080h
	line	254
;main.c: 254: if (rulegrande >= rule) {
	movf	(_rulegrande)^080h,w
	movwf	(___ftge@ff1)
	movf	(_rulegrande+1)^080h,w
	movwf	(___ftge@ff1+1)
	movf	(_rulegrande+2)^080h,w
	movwf	(___ftge@ff1+2)
	movf	(Fuzzy@rule)^080h,w
	movwf	(___ftge@ff2)
	movf	(Fuzzy@rule+1)^080h,w
	movwf	(___ftge@ff2+1)
	movf	(Fuzzy@rule+2)^080h,w
	movwf	(___ftge@ff2+2)
	fcall	___ftge
	btfss	status,0
	goto	u537_21
	goto	u537_20
u537_21:
	goto	i1l3935
u537_20:
	line	255
	
i1l3933:	
;main.c: 255: rulegrande = rule;
	bsf	status, 5	;RP0=1, select bank1
	bcf	status, 6	;RP1=0, select bank1
	movf	(Fuzzy@rule)^080h,w
	movwf	(_rulegrande)^080h
	movf	(Fuzzy@rule+1)^080h,w
	movwf	(_rulegrande+1)^080h
	movf	(Fuzzy@rule+2)^080h,w
	movwf	(_rulegrande+2)^080h
	goto	i1l3935
	line	256
	
i1l179:	
	line	258
	
i1l3935:	
;main.c: 256: }
;main.c: 258: x += 1;
	movlw	0x0
	bcf	status, 5	;RP0=0, select bank0
	bcf	status, 6	;RP1=0, select bank0
	movwf	(___ftadd@f1)
	movlw	0x80
	movwf	(___ftadd@f1+1)
	movlw	0x3f
	movwf	(___ftadd@f1+2)
	bsf	status, 5	;RP0=1, select bank1
	bcf	status, 6	;RP1=0, select bank1
	movf	(Fuzzy@x)^080h,w
	bcf	status, 5	;RP0=0, select bank0
	bcf	status, 6	;RP1=0, select bank0
	movwf	(___ftadd@f2)
	bsf	status, 5	;RP0=1, select bank1
	bcf	status, 6	;RP1=0, select bank1
	movf	(Fuzzy@x+1)^080h,w
	bcf	status, 5	;RP0=0, select bank0
	bcf	status, 6	;RP1=0, select bank0
	movwf	(___ftadd@f2+1)
	bsf	status, 5	;RP0=1, select bank1
	bcf	status, 6	;RP1=0, select bank1
	movf	(Fuzzy@x+2)^080h,w
	bcf	status, 5	;RP0=0, select bank0
	bcf	status, 6	;RP1=0, select bank0
	movwf	(___ftadd@f2+2)
	fcall	___ftadd
	bcf	status, 5	;RP0=0, select bank0
	bcf	status, 6	;RP1=0, select bank0
	movf	(0+(?___ftadd)),w
	bsf	status, 5	;RP0=1, select bank1
	bcf	status, 6	;RP1=0, select bank1
	movwf	(Fuzzy@x)^080h
	bcf	status, 5	;RP0=0, select bank0
	bcf	status, 6	;RP1=0, select bank0
	movf	(1+(?___ftadd)),w
	bsf	status, 5	;RP0=1, select bank1
	bcf	status, 6	;RP1=0, select bank1
	movwf	(Fuzzy@x+1)^080h
	bcf	status, 5	;RP0=0, select bank0
	bcf	status, 6	;RP1=0, select bank0
	movf	(2+(?___ftadd)),w
	bsf	status, 5	;RP0=1, select bank1
	bcf	status, 6	;RP1=0, select bank1
	movwf	(Fuzzy@x+2)^080h
	line	251
	
i1l3937:	
	movlw	low(01h)
	addwf	(Fuzzy@a_246)^080h,f
	skipnc
	incf	(Fuzzy@a_246+1)^080h,f
	movlw	high(01h)
	addwf	(Fuzzy@a_246+1)^080h,f
	
i1l3939:	
	movf	(Fuzzy@a_246+1)^080h,w
	xorlw	80h
	movwf	btemp+1
	movlw	(high(010h))^80h
	subwf	btemp+1,w
	skipz
	goto	u538_25
	movlw	low(010h)
	subwf	(Fuzzy@a_246)^080h,w
u538_25:

	skipc
	goto	u538_21
	goto	u538_20
u538_21:
	goto	i1l3931
u538_20:
	goto	i1l3941
	
i1l178:	
	goto	i1l3941
	line	260
	
i1l176:	
	line	263
	
i1l3941:	
;main.c: 259: }
;main.c: 260: }
;main.c: 263: x = 0;
	movlw	0x0
	bsf	status, 5	;RP0=1, select bank1
	bcf	status, 6	;RP1=0, select bank1
	movwf	(Fuzzy@x)^080h
	movlw	0x0
	movwf	(Fuzzy@x+1)^080h
	movlw	0x0
	movwf	(Fuzzy@x+2)^080h
	line	264
;main.c: 264: float total_area = 0;
	movlw	0x0
	movwf	(Fuzzy@total_area)^080h
	movlw	0x0
	movwf	(Fuzzy@total_area+1)^080h
	movlw	0x0
	movwf	(Fuzzy@total_area+2)^080h
	line	265
;main.c: 265: float soma = 0;
	movlw	0x0
	movwf	(Fuzzy@soma)^080h
	movlw	0x0
	movwf	(Fuzzy@soma+1)^080h
	movlw	0x0
	movwf	(Fuzzy@soma+2)^080h
	line	266
	
i1l3943:	
;main.c: 266: for (int a = 0; a <= 15; a++)
	clrf	(Fuzzy@a_249)^080h
	clrf	(Fuzzy@a_249+1)^080h
	
i1l3945:	
	movf	(Fuzzy@a_249+1)^080h,w
	xorlw	80h
	movwf	btemp+1
	movlw	(high(010h))^80h
	subwf	btemp+1,w
	skipz
	goto	u539_25
	movlw	low(010h)
	subwf	(Fuzzy@a_249)^080h,w
u539_25:

	skipc
	goto	u539_21
	goto	u539_20
u539_21:
	goto	i1l180
u539_20:
	goto	i1l3969
	
i1l3947:	
	goto	i1l3969
	line	267
	
i1l180:	
	line	268
;main.c: 267: {
;main.c: 268: if (a >= 0 && a <= 5) {
	bsf	status, 5	;RP0=1, select bank1
	bcf	status, 6	;RP1=0, select bank1
	btfsc	(Fuzzy@a_249+1)^080h,7
	goto	u540_21
	goto	u540_20
u540_21:
	goto	i1l3953
u540_20:
	
i1l3949:	
	movf	(Fuzzy@a_249+1)^080h,w
	xorlw	80h
	movwf	btemp+1
	movlw	(high(06h))^80h
	subwf	btemp+1,w
	skipz
	goto	u541_25
	movlw	low(06h)
	subwf	(Fuzzy@a_249)^080h,w
u541_25:

	skipnc
	goto	u541_21
	goto	u541_20
u541_21:
	goto	i1l3953
u541_20:
	line	269
	
i1l3951:	
;main.c: 269: total_area += rulepequeno;
	bsf	status, 5	;RP0=1, select bank1
	bcf	status, 6	;RP1=0, select bank1
	movf	(_rulepequeno)^080h,w
	bcf	status, 5	;RP0=0, select bank0
	bcf	status, 6	;RP1=0, select bank0
	movwf	(___ftadd@f1)
	bsf	status, 5	;RP0=1, select bank1
	bcf	status, 6	;RP1=0, select bank1
	movf	(_rulepequeno+1)^080h,w
	bcf	status, 5	;RP0=0, select bank0
	bcf	status, 6	;RP1=0, select bank0
	movwf	(___ftadd@f1+1)
	bsf	status, 5	;RP0=1, select bank1
	bcf	status, 6	;RP1=0, select bank1
	movf	(_rulepequeno+2)^080h,w
	bcf	status, 5	;RP0=0, select bank0
	bcf	status, 6	;RP1=0, select bank0
	movwf	(___ftadd@f1+2)
	bsf	status, 5	;RP0=1, select bank1
	bcf	status, 6	;RP1=0, select bank1
	movf	(Fuzzy@total_area)^080h,w
	bcf	status, 5	;RP0=0, select bank0
	bcf	status, 6	;RP1=0, select bank0
	movwf	(___ftadd@f2)
	bsf	status, 5	;RP0=1, select bank1
	bcf	status, 6	;RP1=0, select bank1
	movf	(Fuzzy@total_area+1)^080h,w
	bcf	status, 5	;RP0=0, select bank0
	bcf	status, 6	;RP1=0, select bank0
	movwf	(___ftadd@f2+1)
	bsf	status, 5	;RP0=1, select bank1
	bcf	status, 6	;RP1=0, select bank1
	movf	(Fuzzy@total_area+2)^080h,w
	bcf	status, 5	;RP0=0, select bank0
	bcf	status, 6	;RP1=0, select bank0
	movwf	(___ftadd@f2+2)
	fcall	___ftadd
	bcf	status, 5	;RP0=0, select bank0
	bcf	status, 6	;RP1=0, select bank0
	movf	(0+(?___ftadd)),w
	bsf	status, 5	;RP0=1, select bank1
	bcf	status, 6	;RP1=0, select bank1
	movwf	(Fuzzy@total_area)^080h
	bcf	status, 5	;RP0=0, select bank0
	bcf	status, 6	;RP1=0, select bank0
	movf	(1+(?___ftadd)),w
	bsf	status, 5	;RP0=1, select bank1
	bcf	status, 6	;RP1=0, select bank1
	movwf	(Fuzzy@total_area+1)^080h
	bcf	status, 5	;RP0=0, select bank0
	bcf	status, 6	;RP1=0, select bank0
	movf	(2+(?___ftadd)),w
	bsf	status, 5	;RP0=1, select bank1
	bcf	status, 6	;RP1=0, select bank1
	movwf	(Fuzzy@total_area+2)^080h
	line	270
;main.c: 270: soma += (x * rulepequeno);
	movf	(Fuzzy@x)^080h,w
	bcf	status, 5	;RP0=0, select bank0
	bcf	status, 6	;RP1=0, select bank0
	movwf	(___ftmul@f2)
	bsf	status, 5	;RP0=1, select bank1
	bcf	status, 6	;RP1=0, select bank1
	movf	(Fuzzy@x+1)^080h,w
	bcf	status, 5	;RP0=0, select bank0
	bcf	status, 6	;RP1=0, select bank0
	movwf	(___ftmul@f2+1)
	bsf	status, 5	;RP0=1, select bank1
	bcf	status, 6	;RP1=0, select bank1
	movf	(Fuzzy@x+2)^080h,w
	bcf	status, 5	;RP0=0, select bank0
	bcf	status, 6	;RP1=0, select bank0
	movwf	(___ftmul@f2+2)
	bsf	status, 5	;RP0=1, select bank1
	bcf	status, 6	;RP1=0, select bank1
	movf	(_rulepequeno)^080h,w
	bcf	status, 5	;RP0=0, select bank0
	bcf	status, 6	;RP1=0, select bank0
	movwf	(___ftmul@f1)
	bsf	status, 5	;RP0=1, select bank1
	bcf	status, 6	;RP1=0, select bank1
	movf	(_rulepequeno+1)^080h,w
	bcf	status, 5	;RP0=0, select bank0
	bcf	status, 6	;RP1=0, select bank0
	movwf	(___ftmul@f1+1)
	bsf	status, 5	;RP0=1, select bank1
	bcf	status, 6	;RP1=0, select bank1
	movf	(_rulepequeno+2)^080h,w
	bcf	status, 5	;RP0=0, select bank0
	bcf	status, 6	;RP1=0, select bank0
	movwf	(___ftmul@f1+2)
	fcall	___ftmul
	bcf	status, 5	;RP0=0, select bank0
	bcf	status, 6	;RP1=0, select bank0
	movf	(0+(?___ftmul)),w
	movwf	(___ftadd@f1)
	movf	(1+(?___ftmul)),w
	movwf	(___ftadd@f1+1)
	movf	(2+(?___ftmul)),w
	movwf	(___ftadd@f1+2)
	bsf	status, 5	;RP0=1, select bank1
	bcf	status, 6	;RP1=0, select bank1
	movf	(Fuzzy@soma)^080h,w
	bcf	status, 5	;RP0=0, select bank0
	bcf	status, 6	;RP1=0, select bank0
	movwf	(___ftadd@f2)
	bsf	status, 5	;RP0=1, select bank1
	bcf	status, 6	;RP1=0, select bank1
	movf	(Fuzzy@soma+1)^080h,w
	bcf	status, 5	;RP0=0, select bank0
	bcf	status, 6	;RP1=0, select bank0
	movwf	(___ftadd@f2+1)
	bsf	status, 5	;RP0=1, select bank1
	bcf	status, 6	;RP1=0, select bank1
	movf	(Fuzzy@soma+2)^080h,w
	bcf	status, 5	;RP0=0, select bank0
	bcf	status, 6	;RP1=0, select bank0
	movwf	(___ftadd@f2+2)
	fcall	___ftadd
	bcf	status, 5	;RP0=0, select bank0
	bcf	status, 6	;RP1=0, select bank0
	movf	(0+(?___ftadd)),w
	bsf	status, 5	;RP0=1, select bank1
	bcf	status, 6	;RP1=0, select bank1
	movwf	(Fuzzy@soma)^080h
	bcf	status, 5	;RP0=0, select bank0
	bcf	status, 6	;RP1=0, select bank0
	movf	(1+(?___ftadd)),w
	bsf	status, 5	;RP0=1, select bank1
	bcf	status, 6	;RP1=0, select bank1
	movwf	(Fuzzy@soma+1)^080h
	bcf	status, 5	;RP0=0, select bank0
	bcf	status, 6	;RP1=0, select bank0
	movf	(2+(?___ftadd)),w
	bsf	status, 5	;RP0=1, select bank1
	bcf	status, 6	;RP1=0, select bank1
	movwf	(Fuzzy@soma+2)^080h
	goto	i1l3953
	line	271
	
i1l182:	
	line	273
	
i1l3953:	
;main.c: 271: }
;main.c: 273: if (a >= 5 && a <= 10) {
	bsf	status, 5	;RP0=1, select bank1
	bcf	status, 6	;RP1=0, select bank1
	movf	(Fuzzy@a_249+1)^080h,w
	xorlw	80h
	movwf	btemp+1
	movlw	(high(05h))^80h
	subwf	btemp+1,w
	skipz
	goto	u542_25
	movlw	low(05h)
	subwf	(Fuzzy@a_249)^080h,w
u542_25:

	skipc
	goto	u542_21
	goto	u542_20
u542_21:
	goto	i1l3959
u542_20:
	
i1l3955:	
	bsf	status, 5	;RP0=1, select bank1
	bcf	status, 6	;RP1=0, select bank1
	movf	(Fuzzy@a_249+1)^080h,w
	xorlw	80h
	movwf	btemp+1
	movlw	(high(0Bh))^80h
	subwf	btemp+1,w
	skipz
	goto	u543_25
	movlw	low(0Bh)
	subwf	(Fuzzy@a_249)^080h,w
u543_25:

	skipnc
	goto	u543_21
	goto	u543_20
u543_21:
	goto	i1l3959
u543_20:
	line	274
	
i1l3957:	
;main.c: 274: total_area += rulemedio;
	bsf	status, 5	;RP0=1, select bank1
	bcf	status, 6	;RP1=0, select bank1
	movf	(_rulemedio)^080h,w
	bcf	status, 5	;RP0=0, select bank0
	bcf	status, 6	;RP1=0, select bank0
	movwf	(___ftadd@f1)
	bsf	status, 5	;RP0=1, select bank1
	bcf	status, 6	;RP1=0, select bank1
	movf	(_rulemedio+1)^080h,w
	bcf	status, 5	;RP0=0, select bank0
	bcf	status, 6	;RP1=0, select bank0
	movwf	(___ftadd@f1+1)
	bsf	status, 5	;RP0=1, select bank1
	bcf	status, 6	;RP1=0, select bank1
	movf	(_rulemedio+2)^080h,w
	bcf	status, 5	;RP0=0, select bank0
	bcf	status, 6	;RP1=0, select bank0
	movwf	(___ftadd@f1+2)
	bsf	status, 5	;RP0=1, select bank1
	bcf	status, 6	;RP1=0, select bank1
	movf	(Fuzzy@total_area)^080h,w
	bcf	status, 5	;RP0=0, select bank0
	bcf	status, 6	;RP1=0, select bank0
	movwf	(___ftadd@f2)
	bsf	status, 5	;RP0=1, select bank1
	bcf	status, 6	;RP1=0, select bank1
	movf	(Fuzzy@total_area+1)^080h,w
	bcf	status, 5	;RP0=0, select bank0
	bcf	status, 6	;RP1=0, select bank0
	movwf	(___ftadd@f2+1)
	bsf	status, 5	;RP0=1, select bank1
	bcf	status, 6	;RP1=0, select bank1
	movf	(Fuzzy@total_area+2)^080h,w
	bcf	status, 5	;RP0=0, select bank0
	bcf	status, 6	;RP1=0, select bank0
	movwf	(___ftadd@f2+2)
	fcall	___ftadd
	bcf	status, 5	;RP0=0, select bank0
	bcf	status, 6	;RP1=0, select bank0
	movf	(0+(?___ftadd)),w
	bsf	status, 5	;RP0=1, select bank1
	bcf	status, 6	;RP1=0, select bank1
	movwf	(Fuzzy@total_area)^080h
	bcf	status, 5	;RP0=0, select bank0
	bcf	status, 6	;RP1=0, select bank0
	movf	(1+(?___ftadd)),w
	bsf	status, 5	;RP0=1, select bank1
	bcf	status, 6	;RP1=0, select bank1
	movwf	(Fuzzy@total_area+1)^080h
	bcf	status, 5	;RP0=0, select bank0
	bcf	status, 6	;RP1=0, select bank0
	movf	(2+(?___ftadd)),w
	bsf	status, 5	;RP0=1, select bank1
	bcf	status, 6	;RP1=0, select bank1
	movwf	(Fuzzy@total_area+2)^080h
	line	275
;main.c: 275: soma += (x * rulemedio);
	movf	(Fuzzy@x)^080h,w
	bcf	status, 5	;RP0=0, select bank0
	bcf	status, 6	;RP1=0, select bank0
	movwf	(___ftmul@f2)
	bsf	status, 5	;RP0=1, select bank1
	bcf	status, 6	;RP1=0, select bank1
	movf	(Fuzzy@x+1)^080h,w
	bcf	status, 5	;RP0=0, select bank0
	bcf	status, 6	;RP1=0, select bank0
	movwf	(___ftmul@f2+1)
	bsf	status, 5	;RP0=1, select bank1
	bcf	status, 6	;RP1=0, select bank1
	movf	(Fuzzy@x+2)^080h,w
	bcf	status, 5	;RP0=0, select bank0
	bcf	status, 6	;RP1=0, select bank0
	movwf	(___ftmul@f2+2)
	bsf	status, 5	;RP0=1, select bank1
	bcf	status, 6	;RP1=0, select bank1
	movf	(_rulemedio)^080h,w
	bcf	status, 5	;RP0=0, select bank0
	bcf	status, 6	;RP1=0, select bank0
	movwf	(___ftmul@f1)
	bsf	status, 5	;RP0=1, select bank1
	bcf	status, 6	;RP1=0, select bank1
	movf	(_rulemedio+1)^080h,w
	bcf	status, 5	;RP0=0, select bank0
	bcf	status, 6	;RP1=0, select bank0
	movwf	(___ftmul@f1+1)
	bsf	status, 5	;RP0=1, select bank1
	bcf	status, 6	;RP1=0, select bank1
	movf	(_rulemedio+2)^080h,w
	bcf	status, 5	;RP0=0, select bank0
	bcf	status, 6	;RP1=0, select bank0
	movwf	(___ftmul@f1+2)
	fcall	___ftmul
	bcf	status, 5	;RP0=0, select bank0
	bcf	status, 6	;RP1=0, select bank0
	movf	(0+(?___ftmul)),w
	movwf	(___ftadd@f1)
	movf	(1+(?___ftmul)),w
	movwf	(___ftadd@f1+1)
	movf	(2+(?___ftmul)),w
	movwf	(___ftadd@f1+2)
	bsf	status, 5	;RP0=1, select bank1
	bcf	status, 6	;RP1=0, select bank1
	movf	(Fuzzy@soma)^080h,w
	bcf	status, 5	;RP0=0, select bank0
	bcf	status, 6	;RP1=0, select bank0
	movwf	(___ftadd@f2)
	bsf	status, 5	;RP0=1, select bank1
	bcf	status, 6	;RP1=0, select bank1
	movf	(Fuzzy@soma+1)^080h,w
	bcf	status, 5	;RP0=0, select bank0
	bcf	status, 6	;RP1=0, select bank0
	movwf	(___ftadd@f2+1)
	bsf	status, 5	;RP0=1, select bank1
	bcf	status, 6	;RP1=0, select bank1
	movf	(Fuzzy@soma+2)^080h,w
	bcf	status, 5	;RP0=0, select bank0
	bcf	status, 6	;RP1=0, select bank0
	movwf	(___ftadd@f2+2)
	fcall	___ftadd
	bcf	status, 5	;RP0=0, select bank0
	bcf	status, 6	;RP1=0, select bank0
	movf	(0+(?___ftadd)),w
	bsf	status, 5	;RP0=1, select bank1
	bcf	status, 6	;RP1=0, select bank1
	movwf	(Fuzzy@soma)^080h
	bcf	status, 5	;RP0=0, select bank0
	bcf	status, 6	;RP1=0, select bank0
	movf	(1+(?___ftadd)),w
	bsf	status, 5	;RP0=1, select bank1
	bcf	status, 6	;RP1=0, select bank1
	movwf	(Fuzzy@soma+1)^080h
	bcf	status, 5	;RP0=0, select bank0
	bcf	status, 6	;RP1=0, select bank0
	movf	(2+(?___ftadd)),w
	bsf	status, 5	;RP0=1, select bank1
	bcf	status, 6	;RP1=0, select bank1
	movwf	(Fuzzy@soma+2)^080h
	goto	i1l3959
	line	276
	
i1l183:	
	line	278
	
i1l3959:	
;main.c: 276: }
;main.c: 278: if (a >= 10 && a <= 15) {
	bsf	status, 5	;RP0=1, select bank1
	bcf	status, 6	;RP1=0, select bank1
	movf	(Fuzzy@a_249+1)^080h,w
	xorlw	80h
	movwf	btemp+1
	movlw	(high(0Ah))^80h
	subwf	btemp+1,w
	skipz
	goto	u544_25
	movlw	low(0Ah)
	subwf	(Fuzzy@a_249)^080h,w
u544_25:

	skipc
	goto	u544_21
	goto	u544_20
u544_21:
	goto	i1l184
u544_20:
	
i1l3961:	
	bsf	status, 5	;RP0=1, select bank1
	bcf	status, 6	;RP1=0, select bank1
	movf	(Fuzzy@a_249+1)^080h,w
	xorlw	80h
	movwf	btemp+1
	movlw	(high(010h))^80h
	subwf	btemp+1,w
	skipz
	goto	u545_25
	movlw	low(010h)
	subwf	(Fuzzy@a_249)^080h,w
u545_25:

	skipnc
	goto	u545_21
	goto	u545_20
u545_21:
	goto	i1l184
u545_20:
	line	279
	
i1l3963:	
;main.c: 279: total_area += rulegrande;
	bsf	status, 5	;RP0=1, select bank1
	bcf	status, 6	;RP1=0, select bank1
	movf	(_rulegrande)^080h,w
	bcf	status, 5	;RP0=0, select bank0
	bcf	status, 6	;RP1=0, select bank0
	movwf	(___ftadd@f1)
	bsf	status, 5	;RP0=1, select bank1
	bcf	status, 6	;RP1=0, select bank1
	movf	(_rulegrande+1)^080h,w
	bcf	status, 5	;RP0=0, select bank0
	bcf	status, 6	;RP1=0, select bank0
	movwf	(___ftadd@f1+1)
	bsf	status, 5	;RP0=1, select bank1
	bcf	status, 6	;RP1=0, select bank1
	movf	(_rulegrande+2)^080h,w
	bcf	status, 5	;RP0=0, select bank0
	bcf	status, 6	;RP1=0, select bank0
	movwf	(___ftadd@f1+2)
	bsf	status, 5	;RP0=1, select bank1
	bcf	status, 6	;RP1=0, select bank1
	movf	(Fuzzy@total_area)^080h,w
	bcf	status, 5	;RP0=0, select bank0
	bcf	status, 6	;RP1=0, select bank0
	movwf	(___ftadd@f2)
	bsf	status, 5	;RP0=1, select bank1
	bcf	status, 6	;RP1=0, select bank1
	movf	(Fuzzy@total_area+1)^080h,w
	bcf	status, 5	;RP0=0, select bank0
	bcf	status, 6	;RP1=0, select bank0
	movwf	(___ftadd@f2+1)
	bsf	status, 5	;RP0=1, select bank1
	bcf	status, 6	;RP1=0, select bank1
	movf	(Fuzzy@total_area+2)^080h,w
	bcf	status, 5	;RP0=0, select bank0
	bcf	status, 6	;RP1=0, select bank0
	movwf	(___ftadd@f2+2)
	fcall	___ftadd
	bcf	status, 5	;RP0=0, select bank0
	bcf	status, 6	;RP1=0, select bank0
	movf	(0+(?___ftadd)),w
	bsf	status, 5	;RP0=1, select bank1
	bcf	status, 6	;RP1=0, select bank1
	movwf	(Fuzzy@total_area)^080h
	bcf	status, 5	;RP0=0, select bank0
	bcf	status, 6	;RP1=0, select bank0
	movf	(1+(?___ftadd)),w
	bsf	status, 5	;RP0=1, select bank1
	bcf	status, 6	;RP1=0, select bank1
	movwf	(Fuzzy@total_area+1)^080h
	bcf	status, 5	;RP0=0, select bank0
	bcf	status, 6	;RP1=0, select bank0
	movf	(2+(?___ftadd)),w
	bsf	status, 5	;RP0=1, select bank1
	bcf	status, 6	;RP1=0, select bank1
	movwf	(Fuzzy@total_area+2)^080h
	line	280
;main.c: 280: soma += (x * rulegrande);
	movf	(Fuzzy@x)^080h,w
	bcf	status, 5	;RP0=0, select bank0
	bcf	status, 6	;RP1=0, select bank0
	movwf	(___ftmul@f2)
	bsf	status, 5	;RP0=1, select bank1
	bcf	status, 6	;RP1=0, select bank1
	movf	(Fuzzy@x+1)^080h,w
	bcf	status, 5	;RP0=0, select bank0
	bcf	status, 6	;RP1=0, select bank0
	movwf	(___ftmul@f2+1)
	bsf	status, 5	;RP0=1, select bank1
	bcf	status, 6	;RP1=0, select bank1
	movf	(Fuzzy@x+2)^080h,w
	bcf	status, 5	;RP0=0, select bank0
	bcf	status, 6	;RP1=0, select bank0
	movwf	(___ftmul@f2+2)
	bsf	status, 5	;RP0=1, select bank1
	bcf	status, 6	;RP1=0, select bank1
	movf	(_rulegrande)^080h,w
	bcf	status, 5	;RP0=0, select bank0
	bcf	status, 6	;RP1=0, select bank0
	movwf	(___ftmul@f1)
	bsf	status, 5	;RP0=1, select bank1
	bcf	status, 6	;RP1=0, select bank1
	movf	(_rulegrande+1)^080h,w
	bcf	status, 5	;RP0=0, select bank0
	bcf	status, 6	;RP1=0, select bank0
	movwf	(___ftmul@f1+1)
	bsf	status, 5	;RP0=1, select bank1
	bcf	status, 6	;RP1=0, select bank1
	movf	(_rulegrande+2)^080h,w
	bcf	status, 5	;RP0=0, select bank0
	bcf	status, 6	;RP1=0, select bank0
	movwf	(___ftmul@f1+2)
	fcall	___ftmul
	bcf	status, 5	;RP0=0, select bank0
	bcf	status, 6	;RP1=0, select bank0
	movf	(0+(?___ftmul)),w
	movwf	(___ftadd@f1)
	movf	(1+(?___ftmul)),w
	movwf	(___ftadd@f1+1)
	movf	(2+(?___ftmul)),w
	movwf	(___ftadd@f1+2)
	bsf	status, 5	;RP0=1, select bank1
	bcf	status, 6	;RP1=0, select bank1
	movf	(Fuzzy@soma)^080h,w
	bcf	status, 5	;RP0=0, select bank0
	bcf	status, 6	;RP1=0, select bank0
	movwf	(___ftadd@f2)
	bsf	status, 5	;RP0=1, select bank1
	bcf	status, 6	;RP1=0, select bank1
	movf	(Fuzzy@soma+1)^080h,w
	bcf	status, 5	;RP0=0, select bank0
	bcf	status, 6	;RP1=0, select bank0
	movwf	(___ftadd@f2+1)
	bsf	status, 5	;RP0=1, select bank1
	bcf	status, 6	;RP1=0, select bank1
	movf	(Fuzzy@soma+2)^080h,w
	bcf	status, 5	;RP0=0, select bank0
	bcf	status, 6	;RP1=0, select bank0
	movwf	(___ftadd@f2+2)
	fcall	___ftadd
	bcf	status, 5	;RP0=0, select bank0
	bcf	status, 6	;RP1=0, select bank0
	movf	(0+(?___ftadd)),w
	bsf	status, 5	;RP0=1, select bank1
	bcf	status, 6	;RP1=0, select bank1
	movwf	(Fuzzy@soma)^080h
	bcf	status, 5	;RP0=0, select bank0
	bcf	status, 6	;RP1=0, select bank0
	movf	(1+(?___ftadd)),w
	bsf	status, 5	;RP0=1, select bank1
	bcf	status, 6	;RP1=0, select bank1
	movwf	(Fuzzy@soma+1)^080h
	bcf	status, 5	;RP0=0, select bank0
	bcf	status, 6	;RP1=0, select bank0
	movf	(2+(?___ftadd)),w
	bsf	status, 5	;RP0=1, select bank1
	bcf	status, 6	;RP1=0, select bank1
	movwf	(Fuzzy@soma+2)^080h
	line	281
	
i1l184:	
	line	282
;main.c: 281: }
;main.c: 282: x += 1;
	movlw	0x0
	bcf	status, 5	;RP0=0, select bank0
	bcf	status, 6	;RP1=0, select bank0
	movwf	(___ftadd@f1)
	movlw	0x80
	movwf	(___ftadd@f1+1)
	movlw	0x3f
	movwf	(___ftadd@f1+2)
	bsf	status, 5	;RP0=1, select bank1
	bcf	status, 6	;RP1=0, select bank1
	movf	(Fuzzy@x)^080h,w
	bcf	status, 5	;RP0=0, select bank0
	bcf	status, 6	;RP1=0, select bank0
	movwf	(___ftadd@f2)
	bsf	status, 5	;RP0=1, select bank1
	bcf	status, 6	;RP1=0, select bank1
	movf	(Fuzzy@x+1)^080h,w
	bcf	status, 5	;RP0=0, select bank0
	bcf	status, 6	;RP1=0, select bank0
	movwf	(___ftadd@f2+1)
	bsf	status, 5	;RP0=1, select bank1
	bcf	status, 6	;RP1=0, select bank1
	movf	(Fuzzy@x+2)^080h,w
	bcf	status, 5	;RP0=0, select bank0
	bcf	status, 6	;RP1=0, select bank0
	movwf	(___ftadd@f2+2)
	fcall	___ftadd
	bcf	status, 5	;RP0=0, select bank0
	bcf	status, 6	;RP1=0, select bank0
	movf	(0+(?___ftadd)),w
	bsf	status, 5	;RP0=1, select bank1
	bcf	status, 6	;RP1=0, select bank1
	movwf	(Fuzzy@x)^080h
	bcf	status, 5	;RP0=0, select bank0
	bcf	status, 6	;RP1=0, select bank0
	movf	(1+(?___ftadd)),w
	bsf	status, 5	;RP0=1, select bank1
	bcf	status, 6	;RP1=0, select bank1
	movwf	(Fuzzy@x+1)^080h
	bcf	status, 5	;RP0=0, select bank0
	bcf	status, 6	;RP1=0, select bank0
	movf	(2+(?___ftadd)),w
	bsf	status, 5	;RP0=1, select bank1
	bcf	status, 6	;RP1=0, select bank1
	movwf	(Fuzzy@x+2)^080h
	line	266
	
i1l3965:	
	movlw	low(01h)
	addwf	(Fuzzy@a_249)^080h,f
	skipnc
	incf	(Fuzzy@a_249+1)^080h,f
	movlw	high(01h)
	addwf	(Fuzzy@a_249+1)^080h,f
	
i1l3967:	
	movf	(Fuzzy@a_249+1)^080h,w
	xorlw	80h
	movwf	btemp+1
	movlw	(high(010h))^80h
	subwf	btemp+1,w
	skipz
	goto	u546_25
	movlw	low(010h)
	subwf	(Fuzzy@a_249)^080h,w
u546_25:

	skipc
	goto	u546_21
	goto	u546_20
u546_21:
	goto	i1l180
u546_20:
	goto	i1l3969
	
i1l181:	
	line	286
	
i1l3969:	
;main.c: 283: }
;main.c: 286: float reajuste = 0;
	movlw	0x0
	bsf	status, 5	;RP0=1, select bank1
	bcf	status, 6	;RP1=0, select bank1
	movwf	(Fuzzy@reajuste)^080h
	movlw	0x0
	movwf	(Fuzzy@reajuste+1)^080h
	movlw	0x0
	movwf	(Fuzzy@reajuste+2)^080h
	line	287
;main.c: 287: if (total_area != 0)
	movf	(Fuzzy@total_area+2)^080h,w
	iorwf	(Fuzzy@total_area+1)^080h,w
	iorwf	(Fuzzy@total_area)^080h,w
	skipnz
	goto	u547_21
	goto	u547_20
u547_21:
	goto	i1l3973
u547_20:
	line	289
	
i1l3971:	
;main.c: 288: {
;main.c: 289: reajuste = soma / total_area;
	movf	(Fuzzy@total_area)^080h,w
	bcf	status, 5	;RP0=0, select bank0
	bcf	status, 6	;RP1=0, select bank0
	movwf	(___ftdiv@f2)
	bsf	status, 5	;RP0=1, select bank1
	bcf	status, 6	;RP1=0, select bank1
	movf	(Fuzzy@total_area+1)^080h,w
	bcf	status, 5	;RP0=0, select bank0
	bcf	status, 6	;RP1=0, select bank0
	movwf	(___ftdiv@f2+1)
	bsf	status, 5	;RP0=1, select bank1
	bcf	status, 6	;RP1=0, select bank1
	movf	(Fuzzy@total_area+2)^080h,w
	bcf	status, 5	;RP0=0, select bank0
	bcf	status, 6	;RP1=0, select bank0
	movwf	(___ftdiv@f2+2)
	bsf	status, 5	;RP0=1, select bank1
	bcf	status, 6	;RP1=0, select bank1
	movf	(Fuzzy@soma)^080h,w
	bcf	status, 5	;RP0=0, select bank0
	bcf	status, 6	;RP1=0, select bank0
	movwf	(___ftdiv@f1)
	bsf	status, 5	;RP0=1, select bank1
	bcf	status, 6	;RP1=0, select bank1
	movf	(Fuzzy@soma+1)^080h,w
	bcf	status, 5	;RP0=0, select bank0
	bcf	status, 6	;RP1=0, select bank0
	movwf	(___ftdiv@f1+1)
	bsf	status, 5	;RP0=1, select bank1
	bcf	status, 6	;RP1=0, select bank1
	movf	(Fuzzy@soma+2)^080h,w
	bcf	status, 5	;RP0=0, select bank0
	bcf	status, 6	;RP1=0, select bank0
	movwf	(___ftdiv@f1+2)
	fcall	___ftdiv
	bcf	status, 5	;RP0=0, select bank0
	bcf	status, 6	;RP1=0, select bank0
	movf	(0+(?___ftdiv)),w
	bsf	status, 5	;RP0=1, select bank1
	bcf	status, 6	;RP1=0, select bank1
	movwf	(Fuzzy@reajuste)^080h
	bcf	status, 5	;RP0=0, select bank0
	bcf	status, 6	;RP1=0, select bank0
	movf	(1+(?___ftdiv)),w
	bsf	status, 5	;RP0=1, select bank1
	bcf	status, 6	;RP1=0, select bank1
	movwf	(Fuzzy@reajuste+1)^080h
	bcf	status, 5	;RP0=0, select bank0
	bcf	status, 6	;RP1=0, select bank0
	movf	(2+(?___ftdiv)),w
	bsf	status, 5	;RP0=1, select bank1
	bcf	status, 6	;RP1=0, select bank1
	movwf	(Fuzzy@reajuste+2)^080h
	goto	i1l3973
	line	290
	
i1l185:	
	line	293
	
i1l3973:	
;main.c: 290: }
;main.c: 293: pwm = maximo(minimo(pwm + ((int)minimo(reajuste, deltaV)) * (setpointUI > rpm ? 1 : -1), 1023), 0);
	movf	(_setpointUI+1)^080h,w
	subwf	(_rpm+1)^080h,w
	skipz
	goto	u548_25
	movf	(_setpointUI)^080h,w
	subwf	(_rpm)^080h,w
u548_25:
	skipc
	goto	u548_21
	goto	u548_20
u548_21:
	goto	i1l3977
u548_20:
	
i1l3975:	
	movlw	low(-1)
	movwf	(_Fuzzy$251)^080h
	movlw	high(-1)
	movwf	((_Fuzzy$251)^080h)+1
	goto	i1l3979
	
i1l187:	
	
i1l3977:	
	movlw	low(01h)
	movwf	(_Fuzzy$251)^080h
	movlw	high(01h)
	movwf	((_Fuzzy$251)^080h)+1
	goto	i1l3979
	
i1l189:	
	
i1l3979:	
	movf	(_Fuzzy$251+1)^080h,w
	bcf	status, 5	;RP0=0, select bank0
	bcf	status, 6	;RP1=0, select bank0
	clrf	(___wmul@multiplicand+1)
	addwf	(___wmul@multiplicand+1)
	bsf	status, 5	;RP0=1, select bank1
	bcf	status, 6	;RP1=0, select bank1
	movf	(_Fuzzy$251)^080h,w
	bcf	status, 5	;RP0=0, select bank0
	bcf	status, 6	;RP1=0, select bank0
	clrf	(___wmul@multiplicand)
	addwf	(___wmul@multiplicand)

	bsf	status, 5	;RP0=1, select bank1
	bcf	status, 6	;RP1=0, select bank1
	movf	(_deltaV+1)^080h,w
	clrf	(___lwtoft@c+1)
	addwf	(___lwtoft@c+1)
	movf	(_deltaV)^080h,w
	clrf	(___lwtoft@c)
	addwf	(___lwtoft@c)

	fcall	___lwtoft
	movf	(0+(?___lwtoft)),w
	bcf	status, 5	;RP0=0, select bank0
	bcf	status, 6	;RP1=0, select bank0
	movwf	(minimo@b)
	movf	(1+(?___lwtoft)),w
	movwf	(minimo@b+1)
	movf	(2+(?___lwtoft)),w
	movwf	(minimo@b+2)
	bsf	status, 5	;RP0=1, select bank1
	bcf	status, 6	;RP1=0, select bank1
	movf	(Fuzzy@reajuste)^080h,w
	bcf	status, 5	;RP0=0, select bank0
	bcf	status, 6	;RP1=0, select bank0
	movwf	(minimo@a)
	bsf	status, 5	;RP0=1, select bank1
	bcf	status, 6	;RP1=0, select bank1
	movf	(Fuzzy@reajuste+1)^080h,w
	bcf	status, 5	;RP0=0, select bank0
	bcf	status, 6	;RP1=0, select bank0
	movwf	(minimo@a+1)
	bsf	status, 5	;RP0=1, select bank1
	bcf	status, 6	;RP1=0, select bank1
	movf	(Fuzzy@reajuste+2)^080h,w
	bcf	status, 5	;RP0=0, select bank0
	bcf	status, 6	;RP1=0, select bank0
	movwf	(minimo@a+2)
	fcall	_minimo
	bcf	status, 5	;RP0=0, select bank0
	bcf	status, 6	;RP1=0, select bank0
	movf	(0+(?_minimo)),w
	movwf	(___fttol@f1)
	movf	(1+(?_minimo)),w
	movwf	(___fttol@f1+1)
	movf	(2+(?_minimo)),w
	movwf	(___fttol@f1+2)
	fcall	___fttol
	bcf	status, 5	;RP0=0, select bank0
	bcf	status, 6	;RP1=0, select bank0
	movf	1+(((0+(?___fttol)))),w
	clrf	(___wmul@multiplier+1)
	addwf	(___wmul@multiplier+1)
	movf	0+(((0+(?___fttol)))),w
	clrf	(___wmul@multiplier)
	addwf	(___wmul@multiplier)

	fcall	___wmul
	bsf	status, 5	;RP0=1, select bank1
	bcf	status, 6	;RP1=0, select bank1
	movf	(_pwm)^080h,w
	bcf	status, 5	;RP0=0, select bank0
	bcf	status, 6	;RP1=0, select bank0
	addwf	(0+(?___wmul)),w
	bsf	status, 5	;RP0=1, select bank1
	bcf	status, 6	;RP1=0, select bank1
	movwf	(_Fuzzy$1693)^080h
	movf	(_pwm+1)^080h,w
	skipnc
	incf	(_pwm+1)^080h,w
	bcf	status, 5	;RP0=0, select bank0
	bcf	status, 6	;RP1=0, select bank0
	addwf	(1+(?___wmul)),w
	bsf	status, 5	;RP0=1, select bank1
	bcf	status, 6	;RP1=0, select bank1
	movwf	1+(_Fuzzy$1693)^080h
	
i1l3981:	
	movlw	0x0
	bcf	status, 5	;RP0=0, select bank0
	bcf	status, 6	;RP1=0, select bank0
	movwf	(maximo@b)
	movlw	0x0
	movwf	(maximo@b+1)
	movlw	0x0
	movwf	(maximo@b+2)
	movlw	0xc0
	movwf	(minimo@b)
	movlw	0x7f
	movwf	(minimo@b+1)
	movlw	0x44
	movwf	(minimo@b+2)
	bsf	status, 5	;RP0=1, select bank1
	bcf	status, 6	;RP1=0, select bank1
	movf	(_Fuzzy$1693+1)^080h,w
	clrf	(___lwtoft@c+1)
	addwf	(___lwtoft@c+1)
	movf	(_Fuzzy$1693)^080h,w
	clrf	(___lwtoft@c)
	addwf	(___lwtoft@c)

	fcall	___lwtoft
	movf	(0+(?___lwtoft)),w
	bcf	status, 5	;RP0=0, select bank0
	bcf	status, 6	;RP1=0, select bank0
	movwf	(minimo@a)
	movf	(1+(?___lwtoft)),w
	movwf	(minimo@a+1)
	movf	(2+(?___lwtoft)),w
	movwf	(minimo@a+2)
	fcall	_minimo
	bcf	status, 5	;RP0=0, select bank0
	bcf	status, 6	;RP1=0, select bank0
	movf	(0+(?_minimo)),w
	movwf	(maximo@a)
	movf	(1+(?_minimo)),w
	movwf	(maximo@a+1)
	movf	(2+(?_minimo)),w
	movwf	(maximo@a+2)
	fcall	_maximo
	bcf	status, 5	;RP0=0, select bank0
	bcf	status, 6	;RP1=0, select bank0
	movf	(0+(?_maximo)),w
	movwf	(___fttol@f1)
	movf	(1+(?_maximo)),w
	movwf	(___fttol@f1+1)
	movf	(2+(?_maximo)),w
	movwf	(___fttol@f1+2)
	fcall	___fttol
	bcf	status, 5	;RP0=0, select bank0
	bcf	status, 6	;RP1=0, select bank0
	movf	1+(((0+(?___fttol)))),w
	bsf	status, 5	;RP0=1, select bank1
	bcf	status, 6	;RP1=0, select bank1
	clrf	(_pwm+1)^080h
	addwf	(_pwm+1)^080h
	bcf	status, 5	;RP0=0, select bank0
	bcf	status, 6	;RP1=0, select bank0
	movf	0+(((0+(?___fttol)))),w
	bsf	status, 5	;RP0=1, select bank1
	bcf	status, 6	;RP1=0, select bank1
	clrf	(_pwm)^080h
	addwf	(_pwm)^080h

	line	296
;main.c: 296: if(pwm > 0 && pwm < 1024)
	movf	(_pwm+1)^080h,w
	iorwf	(_pwm)^080h,w
	skipnz
	goto	u549_21
	goto	u549_20
u549_21:
	goto	i1l191
u549_20:
	
i1l3983:	
	movlw	high(0400h)
	subwf	(_pwm+1)^080h,w
	movlw	low(0400h)
	skipnz
	subwf	(_pwm)^080h,w
	skipnc
	goto	u550_21
	goto	u550_20
u550_21:
	goto	i1l191
u550_20:
	line	298
	
i1l3985:	
;main.c: 297: {
;main.c: 298: PWM_DutyCycle2(pwm);
	movf	(_pwm+1)^080h,w
	clrf	(i1PWM_DutyCycle2@valor+1)
	addwf	(i1PWM_DutyCycle2@valor+1)
	movf	(_pwm)^080h,w
	clrf	(i1PWM_DutyCycle2@valor)
	addwf	(i1PWM_DutyCycle2@valor)

	fcall	i1_PWM_DutyCycle2
	goto	i1l191
	line	299
	
i1l190:	
	line	301
	
i1l191:	
	return
	opt stack 0
GLOBAL	__end_of_Fuzzy
	__end_of_Fuzzy:
	signat	_Fuzzy,88
	global	i1_PWM_DutyCycle2

;; *************** function i1_PWM_DutyCycle2 *****************
;; Defined at:
;;		line 96 in file "R:\Note\Sistema I\Ultimo C no MPLAB\pwm.c"
;; Parameters:    Size  Location     Type
;;  valor           2    0[COMMON] int 
;; Auto vars:     Size  Location     Type
;;		None
;; Return value:  Size  Location     Type
;;		None               void
;; Registers used:
;;		wreg, status,2, status,0
;; Tracked objects:
;;		On entry : 0/0
;;		On exit  : 0/0
;;		Unchanged: 0/0
;; Data sizes:     COMMON   BANK0   BANK1   BANK3   BANK2
;;      Params:         2       0       0       0       0
;;      Locals:         0       0       0       0       0
;;      Temps:          2       0       0       0       0
;;      Totals:         4       0       0       0       0
;;Total ram usage:        4 bytes
;; Hardware stack levels used:    1
;; This function calls:
;;		Nothing
;; This function is called by:
;;		_Fuzzy
;;		_ISR
;; This function uses a non-reentrant model
;;
psect	text23,local,class=CODE,delta=2,merge=1
	file	"R:\Note\Sistema I\Ultimo C no MPLAB\pwm.c"
	line	96
global __ptext23
__ptext23:	;psect for function i1_PWM_DutyCycle2
psect	text23
	file	"R:\Note\Sistema I\Ultimo C no MPLAB\pwm.c"
	line	96
	global	__size_ofi1_PWM_DutyCycle2
	__size_ofi1_PWM_DutyCycle2	equ	__end_ofi1_PWM_DutyCycle2-i1_PWM_DutyCycle2
	
i1_PWM_DutyCycle2:	
;incstack = 0
	opt	stack 4
; Regs used in i1_PWM_DutyCycle2: [wreg+status,2+status,0]
	line	98
	
i1l2515:	
;pwm.c: 98: CCPR2L = valor >> 2;
	movf	(i1PWM_DutyCycle2@valor+1),w
	movwf	(??i1_PWM_DutyCycle2+0)+0+1
	movf	(i1PWM_DutyCycle2@valor),w
	movwf	(??i1_PWM_DutyCycle2+0)+0
	rlf	(??i1_PWM_DutyCycle2+0)+1,w
	rrf	(??i1_PWM_DutyCycle2+0)+1,f
	rrf	(??i1_PWM_DutyCycle2+0)+0,f
	rlf	(??i1_PWM_DutyCycle2+0)+1,w
	rrf	(??i1_PWM_DutyCycle2+0)+1,f
	rrf	(??i1_PWM_DutyCycle2+0)+0,f
	movf	0+(??i1_PWM_DutyCycle2+0)+0,w
	bcf	status, 5	;RP0=0, select bank0
	bcf	status, 6	;RP1=0, select bank0
	movwf	(27)	;volatile
	line	99
	
i1l2517:	
;pwm.c: 99: CCP2CON = (valor << 4)|0X0C;
	movf	(i1PWM_DutyCycle2@valor),w
	movwf	(??i1_PWM_DutyCycle2+0)+0
	movlw	(04h)-1
u296_25:
	clrc
	rlf	(??i1_PWM_DutyCycle2+0)+0,f
	addlw	-1
	skipz
	goto	u296_25
	clrc
	rlf	(??i1_PWM_DutyCycle2+0)+0,w
	iorlw	0Ch
	movwf	(29)	;volatile
	line	100
	
i1l455:	
	return
	opt stack 0
GLOBAL	__end_ofi1_PWM_DutyCycle2
	__end_ofi1_PWM_DutyCycle2:
	signat	i1_PWM_DutyCycle2,88
	global	_trapmf

;; *************** function _trapmf *****************
;; Defined at:
;;		line 88 in file "R:\Note\Sistema I\Ultimo C no MPLAB\main.c"
;; Parameters:    Size  Location     Type
;;  x               3   32[BANK0 ] float 
;;  a               3   35[BANK0 ] float 
;;  b               3   38[BANK0 ] float 
;;  c               3   41[BANK0 ] float 
;;  d               3   44[BANK0 ] float 
;; Auto vars:     Size  Location     Type
;;  ua              3   47[BANK0 ] float 
;; Return value:  Size  Location     Type
;;                  3   32[BANK0 ] float 
;; Registers used:
;;		wreg, status,2, status,0, pclath, cstack
;; Tracked objects:
;;		On entry : 0/0
;;		On exit  : 0/0
;;		Unchanged: 0/0
;; Data sizes:     COMMON   BANK0   BANK1   BANK3   BANK2
;;      Params:         0      15       0       0       0
;;      Locals:         0       3       0       0       0
;;      Temps:          0       0       0       0       0
;;      Totals:         0      18       0       0       0
;;Total ram usage:       18 bytes
;; Hardware stack levels used:    1
;; Hardware stack levels required when called:    2
;; This function calls:
;;		___ftadd
;;		___ftdiv
;;		___ftge
;;		___ftneg
;; This function is called by:
;;		_Fuzzy
;; This function uses a non-reentrant model
;;
psect	text24,local,class=CODE,delta=2,merge=1
	file	"R:\Note\Sistema I\Ultimo C no MPLAB\main.c"
	line	88
global __ptext24
__ptext24:	;psect for function _trapmf
psect	text24
	file	"R:\Note\Sistema I\Ultimo C no MPLAB\main.c"
	line	88
	global	__size_of_trapmf
	__size_of_trapmf	equ	__end_of_trapmf-_trapmf
	
_trapmf:	
;incstack = 0
	opt	stack 1
; Regs used in _trapmf: [wreg+status,2+status,0+pclath+cstack]
	line	90
	
i1l3809:	
;main.c: 90: float ua = 0;
	movlw	0x0
	bcf	status, 5	;RP0=0, select bank0
	bcf	status, 6	;RP1=0, select bank0
	movwf	(trapmf@ua)
	movlw	0x0
	movwf	(trapmf@ua+1)
	movlw	0x0
	movwf	(trapmf@ua+2)
	line	92
	
i1l3811:	
;main.c: 92: if (x <= a)
	movf	(trapmf@a),w
	movwf	(___ftge@ff1)
	movf	(trapmf@a+1),w
	movwf	(___ftge@ff1+1)
	movf	(trapmf@a+2),w
	movwf	(___ftge@ff1+2)
	movf	(trapmf@x),w
	movwf	(___ftge@ff2)
	movf	(trapmf@x+1),w
	movwf	(___ftge@ff2+1)
	movf	(trapmf@x+2),w
	movwf	(___ftge@ff2+2)
	fcall	___ftge
	btfss	status,0
	goto	u511_21
	goto	u511_20
u511_21:
	goto	i1l3815
u511_20:
	line	93
	
i1l3813:	
;main.c: 93: ua = 0;
	movlw	0x0
	bcf	status, 5	;RP0=0, select bank0
	bcf	status, 6	;RP1=0, select bank0
	movwf	(trapmf@ua)
	movlw	0x0
	movwf	(trapmf@ua+1)
	movlw	0x0
	movwf	(trapmf@ua+2)
	goto	i1l130
	line	94
	
i1l129:	
	
i1l3815:	
;main.c: 94: else if ((a < x) && (x <= b))
	bcf	status, 5	;RP0=0, select bank0
	bcf	status, 6	;RP1=0, select bank0
	movf	(trapmf@a),w
	movwf	(___ftge@ff1)
	movf	(trapmf@a+1),w
	movwf	(___ftge@ff1+1)
	movf	(trapmf@a+2),w
	movwf	(___ftge@ff1+2)
	movf	(trapmf@x),w
	movwf	(___ftge@ff2)
	movf	(trapmf@x+1),w
	movwf	(___ftge@ff2+1)
	movf	(trapmf@x+2),w
	movwf	(___ftge@ff2+2)
	fcall	___ftge
	btfsc	status,0
	goto	u512_21
	goto	u512_20
u512_21:
	goto	i1l3821
u512_20:
	
i1l3817:	
	bcf	status, 5	;RP0=0, select bank0
	bcf	status, 6	;RP1=0, select bank0
	movf	(trapmf@b),w
	movwf	(___ftge@ff1)
	movf	(trapmf@b+1),w
	movwf	(___ftge@ff1+1)
	movf	(trapmf@b+2),w
	movwf	(___ftge@ff1+2)
	movf	(trapmf@x),w
	movwf	(___ftge@ff2)
	movf	(trapmf@x+1),w
	movwf	(___ftge@ff2+1)
	movf	(trapmf@x+2),w
	movwf	(___ftge@ff2+2)
	fcall	___ftge
	btfss	status,0
	goto	u513_21
	goto	u513_20
u513_21:
	goto	i1l3821
u513_20:
	line	95
	
i1l3819:	
;main.c: 95: ua = ((x - a) / (b - a));
	bcf	status, 5	;RP0=0, select bank0
	bcf	status, 6	;RP1=0, select bank0
	movf	(trapmf@b),w
	movwf	(___ftadd@f1)
	movf	(trapmf@b+1),w
	movwf	(___ftadd@f1+1)
	movf	(trapmf@b+2),w
	movwf	(___ftadd@f1+2)
	movf	(trapmf@a),w
	movwf	(___ftneg@f1)
	movf	(trapmf@a+1),w
	movwf	(___ftneg@f1+1)
	movf	(trapmf@a+2),w
	movwf	(___ftneg@f1+2)
	fcall	___ftneg
	bcf	status, 5	;RP0=0, select bank0
	bcf	status, 6	;RP1=0, select bank0
	movf	(0+(?___ftneg)),w
	movwf	(___ftadd@f2)
	movf	(1+(?___ftneg)),w
	movwf	(___ftadd@f2+1)
	movf	(2+(?___ftneg)),w
	movwf	(___ftadd@f2+2)
	fcall	___ftadd
	bcf	status, 5	;RP0=0, select bank0
	bcf	status, 6	;RP1=0, select bank0
	movf	(0+(?___ftadd)),w
	movwf	(___ftdiv@f2)
	movf	(1+(?___ftadd)),w
	movwf	(___ftdiv@f2+1)
	movf	(2+(?___ftadd)),w
	movwf	(___ftdiv@f2+2)
	movf	(trapmf@x),w
	movwf	(___ftadd@f1)
	movf	(trapmf@x+1),w
	movwf	(___ftadd@f1+1)
	movf	(trapmf@x+2),w
	movwf	(___ftadd@f1+2)
	movf	(trapmf@a),w
	movwf	(___ftneg@f1)
	movf	(trapmf@a+1),w
	movwf	(___ftneg@f1+1)
	movf	(trapmf@a+2),w
	movwf	(___ftneg@f1+2)
	fcall	___ftneg
	bcf	status, 5	;RP0=0, select bank0
	bcf	status, 6	;RP1=0, select bank0
	movf	(0+(?___ftneg)),w
	movwf	(___ftadd@f2)
	movf	(1+(?___ftneg)),w
	movwf	(___ftadd@f2+1)
	movf	(2+(?___ftneg)),w
	movwf	(___ftadd@f2+2)
	fcall	___ftadd
	bcf	status, 5	;RP0=0, select bank0
	bcf	status, 6	;RP1=0, select bank0
	movf	(0+(?___ftadd)),w
	movwf	(___ftdiv@f1)
	movf	(1+(?___ftadd)),w
	movwf	(___ftdiv@f1+1)
	movf	(2+(?___ftadd)),w
	movwf	(___ftdiv@f1+2)
	fcall	___ftdiv
	bcf	status, 5	;RP0=0, select bank0
	bcf	status, 6	;RP1=0, select bank0
	movf	(0+(?___ftdiv)),w
	movwf	(trapmf@ua)
	movf	(1+(?___ftdiv)),w
	movwf	(trapmf@ua+1)
	movf	(2+(?___ftdiv)),w
	movwf	(trapmf@ua+2)
	goto	i1l130
	line	96
	
i1l131:	
	
i1l3821:	
;main.c: 96: else if ((b <= x) && (x <= c))
	bcf	status, 5	;RP0=0, select bank0
	bcf	status, 6	;RP1=0, select bank0
	movf	(trapmf@x),w
	movwf	(___ftge@ff1)
	movf	(trapmf@x+1),w
	movwf	(___ftge@ff1+1)
	movf	(trapmf@x+2),w
	movwf	(___ftge@ff1+2)
	movf	(trapmf@b),w
	movwf	(___ftge@ff2)
	movf	(trapmf@b+1),w
	movwf	(___ftge@ff2+1)
	movf	(trapmf@b+2),w
	movwf	(___ftge@ff2+2)
	fcall	___ftge
	btfss	status,0
	goto	u514_21
	goto	u514_20
u514_21:
	goto	i1l3827
u514_20:
	
i1l3823:	
	bcf	status, 5	;RP0=0, select bank0
	bcf	status, 6	;RP1=0, select bank0
	movf	(trapmf@c),w
	movwf	(___ftge@ff1)
	movf	(trapmf@c+1),w
	movwf	(___ftge@ff1+1)
	movf	(trapmf@c+2),w
	movwf	(___ftge@ff1+2)
	movf	(trapmf@x),w
	movwf	(___ftge@ff2)
	movf	(trapmf@x+1),w
	movwf	(___ftge@ff2+1)
	movf	(trapmf@x+2),w
	movwf	(___ftge@ff2+2)
	fcall	___ftge
	btfss	status,0
	goto	u515_21
	goto	u515_20
u515_21:
	goto	i1l3827
u515_20:
	line	97
	
i1l3825:	
;main.c: 97: ua = 1;
	movlw	0x0
	bcf	status, 5	;RP0=0, select bank0
	bcf	status, 6	;RP1=0, select bank0
	movwf	(trapmf@ua)
	movlw	0x80
	movwf	(trapmf@ua+1)
	movlw	0x3f
	movwf	(trapmf@ua+2)
	goto	i1l130
	line	98
	
i1l133:	
	
i1l3827:	
;main.c: 98: else if ((c < x) && (x <= d))
	bcf	status, 5	;RP0=0, select bank0
	bcf	status, 6	;RP1=0, select bank0
	movf	(trapmf@c),w
	movwf	(___ftge@ff1)
	movf	(trapmf@c+1),w
	movwf	(___ftge@ff1+1)
	movf	(trapmf@c+2),w
	movwf	(___ftge@ff1+2)
	movf	(trapmf@x),w
	movwf	(___ftge@ff2)
	movf	(trapmf@x+1),w
	movwf	(___ftge@ff2+1)
	movf	(trapmf@x+2),w
	movwf	(___ftge@ff2+2)
	fcall	___ftge
	btfsc	status,0
	goto	u516_21
	goto	u516_20
u516_21:
	goto	i1l3833
u516_20:
	
i1l3829:	
	bcf	status, 5	;RP0=0, select bank0
	bcf	status, 6	;RP1=0, select bank0
	movf	(trapmf@d),w
	movwf	(___ftge@ff1)
	movf	(trapmf@d+1),w
	movwf	(___ftge@ff1+1)
	movf	(trapmf@d+2),w
	movwf	(___ftge@ff1+2)
	movf	(trapmf@x),w
	movwf	(___ftge@ff2)
	movf	(trapmf@x+1),w
	movwf	(___ftge@ff2+1)
	movf	(trapmf@x+2),w
	movwf	(___ftge@ff2+2)
	fcall	___ftge
	btfss	status,0
	goto	u517_21
	goto	u517_20
u517_21:
	goto	i1l3833
u517_20:
	line	99
	
i1l3831:	
;main.c: 99: ua = ((d - x) / (d - c));
	bcf	status, 5	;RP0=0, select bank0
	bcf	status, 6	;RP1=0, select bank0
	movf	(trapmf@d),w
	movwf	(___ftadd@f1)
	movf	(trapmf@d+1),w
	movwf	(___ftadd@f1+1)
	movf	(trapmf@d+2),w
	movwf	(___ftadd@f1+2)
	movf	(trapmf@c),w
	movwf	(___ftneg@f1)
	movf	(trapmf@c+1),w
	movwf	(___ftneg@f1+1)
	movf	(trapmf@c+2),w
	movwf	(___ftneg@f1+2)
	fcall	___ftneg
	bcf	status, 5	;RP0=0, select bank0
	bcf	status, 6	;RP1=0, select bank0
	movf	(0+(?___ftneg)),w
	movwf	(___ftadd@f2)
	movf	(1+(?___ftneg)),w
	movwf	(___ftadd@f2+1)
	movf	(2+(?___ftneg)),w
	movwf	(___ftadd@f2+2)
	fcall	___ftadd
	bcf	status, 5	;RP0=0, select bank0
	bcf	status, 6	;RP1=0, select bank0
	movf	(0+(?___ftadd)),w
	movwf	(___ftdiv@f2)
	movf	(1+(?___ftadd)),w
	movwf	(___ftdiv@f2+1)
	movf	(2+(?___ftadd)),w
	movwf	(___ftdiv@f2+2)
	movf	(trapmf@d),w
	movwf	(___ftadd@f1)
	movf	(trapmf@d+1),w
	movwf	(___ftadd@f1+1)
	movf	(trapmf@d+2),w
	movwf	(___ftadd@f1+2)
	movf	(trapmf@x),w
	movwf	(___ftneg@f1)
	movf	(trapmf@x+1),w
	movwf	(___ftneg@f1+1)
	movf	(trapmf@x+2),w
	movwf	(___ftneg@f1+2)
	fcall	___ftneg
	bcf	status, 5	;RP0=0, select bank0
	bcf	status, 6	;RP1=0, select bank0
	movf	(0+(?___ftneg)),w
	movwf	(___ftadd@f2)
	movf	(1+(?___ftneg)),w
	movwf	(___ftadd@f2+1)
	movf	(2+(?___ftneg)),w
	movwf	(___ftadd@f2+2)
	fcall	___ftadd
	bcf	status, 5	;RP0=0, select bank0
	bcf	status, 6	;RP1=0, select bank0
	movf	(0+(?___ftadd)),w
	movwf	(___ftdiv@f1)
	movf	(1+(?___ftadd)),w
	movwf	(___ftdiv@f1+1)
	movf	(2+(?___ftadd)),w
	movwf	(___ftdiv@f1+2)
	fcall	___ftdiv
	bcf	status, 5	;RP0=0, select bank0
	bcf	status, 6	;RP1=0, select bank0
	movf	(0+(?___ftdiv)),w
	movwf	(trapmf@ua)
	movf	(1+(?___ftdiv)),w
	movwf	(trapmf@ua+1)
	movf	(2+(?___ftdiv)),w
	movwf	(trapmf@ua+2)
	goto	i1l130
	line	100
	
i1l135:	
	
i1l3833:	
;main.c: 100: else if (x > d)
	bcf	status, 5	;RP0=0, select bank0
	bcf	status, 6	;RP1=0, select bank0
	movf	(trapmf@d),w
	movwf	(___ftge@ff1)
	movf	(trapmf@d+1),w
	movwf	(___ftge@ff1+1)
	movf	(trapmf@d+2),w
	movwf	(___ftge@ff1+2)
	movf	(trapmf@x),w
	movwf	(___ftge@ff2)
	movf	(trapmf@x+1),w
	movwf	(___ftge@ff2+1)
	movf	(trapmf@x+2),w
	movwf	(___ftge@ff2+2)
	fcall	___ftge
	btfsc	status,0
	goto	u518_21
	goto	u518_20
u518_21:
	goto	i1l130
u518_20:
	line	101
	
i1l3835:	
;main.c: 101: ua = 0;
	movlw	0x0
	bcf	status, 5	;RP0=0, select bank0
	bcf	status, 6	;RP1=0, select bank0
	movwf	(trapmf@ua)
	movlw	0x0
	movwf	(trapmf@ua+1)
	movlw	0x0
	movwf	(trapmf@ua+2)
	goto	i1l130
	
i1l137:	
	goto	i1l130
	line	103
	
i1l136:	
	goto	i1l130
	
i1l134:	
	goto	i1l130
	
i1l132:	
	
i1l130:	
;main.c: 103: return(ua);
	bcf	status, 5	;RP0=0, select bank0
	bcf	status, 6	;RP1=0, select bank0
	movf	(trapmf@ua),w
	movwf	(?_trapmf)
	movf	(trapmf@ua+1),w
	movwf	(?_trapmf+1)
	movf	(trapmf@ua+2),w
	movwf	(?_trapmf+2)
	goto	i1l138
	
i1l3837:	
	line	104
	
i1l138:	
	return
	opt stack 0
GLOBAL	__end_of_trapmf
	__end_of_trapmf:
	signat	_trapmf,20603
	global	___ftneg

;; *************** function ___ftneg *****************
;; Defined at:
;;		line 15 in file "C:\Program Files (x86)\Microchip\xc8\v1.33\sources\common\ftneg.c"
;; Parameters:    Size  Location     Type
;;  f1              3    0[BANK0 ] float 
;; Auto vars:     Size  Location     Type
;;		None
;; Return value:  Size  Location     Type
;;                  3    0[BANK0 ] float 
;; Registers used:
;;		wreg
;; Tracked objects:
;;		On entry : 0/0
;;		On exit  : 0/0
;;		Unchanged: 0/0
;; Data sizes:     COMMON   BANK0   BANK1   BANK3   BANK2
;;      Params:         0       3       0       0       0
;;      Locals:         0       0       0       0       0
;;      Temps:          0       0       0       0       0
;;      Totals:         0       3       0       0       0
;;Total ram usage:        3 bytes
;; Hardware stack levels used:    1
;; This function calls:
;;		Nothing
;; This function is called by:
;;		_trapmf
;;		_Fuzzy
;;		_trimf
;; This function uses a non-reentrant model
;;
psect	text25,local,class=CODE,delta=2,merge=1
	file	"C:\Program Files (x86)\Microchip\xc8\v1.33\sources\common\ftneg.c"
	line	15
global __ptext25
__ptext25:	;psect for function ___ftneg
psect	text25
	file	"C:\Program Files (x86)\Microchip\xc8\v1.33\sources\common\ftneg.c"
	line	15
	global	__size_of___ftneg
	__size_of___ftneg	equ	__end_of___ftneg-___ftneg
	
___ftneg:	
;incstack = 0
	opt	stack 2
; Regs used in ___ftneg: [wreg]
	line	17
	
i1l2269:	
	bcf	status, 5	;RP0=0, select bank0
	bcf	status, 6	;RP1=0, select bank0
	movf	(___ftneg@f1+2),w
	iorwf	(___ftneg@f1+1),w
	iorwf	(___ftneg@f1),w
	skipnz
	goto	u244_21
	goto	u244_20
u244_21:
	goto	i1l2273
u244_20:
	line	18
	
i1l2271:	
	movlw	080h
	xorwf	(___ftneg@f1+2),f
	goto	i1l2273
	
i1l800:	
	line	19
	
i1l2273:	
	goto	i1l801
	
i1l2275:	
	line	20
	
i1l801:	
	return
	opt stack 0
GLOBAL	__end_of___ftneg
	__end_of___ftneg:
	signat	___ftneg,4219
	global	___ftdiv

;; *************** function ___ftdiv *****************
;; Defined at:
;;		line 49 in file "C:\Program Files (x86)\Microchip\xc8\v1.33\sources\pic\ftdiv.c"
;; Parameters:    Size  Location     Type
;;  f2              3   16[BANK0 ] float 
;;  f1              3   19[BANK0 ] float 
;; Auto vars:     Size  Location     Type
;;  f3              3   27[BANK0 ] float 
;;  sign            1   31[BANK0 ] unsigned char 
;;  exp             1   30[BANK0 ] unsigned char 
;;  cntr            1   26[BANK0 ] unsigned char 
;; Return value:  Size  Location     Type
;;                  3   16[BANK0 ] float 
;; Registers used:
;;		wreg, status,2, status,0, pclath, cstack
;; Tracked objects:
;;		On entry : 0/0
;;		On exit  : 0/0
;;		Unchanged: 0/0
;; Data sizes:     COMMON   BANK0   BANK1   BANK3   BANK2
;;      Params:         0       6       0       0       0
;;      Locals:         0       6       0       0       0
;;      Temps:          0       4       0       0       0
;;      Totals:         0      16       0       0       0
;;Total ram usage:       16 bytes
;; Hardware stack levels used:    1
;; Hardware stack levels required when called:    1
;; This function calls:
;;		___ftpack
;; This function is called by:
;;		_trapmf
;;		_Fuzzy
;;		_trimf
;; This function uses a non-reentrant model
;;
psect	text26,local,class=CODE,delta=2,merge=1
	file	"C:\Program Files (x86)\Microchip\xc8\v1.33\sources\pic\ftdiv.c"
	line	49
global __ptext26
__ptext26:	;psect for function ___ftdiv
psect	text26
	file	"C:\Program Files (x86)\Microchip\xc8\v1.33\sources\pic\ftdiv.c"
	line	49
	global	__size_of___ftdiv
	__size_of___ftdiv	equ	__end_of___ftdiv-___ftdiv
	
___ftdiv:	
;incstack = 0
	opt	stack 1
; Regs used in ___ftdiv: [wreg+status,2+status,0+pclath+cstack]
	line	55
	
i1l2207:	
	bcf	status, 5	;RP0=0, select bank0
	bcf	status, 6	;RP1=0, select bank0
	movf	(___ftdiv@f1),w
	movwf	((??___ftdiv+0)+0)
	movf	(___ftdiv@f1+1),w
	movwf	((??___ftdiv+0)+0+1)
	movf	(___ftdiv@f1+2),w
	movwf	((??___ftdiv+0)+0+2)
	clrc
	rlf	(??___ftdiv+0)+1,w
	rlf	(??___ftdiv+0)+2,w
	movwf	(??___ftdiv+3)+0
	movf	(??___ftdiv+3)+0,w
	movwf	(___ftdiv@exp)
	movf	((___ftdiv@exp)),f
	skipz
	goto	u231_21
	goto	u231_20
u231_21:
	goto	i1l2213
u231_20:
	line	56
	
i1l2209:	
	movlw	0x0
	movwf	(?___ftdiv)
	movlw	0x0
	movwf	(?___ftdiv+1)
	movlw	0x0
	movwf	(?___ftdiv+2)
	goto	i1l775
	
i1l2211:	
	goto	i1l775
	
i1l774:	
	line	57
	
i1l2213:	
	movf	(___ftdiv@f2),w
	movwf	((??___ftdiv+0)+0)
	movf	(___ftdiv@f2+1),w
	movwf	((??___ftdiv+0)+0+1)
	movf	(___ftdiv@f2+2),w
	movwf	((??___ftdiv+0)+0+2)
	clrc
	rlf	(??___ftdiv+0)+1,w
	rlf	(??___ftdiv+0)+2,w
	movwf	(??___ftdiv+3)+0
	movf	(??___ftdiv+3)+0,w
	movwf	(___ftdiv@sign)
	movf	((___ftdiv@sign)),f
	skipz
	goto	u232_21
	goto	u232_20
u232_21:
	goto	i1l2219
u232_20:
	line	58
	
i1l2215:	
	movlw	0x0
	movwf	(?___ftdiv)
	movlw	0x0
	movwf	(?___ftdiv+1)
	movlw	0x0
	movwf	(?___ftdiv+2)
	goto	i1l775
	
i1l2217:	
	goto	i1l775
	
i1l776:	
	line	59
	
i1l2219:	
	movlw	0
	movwf	(___ftdiv@f3)
	movlw	0
	movwf	(___ftdiv@f3+1)
	movlw	0
	movwf	(___ftdiv@f3+2)
	line	60
	
i1l2221:	
	movlw	(089h)
	addwf	(___ftdiv@sign),w
	movwf	(??___ftdiv+0)+0
	movf	0+(??___ftdiv+0)+0,w
	subwf	(___ftdiv@exp),f
	line	61
	
i1l2223:	
	movf	(___ftdiv@f1),w
	movwf	((??___ftdiv+0)+0)
	movf	(___ftdiv@f1+1),w
	movwf	((??___ftdiv+0)+0+1)
	movf	(___ftdiv@f1+2),w
	movwf	((??___ftdiv+0)+0+2)
	movlw	010h
u233_25:
	clrc
	rrf	(??___ftdiv+0)+2,f
	rrf	(??___ftdiv+0)+1,f
	rrf	(??___ftdiv+0)+0,f
u233_20:
	addlw	-1
	skipz
	goto	u233_25
	movf	0+(??___ftdiv+0)+0,w
	movwf	(??___ftdiv+3)+0
	movf	(??___ftdiv+3)+0,w
	movwf	(___ftdiv@sign)
	line	62
	
i1l2225:	
	movf	(___ftdiv@f2),w
	movwf	((??___ftdiv+0)+0)
	movf	(___ftdiv@f2+1),w
	movwf	((??___ftdiv+0)+0+1)
	movf	(___ftdiv@f2+2),w
	movwf	((??___ftdiv+0)+0+2)
	movlw	010h
u234_25:
	clrc
	rrf	(??___ftdiv+0)+2,f
	rrf	(??___ftdiv+0)+1,f
	rrf	(??___ftdiv+0)+0,f
u234_20:
	addlw	-1
	skipz
	goto	u234_25
	movf	0+(??___ftdiv+0)+0,w
	movwf	(??___ftdiv+3)+0
	movf	(??___ftdiv+3)+0,w
	xorwf	(___ftdiv@sign),f
	line	63
	
i1l2227:	
	movlw	(080h)
	movwf	(??___ftdiv+0)+0
	movf	(??___ftdiv+0)+0,w
	andwf	(___ftdiv@sign),f
	line	64
	
i1l2229:	
	bsf	(___ftdiv@f1)+(15/8),(15)&7
	line	65
	movlw	0FFh
	andwf	(___ftdiv@f1),f
	movlw	0FFh
	andwf	(___ftdiv@f1+1),f
	movlw	0
	andwf	(___ftdiv@f1+2),f
	line	66
	
i1l2231:	
	bsf	(___ftdiv@f2)+(15/8),(15)&7
	line	67
	movlw	0FFh
	andwf	(___ftdiv@f2),f
	movlw	0FFh
	andwf	(___ftdiv@f2+1),f
	movlw	0
	andwf	(___ftdiv@f2+2),f
	line	68
	movlw	(018h)
	movwf	(??___ftdiv+0)+0
	movf	(??___ftdiv+0)+0,w
	movwf	(___ftdiv@cntr)
	goto	i1l2233
	line	69
	
i1l777:	
	line	70
	
i1l2233:	
	movlw	01h
u235_25:
	clrc
	rlf	(___ftdiv@f3),f
	rlf	(___ftdiv@f3+1),f
	rlf	(___ftdiv@f3+2),f
	addlw	-1
	skipz
	goto	u235_25
	line	71
	
i1l2235:	
	movf	(___ftdiv@f2+2),w
	subwf	(___ftdiv@f1+2),w
	skipz
	goto	u236_25
	movf	(___ftdiv@f2+1),w
	subwf	(___ftdiv@f1+1),w
	skipz
	goto	u236_25
	movf	(___ftdiv@f2),w
	subwf	(___ftdiv@f1),w
u236_25:
	skipc
	goto	u236_21
	goto	u236_20
u236_21:
	goto	i1l2241
u236_20:
	line	72
	
i1l2237:	
	movf	(___ftdiv@f2),w
	subwf	(___ftdiv@f1),f
	movf	(___ftdiv@f2+1),w
	skipc
	incfsz	(___ftdiv@f2+1),w
	subwf	(___ftdiv@f1+1),f
	movf	(___ftdiv@f2+2),w
	skipc
	incf	(___ftdiv@f2+2),w
	subwf	(___ftdiv@f1+2),f
	line	73
	
i1l2239:	
	bsf	(___ftdiv@f3)+(0/8),(0)&7
	goto	i1l2241
	line	74
	
i1l778:	
	line	75
	
i1l2241:	
	movlw	01h
u237_25:
	clrc
	rlf	(___ftdiv@f1),f
	rlf	(___ftdiv@f1+1),f
	rlf	(___ftdiv@f1+2),f
	addlw	-1
	skipz
	goto	u237_25
	line	76
	
i1l2243:	
	movlw	low(01h)
	subwf	(___ftdiv@cntr),f
	btfss	status,2
	goto	u238_21
	goto	u238_20
u238_21:
	goto	i1l2233
u238_20:
	goto	i1l2245
	
i1l779:	
	line	77
	
i1l2245:	
	movf	(___ftdiv@f3),w
	movwf	(___ftpack@arg)
	movf	(___ftdiv@f3+1),w
	movwf	(___ftpack@arg+1)
	movf	(___ftdiv@f3+2),w
	movwf	(___ftpack@arg+2)
	movf	(___ftdiv@exp),w
	movwf	(??___ftdiv+0)+0
	movf	(??___ftdiv+0)+0,w
	movwf	(___ftpack@exp)
	movf	(___ftdiv@sign),w
	movwf	(??___ftdiv+1)+0
	movf	(??___ftdiv+1)+0,w
	movwf	(___ftpack@sign)
	fcall	___ftpack
	movf	(0+(?___ftpack)),w
	bcf	status, 5	;RP0=0, select bank0
	bcf	status, 6	;RP1=0, select bank0
	movwf	(?___ftdiv)
	movf	(1+(?___ftpack)),w
	movwf	(?___ftdiv+1)
	movf	(2+(?___ftpack)),w
	movwf	(?___ftdiv+2)
	goto	i1l775
	
i1l2247:	
	line	78
	
i1l775:	
	return
	opt stack 0
GLOBAL	__end_of___ftdiv
	__end_of___ftdiv:
	signat	___ftdiv,8315
	global	___ftadd

;; *************** function ___ftadd *****************
;; Defined at:
;;		line 86 in file "C:\Program Files (x86)\Microchip\xc8\v1.33\sources\common\ftadd.c"
;; Parameters:    Size  Location     Type
;;  f1              3    3[BANK0 ] float 
;;  f2              3    6[BANK0 ] float 
;; Auto vars:     Size  Location     Type
;;  exp1            1   15[BANK0 ] unsigned char 
;;  exp2            1   14[BANK0 ] unsigned char 
;;  sign            1   13[BANK0 ] unsigned char 
;; Return value:  Size  Location     Type
;;                  3    3[BANK0 ] float 
;; Registers used:
;;		wreg, status,2, status,0, pclath, cstack
;; Tracked objects:
;;		On entry : 0/0
;;		On exit  : 0/0
;;		Unchanged: 0/0
;; Data sizes:     COMMON   BANK0   BANK1   BANK3   BANK2
;;      Params:         0       6       0       0       0
;;      Locals:         0       3       0       0       0
;;      Temps:          0       4       0       0       0
;;      Totals:         0      13       0       0       0
;;Total ram usage:       13 bytes
;; Hardware stack levels used:    1
;; Hardware stack levels required when called:    1
;; This function calls:
;;		___ftpack
;; This function is called by:
;;		_trapmf
;;		_Fuzzy
;;		_trimf
;; This function uses a non-reentrant model
;;
psect	text27,local,class=CODE,delta=2,merge=1
	file	"C:\Program Files (x86)\Microchip\xc8\v1.33\sources\common\ftadd.c"
	line	86
global __ptext27
__ptext27:	;psect for function ___ftadd
psect	text27
	file	"C:\Program Files (x86)\Microchip\xc8\v1.33\sources\common\ftadd.c"
	line	86
	global	__size_of___ftadd
	__size_of___ftadd	equ	__end_of___ftadd-___ftadd
	
___ftadd:	
;incstack = 0
	opt	stack 1
; Regs used in ___ftadd: [wreg+status,2+status,0+pclath+cstack]
	line	90
	
i1l3737:	
	bcf	status, 5	;RP0=0, select bank0
	bcf	status, 6	;RP1=0, select bank0
	movf	(___ftadd@f1),w
	movwf	((??___ftadd+0)+0)
	movf	(___ftadd@f1+1),w
	movwf	((??___ftadd+0)+0+1)
	movf	(___ftadd@f1+2),w
	movwf	((??___ftadd+0)+0+2)
	clrc
	rlf	(??___ftadd+0)+1,w
	rlf	(??___ftadd+0)+2,w
	movwf	(??___ftadd+3)+0
	movf	(??___ftadd+3)+0,w
	movwf	(___ftadd@exp1)
	line	91
	movf	(___ftadd@f2),w
	movwf	((??___ftadd+0)+0)
	movf	(___ftadd@f2+1),w
	movwf	((??___ftadd+0)+0+1)
	movf	(___ftadd@f2+2),w
	movwf	((??___ftadd+0)+0+2)
	clrc
	rlf	(??___ftadd+0)+1,w
	rlf	(??___ftadd+0)+2,w
	movwf	(??___ftadd+3)+0
	movf	(??___ftadd+3)+0,w
	movwf	(___ftadd@exp2)
	line	92
	
i1l3739:	
	movf	(___ftadd@exp1),w
	skipz
	goto	u487_20
	goto	i1l3745
u487_20:
	
i1l3741:	
	movf	(___ftadd@exp2),w
	subwf	(___ftadd@exp1),w
	skipnc
	goto	u488_21
	goto	u488_20
u488_21:
	goto	i1l3749
u488_20:
	
i1l3743:	
	decf	(___ftadd@exp1),w
	xorlw	0ffh
	addwf	(___ftadd@exp2),w
	movwf	(??___ftadd+0)+0
	movlw	(019h)
	subwf	0+(??___ftadd+0)+0,w
	skipc
	goto	u489_21
	goto	u489_20
u489_21:
	goto	i1l3749
u489_20:
	goto	i1l3745
	
i1l743:	
	line	93
	
i1l3745:	
	movf	(___ftadd@f2),w
	movwf	(?___ftadd)
	movf	(___ftadd@f2+1),w
	movwf	(?___ftadd+1)
	movf	(___ftadd@f2+2),w
	movwf	(?___ftadd+2)
	goto	i1l744
	
i1l3747:	
	goto	i1l744
	
i1l741:	
	line	94
	
i1l3749:	
	movf	(___ftadd@exp2),w
	skipz
	goto	u490_20
	goto	i1l747
u490_20:
	
i1l3751:	
	movf	(___ftadd@exp1),w
	subwf	(___ftadd@exp2),w
	skipnc
	goto	u491_21
	goto	u491_20
u491_21:
	goto	i1l3755
u491_20:
	
i1l3753:	
	decf	(___ftadd@exp2),w
	xorlw	0ffh
	addwf	(___ftadd@exp1),w
	movwf	(??___ftadd+0)+0
	movlw	(019h)
	subwf	0+(??___ftadd+0)+0,w
	skipc
	goto	u492_21
	goto	u492_20
u492_21:
	goto	i1l3755
u492_20:
	
i1l747:	
	line	95
	goto	i1l744
	
i1l745:	
	line	96
	
i1l3755:	
	movlw	(06h)
	movwf	(??___ftadd+0)+0
	movf	(??___ftadd+0)+0,w
	movwf	(___ftadd@sign)
	line	97
	
i1l3757:	
	btfss	(___ftadd@f1+2),(23)&7
	goto	u493_21
	goto	u493_20
u493_21:
	goto	i1l748
u493_20:
	line	98
	
i1l3759:	
	bsf	(___ftadd@sign)+(7/8),(7)&7
	
i1l748:	
	line	99
	btfss	(___ftadd@f2+2),(23)&7
	goto	u494_21
	goto	u494_20
u494_21:
	goto	i1l749
u494_20:
	line	100
	
i1l3761:	
	bsf	(___ftadd@sign)+(6/8),(6)&7
	
i1l749:	
	line	101
	bsf	(___ftadd@f1)+(15/8),(15)&7
	line	102
	
i1l3763:	
	movlw	0FFh
	andwf	(___ftadd@f1),f
	movlw	0FFh
	andwf	(___ftadd@f1+1),f
	movlw	0
	andwf	(___ftadd@f1+2),f
	line	103
	
i1l3765:	
	bsf	(___ftadd@f2)+(15/8),(15)&7
	line	104
	movlw	0FFh
	andwf	(___ftadd@f2),f
	movlw	0FFh
	andwf	(___ftadd@f2+1),f
	movlw	0
	andwf	(___ftadd@f2+2),f
	line	106
	movf	(___ftadd@exp2),w
	subwf	(___ftadd@exp1),w
	skipnc
	goto	u495_21
	goto	u495_20
u495_21:
	goto	i1l3777
u495_20:
	goto	i1l3767
	line	109
	
i1l751:	
	line	110
	
i1l3767:	
	movlw	01h
u496_25:
	clrc
	rlf	(___ftadd@f2),f
	rlf	(___ftadd@f2+1),f
	rlf	(___ftadd@f2+2),f
	addlw	-1
	skipz
	goto	u496_25
	line	111
	movlw	low(01h)
	subwf	(___ftadd@exp2),f
	line	112
	
i1l3769:	
	movf	(___ftadd@exp2),w
	xorwf	(___ftadd@exp1),w
	skipnz
	goto	u497_21
	goto	u497_20
u497_21:
	goto	i1l3775
u497_20:
	
i1l3771:	
	movlw	low(01h)
	subwf	(___ftadd@sign),f
	movf	((___ftadd@sign)),w
	andlw	07h
	btfss	status,2
	goto	u498_21
	goto	u498_20
u498_21:
	goto	i1l3767
u498_20:
	goto	i1l3775
	
i1l753:	
	goto	i1l3775
	
i1l754:	
	line	113
	goto	i1l3775
	
i1l756:	
	line	114
	
i1l3773:	
	movlw	01h
u499_25:
	clrc
	rrf	(___ftadd@f1+2),f
	rrf	(___ftadd@f1+1),f
	rrf	(___ftadd@f1),f
	addlw	-1
	skipz
	goto	u499_25

	line	115
	movlw	(01h)
	movwf	(??___ftadd+0)+0
	movf	(??___ftadd+0)+0,w
	addwf	(___ftadd@exp1),f
	goto	i1l3775
	line	116
	
i1l755:	
	line	113
	
i1l3775:	
	movf	(___ftadd@exp1),w
	xorwf	(___ftadd@exp2),w
	skipz
	goto	u500_21
	goto	u500_20
u500_21:
	goto	i1l3773
u500_20:
	goto	i1l758
	
i1l757:	
	line	117
	goto	i1l758
	
i1l750:	
	
i1l3777:	
	movf	(___ftadd@exp1),w
	subwf	(___ftadd@exp2),w
	skipnc
	goto	u501_21
	goto	u501_20
u501_21:
	goto	i1l758
u501_20:
	goto	i1l3779
	line	120
	
i1l760:	
	line	121
	
i1l3779:	
	movlw	01h
u502_25:
	clrc
	rlf	(___ftadd@f1),f
	rlf	(___ftadd@f1+1),f
	rlf	(___ftadd@f1+2),f
	addlw	-1
	skipz
	goto	u502_25
	line	122
	movlw	low(01h)
	subwf	(___ftadd@exp1),f
	line	123
	
i1l3781:	
	movf	(___ftadd@exp2),w
	xorwf	(___ftadd@exp1),w
	skipnz
	goto	u503_21
	goto	u503_20
u503_21:
	goto	i1l3787
u503_20:
	
i1l3783:	
	movlw	low(01h)
	subwf	(___ftadd@sign),f
	movf	((___ftadd@sign)),w
	andlw	07h
	btfss	status,2
	goto	u504_21
	goto	u504_20
u504_21:
	goto	i1l3779
u504_20:
	goto	i1l3787
	
i1l762:	
	goto	i1l3787
	
i1l763:	
	line	124
	goto	i1l3787
	
i1l765:	
	line	125
	
i1l3785:	
	movlw	01h
u505_25:
	clrc
	rrf	(___ftadd@f2+2),f
	rrf	(___ftadd@f2+1),f
	rrf	(___ftadd@f2),f
	addlw	-1
	skipz
	goto	u505_25

	line	126
	movlw	(01h)
	movwf	(??___ftadd+0)+0
	movf	(??___ftadd+0)+0,w
	addwf	(___ftadd@exp2),f
	goto	i1l3787
	line	127
	
i1l764:	
	line	124
	
i1l3787:	
	movf	(___ftadd@exp1),w
	xorwf	(___ftadd@exp2),w
	skipz
	goto	u506_21
	goto	u506_20
u506_21:
	goto	i1l3785
u506_20:
	goto	i1l758
	
i1l766:	
	goto	i1l758
	line	128
	
i1l759:	
	line	129
	
i1l758:	
	btfss	(___ftadd@sign),(7)&7
	goto	u507_21
	goto	u507_20
u507_21:
	goto	i1l3791
u507_20:
	line	131
	
i1l3789:	
	movlw	0FFh
	xorwf	(___ftadd@f1),f
	movlw	0FFh
	xorwf	(___ftadd@f1+1),f
	movlw	0FFh
	xorwf	(___ftadd@f1+2),f
	line	132
	movlw	01h
	addwf	(___ftadd@f1),f
	movlw	0
	skipnc
movlw 1
	addwf	(___ftadd@f1+1),f
	movlw	0
	skipnc
movlw 1
	addwf	(___ftadd@f1+2),f
	goto	i1l3791
	line	133
	
i1l767:	
	line	134
	
i1l3791:	
	btfss	(___ftadd@sign),(6)&7
	goto	u508_21
	goto	u508_20
u508_21:
	goto	i1l3795
u508_20:
	line	136
	
i1l3793:	
	movlw	0FFh
	xorwf	(___ftadd@f2),f
	movlw	0FFh
	xorwf	(___ftadd@f2+1),f
	movlw	0FFh
	xorwf	(___ftadd@f2+2),f
	line	137
	movlw	01h
	addwf	(___ftadd@f2),f
	movlw	0
	skipnc
movlw 1
	addwf	(___ftadd@f2+1),f
	movlw	0
	skipnc
movlw 1
	addwf	(___ftadd@f2+2),f
	goto	i1l3795
	line	138
	
i1l768:	
	line	139
	
i1l3795:	
	clrf	(___ftadd@sign)
	line	140
	
i1l3797:	
	movf	(___ftadd@f1),w
	addwf	(___ftadd@f2),f
	movf	(___ftadd@f1+1),w
	clrz
	skipnc
	incf	(___ftadd@f1+1),w
	skipnz
	goto	u509_21
	addwf	(___ftadd@f2+1),f
u509_21:
	movf	(___ftadd@f1+2),w
	clrz
	skipnc
	incf	(___ftadd@f1+2),w
	skipnz
	goto	u509_22
	addwf	(___ftadd@f2+2),f
u509_22:

	line	141
	
i1l3799:	
	btfss	(___ftadd@f2+2),(23)&7
	goto	u510_21
	goto	u510_20
u510_21:
	goto	i1l3805
u510_20:
	line	142
	
i1l3801:	
	movlw	0FFh
	xorwf	(___ftadd@f2),f
	movlw	0FFh
	xorwf	(___ftadd@f2+1),f
	movlw	0FFh
	xorwf	(___ftadd@f2+2),f
	line	143
	movlw	01h
	addwf	(___ftadd@f2),f
	movlw	0
	skipnc
movlw 1
	addwf	(___ftadd@f2+1),f
	movlw	0
	skipnc
movlw 1
	addwf	(___ftadd@f2+2),f
	line	144
	
i1l3803:	
	clrf	(___ftadd@sign)
	incf	(___ftadd@sign),f
	goto	i1l3805
	line	145
	
i1l769:	
	line	146
	
i1l3805:	
	movf	(___ftadd@f2),w
	movwf	(___ftpack@arg)
	movf	(___ftadd@f2+1),w
	movwf	(___ftpack@arg+1)
	movf	(___ftadd@f2+2),w
	movwf	(___ftpack@arg+2)
	movf	(___ftadd@exp1),w
	movwf	(??___ftadd+0)+0
	movf	(??___ftadd+0)+0,w
	movwf	(___ftpack@exp)
	movf	(___ftadd@sign),w
	movwf	(??___ftadd+1)+0
	movf	(??___ftadd+1)+0,w
	movwf	(___ftpack@sign)
	fcall	___ftpack
	movf	(0+(?___ftpack)),w
	bcf	status, 5	;RP0=0, select bank0
	bcf	status, 6	;RP1=0, select bank0
	movwf	(?___ftadd)
	movf	(1+(?___ftpack)),w
	movwf	(?___ftadd+1)
	movf	(2+(?___ftpack)),w
	movwf	(?___ftadd+2)
	goto	i1l744
	
i1l3807:	
	line	148
	
i1l744:	
	return
	opt stack 0
GLOBAL	__end_of___ftadd
	__end_of___ftadd:
	signat	___ftadd,8315
	global	_minimo

;; *************** function _minimo *****************
;; Defined at:
;;		line 113 in file "R:\Note\Sistema I\Ultimo C no MPLAB\main.c"
;; Parameters:    Size  Location     Type
;;  a               3    0[BANK0 ] float 
;;  b               3    3[BANK0 ] float 
;; Auto vars:     Size  Location     Type
;;		None
;; Return value:  Size  Location     Type
;;                  3    0[BANK0 ] float 
;; Registers used:
;;		wreg, status,2, status,0, pclath, cstack
;; Tracked objects:
;;		On entry : 0/0
;;		On exit  : 0/0
;;		Unchanged: 0/0
;; Data sizes:     COMMON   BANK0   BANK1   BANK3   BANK2
;;      Params:         0       6       0       0       0
;;      Locals:         0       0       0       0       0
;;      Temps:          0       0       0       0       0
;;      Totals:         0       6       0       0       0
;;Total ram usage:        6 bytes
;; Hardware stack levels used:    1
;; Hardware stack levels required when called:    1
;; This function calls:
;;		___ftge
;; This function is called by:
;;		_Fuzzy
;; This function uses a non-reentrant model
;;
psect	text28,local,class=CODE,delta=2,merge=1
	file	"R:\Note\Sistema I\Ultimo C no MPLAB\main.c"
	line	113
global __ptext28
__ptext28:	;psect for function _minimo
psect	text28
	file	"R:\Note\Sistema I\Ultimo C no MPLAB\main.c"
	line	113
	global	__size_of_minimo
	__size_of_minimo	equ	__end_of_minimo-_minimo
	
_minimo:	
;incstack = 0
	opt	stack 2
; Regs used in _minimo: [wreg+status,2+status,0+pclath+cstack]
	line	114
	
i1l2315:	
;main.c: 114: if (a < b) {
	bcf	status, 5	;RP0=0, select bank0
	bcf	status, 6	;RP1=0, select bank0
	movf	(minimo@a),w
	movwf	(___ftge@ff1)
	movf	(minimo@a+1),w
	movwf	(___ftge@ff1+1)
	movf	(minimo@a+2),w
	movwf	(___ftge@ff1+2)
	movf	(minimo@b),w
	movwf	(___ftge@ff2)
	movf	(minimo@b+1),w
	movwf	(___ftge@ff2+1)
	movf	(minimo@b+2),w
	movwf	(___ftge@ff2+2)
	fcall	___ftge
	btfsc	status,0
	goto	u254_21
	goto	u254_20
u254_21:
	goto	i1l2319
u254_20:
	line	115
	
i1l2317:	
;main.c: 115: return a;
	goto	i1l146
	line	116
	
i1l145:	
	line	117
	
i1l2319:	
;main.c: 116: }
;main.c: 117: return b;
	bcf	status, 5	;RP0=0, select bank0
	bcf	status, 6	;RP1=0, select bank0
	movf	(minimo@b),w
	movwf	(?_minimo)
	movf	(minimo@b+1),w
	movwf	(?_minimo+1)
	movf	(minimo@b+2),w
	movwf	(?_minimo+2)
	goto	i1l146
	
i1l2321:	
	line	118
	
i1l146:	
	return
	opt stack 0
GLOBAL	__end_of_minimo
	__end_of_minimo:
	signat	_minimo,8315
	global	_maximo

;; *************** function _maximo *****************
;; Defined at:
;;		line 106 in file "R:\Note\Sistema I\Ultimo C no MPLAB\main.c"
;; Parameters:    Size  Location     Type
;;  a               3    6[BANK0 ] float 
;;  b               3    9[BANK0 ] float 
;; Auto vars:     Size  Location     Type
;;		None
;; Return value:  Size  Location     Type
;;                  3    6[BANK0 ] float 
;; Registers used:
;;		wreg, status,2, status,0, pclath, cstack
;; Tracked objects:
;;		On entry : 0/0
;;		On exit  : 0/0
;;		Unchanged: 0/0
;; Data sizes:     COMMON   BANK0   BANK1   BANK3   BANK2
;;      Params:         0       6       0       0       0
;;      Locals:         0       0       0       0       0
;;      Temps:          0       0       0       0       0
;;      Totals:         0       6       0       0       0
;;Total ram usage:        6 bytes
;; Hardware stack levels used:    1
;; Hardware stack levels required when called:    1
;; This function calls:
;;		___ftge
;; This function is called by:
;;		_Fuzzy
;; This function uses a non-reentrant model
;;
psect	text29,local,class=CODE,delta=2,merge=1
	line	106
global __ptext29
__ptext29:	;psect for function _maximo
psect	text29
	file	"R:\Note\Sistema I\Ultimo C no MPLAB\main.c"
	line	106
	global	__size_of_maximo
	__size_of_maximo	equ	__end_of_maximo-_maximo
	
_maximo:	
;incstack = 0
	opt	stack 2
; Regs used in _maximo: [wreg+status,2+status,0+pclath+cstack]
	line	107
	
i1l2307:	
;main.c: 107: if (a > b) {
	bcf	status, 5	;RP0=0, select bank0
	bcf	status, 6	;RP1=0, select bank0
	movf	(maximo@b),w
	movwf	(___ftge@ff1)
	movf	(maximo@b+1),w
	movwf	(___ftge@ff1+1)
	movf	(maximo@b+2),w
	movwf	(___ftge@ff1+2)
	movf	(maximo@a),w
	movwf	(___ftge@ff2)
	movf	(maximo@a+1),w
	movwf	(___ftge@ff2+1)
	movf	(maximo@a+2),w
	movwf	(___ftge@ff2+2)
	fcall	___ftge
	btfsc	status,0
	goto	u253_21
	goto	u253_20
u253_21:
	goto	i1l2311
u253_20:
	line	108
	
i1l2309:	
;main.c: 108: return a;
	goto	i1l142
	line	109
	
i1l141:	
	line	110
	
i1l2311:	
;main.c: 109: }
;main.c: 110: return b;
	bcf	status, 5	;RP0=0, select bank0
	bcf	status, 6	;RP1=0, select bank0
	movf	(maximo@b),w
	movwf	(?_maximo)
	movf	(maximo@b+1),w
	movwf	(?_maximo+1)
	movf	(maximo@b+2),w
	movwf	(?_maximo+2)
	goto	i1l142
	
i1l2313:	
	line	111
	
i1l142:	
	return
	opt stack 0
GLOBAL	__end_of_maximo
	__end_of_maximo:
	signat	_maximo,8315
	global	___ftge

;; *************** function ___ftge *****************
;; Defined at:
;;		line 4 in file "C:\Program Files (x86)\Microchip\xc8\v1.33\sources\common\ftge.c"
;; Parameters:    Size  Location     Type
;;  ff1             3    0[COMMON] float 
;;  ff2             3    3[COMMON] float 
;; Auto vars:     Size  Location     Type
;;		None
;; Return value:  Size  Location     Type
;;		None               void
;; Registers used:
;;		wreg, status,2, status,0
;; Tracked objects:
;;		On entry : 0/0
;;		On exit  : 0/0
;;		Unchanged: 0/0
;; Data sizes:     COMMON   BANK0   BANK1   BANK3   BANK2
;;      Params:         6       0       0       0       0
;;      Locals:         0       0       0       0       0
;;      Temps:          6       0       0       0       0
;;      Totals:        12       0       0       0       0
;;Total ram usage:       12 bytes
;; Hardware stack levels used:    1
;; This function calls:
;;		Nothing
;; This function is called by:
;;		_trapmf
;;		_maximo
;;		_minimo
;;		_Fuzzy
;;		_trimf
;;		_min_val
;;		_max_val
;; This function uses a non-reentrant model
;;
psect	text30,local,class=CODE,delta=2,merge=1
	file	"C:\Program Files (x86)\Microchip\xc8\v1.33\sources\common\ftge.c"
	line	4
global __ptext30
__ptext30:	;psect for function ___ftge
psect	text30
	file	"C:\Program Files (x86)\Microchip\xc8\v1.33\sources\common\ftge.c"
	line	4
	global	__size_of___ftge
	__size_of___ftge	equ	__end_of___ftge-___ftge
	
___ftge:	
;incstack = 0
	opt	stack 2
; Regs used in ___ftge: [wreg+status,2+status,0]
	line	6
	
i1l2249:	
	btfss	(___ftge@ff1+2),(23)&7
	goto	u239_21
	goto	u239_20
u239_21:
	goto	i1l2253
u239_20:
	line	7
	
i1l2251:	
	movlw	low(0800000h)
	movwf	((??___ftge+0)+0)
	movlw	high(0800000h)
	movwf	((??___ftge+0)+0+1)
	movlw	low highword(0800000h)
	movwf	((??___ftge+0)+0+2)
	comf	(___ftge@ff1),w
	movwf	(??___ftge+3)+0
	comf	(___ftge@ff1+1),w
	movwf	((??___ftge+3)+0+1)
	comf	(___ftge@ff1+2),w
	movwf	((??___ftge+3)+0+2)
	incf	(??___ftge+3)+0,f
	skipnz
	incf	((??___ftge+3)+0+1),f
	skipnz
	incf	((??___ftge+3)+0+2),f
	movf	0+(??___ftge+3)+0,w
	addwf	(??___ftge+0)+0,f
	movf	1+(??___ftge+3)+0,w
	skipnc
	incfsz	1+(??___ftge+3)+0,w
	goto	u240_21
	goto	u240_22
u240_21:
	addwf	(??___ftge+0)+1,f
	
u240_22:
	movf	2+(??___ftge+3)+0,w
	skipnc
	incfsz	2+(??___ftge+3)+0,w
	goto	u240_23
	goto	u240_24
u240_23:
	addwf	(??___ftge+0)+2,f
	
u240_24:
	movf	0+(??___ftge+0)+0,w
	movwf	(___ftge@ff1)
	movf	1+(??___ftge+0)+0,w
	movwf	(___ftge@ff1+1)
	movf	2+(??___ftge+0)+0,w
	movwf	(___ftge@ff1+2)
	goto	i1l2253
	
i1l782:	
	line	8
	
i1l2253:	
	btfss	(___ftge@ff2+2),(23)&7
	goto	u241_21
	goto	u241_20
u241_21:
	goto	i1l2257
u241_20:
	line	9
	
i1l2255:	
	movlw	low(0800000h)
	movwf	((??___ftge+0)+0)
	movlw	high(0800000h)
	movwf	((??___ftge+0)+0+1)
	movlw	low highword(0800000h)
	movwf	((??___ftge+0)+0+2)
	comf	(___ftge@ff2),w
	movwf	(??___ftge+3)+0
	comf	(___ftge@ff2+1),w
	movwf	((??___ftge+3)+0+1)
	comf	(___ftge@ff2+2),w
	movwf	((??___ftge+3)+0+2)
	incf	(??___ftge+3)+0,f
	skipnz
	incf	((??___ftge+3)+0+1),f
	skipnz
	incf	((??___ftge+3)+0+2),f
	movf	0+(??___ftge+3)+0,w
	addwf	(??___ftge+0)+0,f
	movf	1+(??___ftge+3)+0,w
	skipnc
	incfsz	1+(??___ftge+3)+0,w
	goto	u242_21
	goto	u242_22
u242_21:
	addwf	(??___ftge+0)+1,f
	
u242_22:
	movf	2+(??___ftge+3)+0,w
	skipnc
	incfsz	2+(??___ftge+3)+0,w
	goto	u242_23
	goto	u242_24
u242_23:
	addwf	(??___ftge+0)+2,f
	
u242_24:
	movf	0+(??___ftge+0)+0,w
	movwf	(___ftge@ff2)
	movf	1+(??___ftge+0)+0,w
	movwf	(___ftge@ff2+1)
	movf	2+(??___ftge+0)+0,w
	movwf	(___ftge@ff2+2)
	goto	i1l2257
	
i1l783:	
	line	10
	
i1l2257:	
	movlw	080h
	xorwf	(___ftge@ff1+2),f
	line	11
	
i1l2259:	
	movlw	080h
	xorwf	(___ftge@ff2+2),f
	line	12
	
i1l2261:	
	movf	(___ftge@ff2+2),w
	subwf	(___ftge@ff1+2),w
	skipz
	goto	u243_25
	movf	(___ftge@ff2+1),w
	subwf	(___ftge@ff1+1),w
	skipz
	goto	u243_25
	movf	(___ftge@ff2),w
	subwf	(___ftge@ff1),w
u243_25:
	skipnc
	goto	u243_21
	goto	u243_20
u243_21:
	goto	i1l2265
u243_20:
	
i1l2263:	
	clrc
	
	goto	i1l784
	
i1l2097:	
	
i1l2265:	
	setc
	
	goto	i1l784
	
i1l2099:	
	goto	i1l784
	
i1l2267:	
	line	13
	
i1l784:	
	return
	opt stack 0
GLOBAL	__end_of___ftge
	__end_of___ftge:
	signat	___ftge,8312
	global	_abs

;; *************** function _abs *****************
;; Defined at:
;;		line 4 in file "C:\Program Files (x86)\Microchip\xc8\v1.33\sources\common\abs.c"
;; Parameters:    Size  Location     Type
;;  a               2    0[COMMON] int 
;; Auto vars:     Size  Location     Type
;;		None
;; Return value:  Size  Location     Type
;;                  2    0[COMMON] int 
;; Registers used:
;;		wreg, status,2, status,0
;; Tracked objects:
;;		On entry : 0/0
;;		On exit  : 0/0
;;		Unchanged: 0/0
;; Data sizes:     COMMON   BANK0   BANK1   BANK3   BANK2
;;      Params:         2       0       0       0       0
;;      Locals:         0       0       0       0       0
;;      Temps:          2       0       0       0       0
;;      Totals:         4       0       0       0       0
;;Total ram usage:        4 bytes
;; Hardware stack levels used:    1
;; This function calls:
;;		Nothing
;; This function is called by:
;;		_Fuzzy
;; This function uses a non-reentrant model
;;
psect	text31,local,class=CODE,delta=2,merge=1
	file	"C:\Program Files (x86)\Microchip\xc8\v1.33\sources\common\abs.c"
	line	4
global __ptext31
__ptext31:	;psect for function _abs
psect	text31
	file	"C:\Program Files (x86)\Microchip\xc8\v1.33\sources\common\abs.c"
	line	4
	global	__size_of_abs
	__size_of_abs	equ	__end_of_abs-_abs
	
_abs:	
;incstack = 0
	opt	stack 3
; Regs used in _abs: [wreg+status,2+status,0]
	line	6
	
i1l2323:	
	btfss	(abs@a+1),7
	goto	u255_21
	goto	u255_20
u255_21:
	goto	i1l613
u255_20:
	line	7
	
i1l2325:	
	comf	(abs@a),w
	movwf	(??_abs+0)+0
	comf	(abs@a+1),w
	movwf	((??_abs+0)+0+1)
	incf	(??_abs+0)+0,f
	skipnz
	incf	((??_abs+0)+0+1),f
	movf	0+(??_abs+0)+0,w
	movwf	(?_abs)
	movf	1+(??_abs+0)+0,w
	movwf	(?_abs+1)
	goto	i1l614
	
i1l2327:	
	goto	i1l614
	
i1l613:	
	line	8
	line	9
	
i1l614:	
	return
	opt stack 0
GLOBAL	__end_of_abs
	__end_of_abs:
	signat	_abs,4218
	global	___wmul

;; *************** function ___wmul *****************
;; Defined at:
;;		line 15 in file "C:\Program Files (x86)\Microchip\xc8\v1.33\sources\common\Umul16.c"
;; Parameters:    Size  Location     Type
;;  multiplier      2   26[BANK0 ] unsigned int 
;;  multiplicand    2   28[BANK0 ] unsigned int 
;; Auto vars:     Size  Location     Type
;;  product         2   30[BANK0 ] unsigned int 
;; Return value:  Size  Location     Type
;;                  2   26[BANK0 ] unsigned int 
;; Registers used:
;;		wreg, status,2, status,0
;; Tracked objects:
;;		On entry : 0/0
;;		On exit  : 0/0
;;		Unchanged: 0/0
;; Data sizes:     COMMON   BANK0   BANK1   BANK3   BANK2
;;      Params:         0       4       0       0       0
;;      Locals:         0       2       0       0       0
;;      Temps:          0       0       0       0       0
;;      Totals:         0       6       0       0       0
;;Total ram usage:        6 bytes
;; Hardware stack levels used:    1
;; This function calls:
;;		Nothing
;; This function is called by:
;;		_Fuzzy
;;		_ISR
;; This function uses a non-reentrant model
;;
psect	text32,local,class=CODE,delta=2,merge=1
	file	"C:\Program Files (x86)\Microchip\xc8\v1.33\sources\common\Umul16.c"
	line	15
global __ptext32
__ptext32:	;psect for function ___wmul
psect	text32
	file	"C:\Program Files (x86)\Microchip\xc8\v1.33\sources\common\Umul16.c"
	line	15
	global	__size_of___wmul
	__size_of___wmul	equ	__end_of___wmul-___wmul
	
___wmul:	
;incstack = 0
	opt	stack 4
; Regs used in ___wmul: [wreg+status,2+status,0]
	line	43
	
i1l2353:	
	bcf	status, 5	;RP0=0, select bank0
	bcf	status, 6	;RP1=0, select bank0
	clrf	(___wmul@product)
	clrf	(___wmul@product+1)
	goto	i1l2355
	line	44
	
i1l563:	
	line	45
	
i1l2355:	
	btfss	(___wmul@multiplier),(0)&7
	goto	u257_21
	goto	u257_20
u257_21:
	goto	i1l564
u257_20:
	line	46
	
i1l2357:	
	movf	(___wmul@multiplicand),w
	addwf	(___wmul@product),f
	skipnc
	incf	(___wmul@product+1),f
	movf	(___wmul@multiplicand+1),w
	addwf	(___wmul@product+1),f
	
i1l564:	
	line	47
	movlw	01h
	
u258_25:
	clrc
	rlf	(___wmul@multiplicand),f
	rlf	(___wmul@multiplicand+1),f
	addlw	-1
	skipz
	goto	u258_25
	line	48
	
i1l2359:	
	movlw	01h
	
u259_25:
	clrc
	rrf	(___wmul@multiplier+1),f
	rrf	(___wmul@multiplier),f
	addlw	-1
	skipz
	goto	u259_25
	line	49
	movf	((___wmul@multiplier+1)),w
	iorwf	((___wmul@multiplier)),w
	skipz
	goto	u260_21
	goto	u260_20
u260_21:
	goto	i1l2355
u260_20:
	goto	i1l2361
	
i1l565:	
	line	52
	
i1l2361:	
	movf	(___wmul@product+1),w
	clrf	(?___wmul+1)
	addwf	(?___wmul+1)
	movf	(___wmul@product),w
	clrf	(?___wmul)
	addwf	(?___wmul)

	goto	i1l566
	
i1l2363:	
	line	53
	
i1l566:	
	return
	opt stack 0
GLOBAL	__end_of___wmul
	__end_of___wmul:
	signat	___wmul,8314
	global	___lwtoft

;; *************** function ___lwtoft *****************
;; Defined at:
;;		line 28 in file "C:\Program Files (x86)\Microchip\xc8\v1.33\sources\common\lwtoft.c"
;; Parameters:    Size  Location     Type
;;  c               2    8[COMMON] unsigned int 
;; Auto vars:     Size  Location     Type
;;		None
;; Return value:  Size  Location     Type
;;                  3    8[COMMON] float 
;; Registers used:
;;		wreg, status,2, status,0, pclath, cstack
;; Tracked objects:
;;		On entry : 0/0
;;		On exit  : 0/0
;;		Unchanged: 0/0
;; Data sizes:     COMMON   BANK0   BANK1   BANK3   BANK2
;;      Params:         3       0       0       0       0
;;      Locals:         0       0       0       0       0
;;      Temps:          1       0       0       0       0
;;      Totals:         4       0       0       0       0
;;Total ram usage:        4 bytes
;; Hardware stack levels used:    1
;; Hardware stack levels required when called:    1
;; This function calls:
;;		___ftpack
;; This function is called by:
;;		_Fuzzy
;; This function uses a non-reentrant model
;;
psect	text33,local,class=CODE,delta=2,merge=1
	file	"C:\Program Files (x86)\Microchip\xc8\v1.33\sources\common\lwtoft.c"
	line	28
global __ptext33
__ptext33:	;psect for function ___lwtoft
psect	text33
	file	"C:\Program Files (x86)\Microchip\xc8\v1.33\sources\common\lwtoft.c"
	line	28
	global	__size_of___lwtoft
	__size_of___lwtoft	equ	__end_of___lwtoft-___lwtoft
	
___lwtoft:	
;incstack = 0
	opt	stack 2
; Regs used in ___lwtoft: [wreg+status,2+status,0+pclath+cstack]
	line	30
	
i1l2511:	
	movf	(___lwtoft@c),w
	movwf	(___ftpack@arg)
	movf	(___lwtoft@c+1),w
	movwf	(___ftpack@arg+1)
	clrf	(___ftpack@arg+2)
	movlw	(08Eh)
	movwf	(??___lwtoft+0)+0
	movf	(??___lwtoft+0)+0,w
	movwf	(___ftpack@exp)
	clrf	(___ftpack@sign)
	fcall	___ftpack
	movf	(0+(?___ftpack)),w
	movwf	(?___lwtoft)
	movf	(1+(?___ftpack)),w
	movwf	(?___lwtoft+1)
	movf	(2+(?___ftpack)),w
	movwf	(?___lwtoft+2)
	goto	i1l919
	
i1l2513:	
	line	31
	
i1l919:	
	return
	opt stack 0
GLOBAL	__end_of___lwtoft
	__end_of___lwtoft:
	signat	___lwtoft,4219
	global	___fttol

;; *************** function ___fttol *****************
;; Defined at:
;;		line 44 in file "C:\Program Files (x86)\Microchip\xc8\v1.33\sources\common\fttol.c"
;; Parameters:    Size  Location     Type
;;  f1              3   12[BANK0 ] float 
;; Auto vars:     Size  Location     Type
;;  lval            4   21[BANK0 ] unsigned long 
;;  exp1            1   25[BANK0 ] unsigned char 
;;  sign1           1   20[BANK0 ] unsigned char 
;; Return value:  Size  Location     Type
;;                  4   12[BANK0 ] long 
;; Registers used:
;;		wreg, status,2, status,0
;; Tracked objects:
;;		On entry : 0/0
;;		On exit  : 0/0
;;		Unchanged: 0/0
;; Data sizes:     COMMON   BANK0   BANK1   BANK3   BANK2
;;      Params:         0       4       0       0       0
;;      Locals:         0       6       0       0       0
;;      Temps:          0       4       0       0       0
;;      Totals:         0      14       0       0       0
;;Total ram usage:       14 bytes
;; Hardware stack levels used:    1
;; This function calls:
;;		Nothing
;; This function is called by:
;;		_Fuzzy
;; This function uses a non-reentrant model
;;
psect	text34,local,class=CODE,delta=2,merge=1
	file	"C:\Program Files (x86)\Microchip\xc8\v1.33\sources\common\fttol.c"
	line	44
global __ptext34
__ptext34:	;psect for function ___fttol
psect	text34
	file	"C:\Program Files (x86)\Microchip\xc8\v1.33\sources\common\fttol.c"
	line	44
	global	__size_of___fttol
	__size_of___fttol	equ	__end_of___fttol-___fttol
	
___fttol:	
;incstack = 0
	opt	stack 3
; Regs used in ___fttol: [wreg+status,2+status,0]
	line	49
	
i1l2467:	
	bcf	status, 5	;RP0=0, select bank0
	bcf	status, 6	;RP1=0, select bank0
	movf	(___fttol@f1),w
	movwf	((??___fttol+0)+0)
	movf	(___fttol@f1+1),w
	movwf	((??___fttol+0)+0+1)
	movf	(___fttol@f1+2),w
	movwf	((??___fttol+0)+0+2)
	clrc
	rlf	(??___fttol+0)+1,w
	rlf	(??___fttol+0)+2,w
	movwf	(??___fttol+3)+0
	movf	(??___fttol+3)+0,w
	movwf	(___fttol@exp1)
	movf	((___fttol@exp1)),f
	skipz
	goto	u286_21
	goto	u286_20
u286_21:
	goto	i1l2473
u286_20:
	line	50
	
i1l2469:	
	movlw	0
	movwf	(?___fttol+3)
	movlw	0
	movwf	(?___fttol+2)
	movlw	0
	movwf	(?___fttol+1)
	movlw	0
	movwf	(?___fttol)

	goto	i1l810
	
i1l2471:	
	goto	i1l810
	
i1l809:	
	line	51
	
i1l2473:	
	movf	(___fttol@f1),w
	movwf	((??___fttol+0)+0)
	movf	(___fttol@f1+1),w
	movwf	((??___fttol+0)+0+1)
	movf	(___fttol@f1+2),w
	movwf	((??___fttol+0)+0+2)
	movlw	017h
u287_25:
	clrc
	rrf	(??___fttol+0)+2,f
	rrf	(??___fttol+0)+1,f
	rrf	(??___fttol+0)+0,f
u287_20:
	addlw	-1
	skipz
	goto	u287_25
	movf	0+(??___fttol+0)+0,w
	movwf	(??___fttol+3)+0
	movf	(??___fttol+3)+0,w
	movwf	(___fttol@sign1)
	line	52
	
i1l2475:	
	bsf	(___fttol@f1)+(15/8),(15)&7
	line	53
	
i1l2477:	
	movlw	0FFh
	andwf	(___fttol@f1),f
	movlw	0FFh
	andwf	(___fttol@f1+1),f
	movlw	0
	andwf	(___fttol@f1+2),f
	line	54
	
i1l2479:	
	movf	(___fttol@f1),w
	movwf	(___fttol@lval)
	movf	(___fttol@f1+1),w
	movwf	((___fttol@lval))+1
	movf	(___fttol@f1+2),w
	movwf	((___fttol@lval))+2
	clrf	((___fttol@lval))+3
	line	55
	
i1l2481:	
	movlw	low(08Eh)
	subwf	(___fttol@exp1),f
	line	56
	
i1l2483:	
	btfss	(___fttol@exp1),7
	goto	u288_21
	goto	u288_20
u288_21:
	goto	i1l2493
u288_20:
	line	57
	
i1l2485:	
	movf	(___fttol@exp1),w
	xorlw	80h
	addlw	-((-15)^80h)
	skipnc
	goto	u289_21
	goto	u289_20
u289_21:
	goto	i1l2491
u289_20:
	line	58
	
i1l2487:	
	movlw	0
	movwf	(?___fttol+3)
	movlw	0
	movwf	(?___fttol+2)
	movlw	0
	movwf	(?___fttol+1)
	movlw	0
	movwf	(?___fttol)

	goto	i1l810
	
i1l2489:	
	goto	i1l810
	
i1l812:	
	goto	i1l2491
	line	59
	
i1l813:	
	line	60
	
i1l2491:	
	movlw	01h
u290_25:
	clrc
	rrf	(___fttol@lval+3),f
	rrf	(___fttol@lval+2),f
	rrf	(___fttol@lval+1),f
	rrf	(___fttol@lval),f
	addlw	-1
	skipz
	goto	u290_25

	line	61
	movlw	(01h)
	movwf	(??___fttol+0)+0
	movf	(??___fttol+0)+0,w
	addwf	(___fttol@exp1),f
	btfss	status,2
	goto	u291_21
	goto	u291_20
u291_21:
	goto	i1l2491
u291_20:
	goto	i1l2503
	
i1l814:	
	line	62
	goto	i1l2503
	
i1l811:	
	line	63
	
i1l2493:	
	movlw	(018h)
	subwf	(___fttol@exp1),w
	skipc
	goto	u292_21
	goto	u292_20
u292_21:
	goto	i1l2501
u292_20:
	line	64
	
i1l2495:	
	movlw	0
	movwf	(?___fttol+3)
	movlw	0
	movwf	(?___fttol+2)
	movlw	0
	movwf	(?___fttol+1)
	movlw	0
	movwf	(?___fttol)

	goto	i1l810
	
i1l2497:	
	goto	i1l810
	
i1l816:	
	line	65
	goto	i1l2501
	
i1l818:	
	line	66
	
i1l2499:	
	movlw	01h
	movwf	(??___fttol+0)+0
u293_25:
	clrc
	rlf	(___fttol@lval),f
	rlf	(___fttol@lval+1),f
	rlf	(___fttol@lval+2),f
	rlf	(___fttol@lval+3),f
	decfsz	(??___fttol+0)+0
	goto	u293_25
	line	67
	movlw	low(01h)
	subwf	(___fttol@exp1),f
	goto	i1l2501
	line	68
	
i1l817:	
	line	65
	
i1l2501:	
	movf	(___fttol@exp1),f
	skipz
	goto	u294_21
	goto	u294_20
u294_21:
	goto	i1l2499
u294_20:
	goto	i1l2503
	
i1l819:	
	goto	i1l2503
	line	69
	
i1l815:	
	line	70
	
i1l2503:	
	movf	(___fttol@sign1),w
	skipz
	goto	u295_20
	goto	i1l2507
u295_20:
	line	71
	
i1l2505:	
	comf	(___fttol@lval),f
	comf	(___fttol@lval+1),f
	comf	(___fttol@lval+2),f
	comf	(___fttol@lval+3),f
	incf	(___fttol@lval),f
	skipnz
	incf	(___fttol@lval+1),f
	skipnz
	incf	(___fttol@lval+2),f
	skipnz
	incf	(___fttol@lval+3),f
	goto	i1l2507
	
i1l820:	
	line	72
	
i1l2507:	
	movf	(___fttol@lval+3),w
	movwf	(?___fttol+3)
	movf	(___fttol@lval+2),w
	movwf	(?___fttol+2)
	movf	(___fttol@lval+1),w
	movwf	(?___fttol+1)
	movf	(___fttol@lval),w
	movwf	(?___fttol)

	goto	i1l810
	
i1l2509:	
	line	73
	
i1l810:	
	return
	opt stack 0
GLOBAL	__end_of___fttol
	__end_of___fttol:
	signat	___fttol,4220
	global	___ftmul

;; *************** function ___ftmul *****************
;; Defined at:
;;		line 62 in file "C:\Program Files (x86)\Microchip\xc8\v1.33\sources\common\ftmul.c"
;; Parameters:    Size  Location     Type
;;  f1              3   50[BANK0 ] float 
;;  f2              3   53[BANK0 ] float 
;; Auto vars:     Size  Location     Type
;;  f3_as_produc    3   61[BANK0 ] unsigned um
;;  sign            1   65[BANK0 ] unsigned char 
;;  cntr            1   64[BANK0 ] unsigned char 
;;  exp             1   60[BANK0 ] unsigned char 
;; Return value:  Size  Location     Type
;;                  3   50[BANK0 ] float 
;; Registers used:
;;		wreg, status,2, status,0, pclath, cstack
;; Tracked objects:
;;		On entry : 0/0
;;		On exit  : 0/0
;;		Unchanged: 0/0
;; Data sizes:     COMMON   BANK0   BANK1   BANK3   BANK2
;;      Params:         0       6       0       0       0
;;      Locals:         0       6       0       0       0
;;      Temps:          0       4       0       0       0
;;      Totals:         0      16       0       0       0
;;Total ram usage:       16 bytes
;; Hardware stack levels used:    1
;; Hardware stack levels required when called:    1
;; This function calls:
;;		___ftpack
;; This function is called by:
;;		_Fuzzy
;; This function uses a non-reentrant model
;;
psect	text35,local,class=CODE,delta=2,merge=1
	file	"C:\Program Files (x86)\Microchip\xc8\v1.33\sources\common\ftmul.c"
	line	62
global __ptext35
__ptext35:	;psect for function ___ftmul
psect	text35
	file	"C:\Program Files (x86)\Microchip\xc8\v1.33\sources\common\ftmul.c"
	line	62
	global	__size_of___ftmul
	__size_of___ftmul	equ	__end_of___ftmul-___ftmul
	
___ftmul:	
;incstack = 0
	opt	stack 2
; Regs used in ___ftmul: [wreg+status,2+status,0+pclath+cstack]
	line	67
	
i1l2417:	
	bcf	status, 5	;RP0=0, select bank0
	bcf	status, 6	;RP1=0, select bank0
	movf	(___ftmul@f1),w
	movwf	((??___ftmul+0)+0)
	movf	(___ftmul@f1+1),w
	movwf	((??___ftmul+0)+0+1)
	movf	(___ftmul@f1+2),w
	movwf	((??___ftmul+0)+0+2)
	clrc
	rlf	(??___ftmul+0)+1,w
	rlf	(??___ftmul+0)+2,w
	movwf	(??___ftmul+3)+0
	movf	(??___ftmul+3)+0,w
	movwf	(___ftmul@exp)
	movf	((___ftmul@exp)),f
	skipz
	goto	u272_21
	goto	u272_20
u272_21:
	goto	i1l2423
u272_20:
	line	68
	
i1l2419:	
	movlw	0x0
	movwf	(?___ftmul)
	movlw	0x0
	movwf	(?___ftmul+1)
	movlw	0x0
	movwf	(?___ftmul+2)
	goto	i1l790
	
i1l2421:	
	goto	i1l790
	
i1l789:	
	line	69
	
i1l2423:	
	movf	(___ftmul@f2),w
	movwf	((??___ftmul+0)+0)
	movf	(___ftmul@f2+1),w
	movwf	((??___ftmul+0)+0+1)
	movf	(___ftmul@f2+2),w
	movwf	((??___ftmul+0)+0+2)
	clrc
	rlf	(??___ftmul+0)+1,w
	rlf	(??___ftmul+0)+2,w
	movwf	(??___ftmul+3)+0
	movf	(??___ftmul+3)+0,w
	movwf	(___ftmul@sign)
	movf	((___ftmul@sign)),f
	skipz
	goto	u273_21
	goto	u273_20
u273_21:
	goto	i1l2429
u273_20:
	line	70
	
i1l2425:	
	movlw	0x0
	movwf	(?___ftmul)
	movlw	0x0
	movwf	(?___ftmul+1)
	movlw	0x0
	movwf	(?___ftmul+2)
	goto	i1l790
	
i1l2427:	
	goto	i1l790
	
i1l791:	
	line	71
	
i1l2429:	
	movf	(___ftmul@sign),w
	addlw	07Bh
	movwf	(??___ftmul+0)+0
	movf	(??___ftmul+0)+0,w
	addwf	(___ftmul@exp),f
	line	72
	movf	(___ftmul@f1),w
	movwf	((??___ftmul+0)+0)
	movf	(___ftmul@f1+1),w
	movwf	((??___ftmul+0)+0+1)
	movf	(___ftmul@f1+2),w
	movwf	((??___ftmul+0)+0+2)
	movlw	010h
u274_25:
	clrc
	rrf	(??___ftmul+0)+2,f
	rrf	(??___ftmul+0)+1,f
	rrf	(??___ftmul+0)+0,f
u274_20:
	addlw	-1
	skipz
	goto	u274_25
	movf	0+(??___ftmul+0)+0,w
	movwf	(??___ftmul+3)+0
	movf	(??___ftmul+3)+0,w
	movwf	(___ftmul@sign)
	line	73
	movf	(___ftmul@f2),w
	movwf	((??___ftmul+0)+0)
	movf	(___ftmul@f2+1),w
	movwf	((??___ftmul+0)+0+1)
	movf	(___ftmul@f2+2),w
	movwf	((??___ftmul+0)+0+2)
	movlw	010h
u275_25:
	clrc
	rrf	(??___ftmul+0)+2,f
	rrf	(??___ftmul+0)+1,f
	rrf	(??___ftmul+0)+0,f
u275_20:
	addlw	-1
	skipz
	goto	u275_25
	movf	0+(??___ftmul+0)+0,w
	movwf	(??___ftmul+3)+0
	movf	(??___ftmul+3)+0,w
	xorwf	(___ftmul@sign),f
	line	74
	movlw	(080h)
	movwf	(??___ftmul+0)+0
	movf	(??___ftmul+0)+0,w
	andwf	(___ftmul@sign),f
	line	75
	
i1l2431:	
	bsf	(___ftmul@f1)+(15/8),(15)&7
	line	77
	
i1l2433:	
	bsf	(___ftmul@f2)+(15/8),(15)&7
	line	78
	
i1l2435:	
	movlw	0FFh
	andwf	(___ftmul@f2),f
	movlw	0FFh
	andwf	(___ftmul@f2+1),f
	movlw	0
	andwf	(___ftmul@f2+2),f
	line	79
	
i1l2437:	
	movlw	0
	movwf	(___ftmul@f3_as_product)
	movlw	0
	movwf	(___ftmul@f3_as_product+1)
	movlw	0
	movwf	(___ftmul@f3_as_product+2)
	line	134
	
i1l2439:	
	movlw	(07h)
	movwf	(??___ftmul+0)+0
	movf	(??___ftmul+0)+0,w
	movwf	(___ftmul@cntr)
	goto	i1l2441
	line	135
	
i1l792:	
	line	136
	
i1l2441:	
	btfss	(___ftmul@f1),(0)&7
	goto	u276_21
	goto	u276_20
u276_21:
	goto	i1l2445
u276_20:
	line	137
	
i1l2443:	
	movf	(___ftmul@f2),w
	addwf	(___ftmul@f3_as_product),f
	movf	(___ftmul@f2+1),w
	clrz
	skipnc
	incf	(___ftmul@f2+1),w
	skipnz
	goto	u277_21
	addwf	(___ftmul@f3_as_product+1),f
u277_21:
	movf	(___ftmul@f2+2),w
	clrz
	skipnc
	incf	(___ftmul@f2+2),w
	skipnz
	goto	u277_22
	addwf	(___ftmul@f3_as_product+2),f
u277_22:

	goto	i1l2445
	
i1l793:	
	line	138
	
i1l2445:	
	movlw	01h
u278_25:
	clrc
	rrf	(___ftmul@f1+2),f
	rrf	(___ftmul@f1+1),f
	rrf	(___ftmul@f1),f
	addlw	-1
	skipz
	goto	u278_25

	line	139
	
i1l2447:	
	movlw	01h
u279_25:
	clrc
	rlf	(___ftmul@f2),f
	rlf	(___ftmul@f2+1),f
	rlf	(___ftmul@f2+2),f
	addlw	-1
	skipz
	goto	u279_25
	line	140
	
i1l2449:	
	movlw	low(01h)
	subwf	(___ftmul@cntr),f
	btfss	status,2
	goto	u280_21
	goto	u280_20
u280_21:
	goto	i1l2441
u280_20:
	goto	i1l2451
	
i1l794:	
	line	143
	
i1l2451:	
	movlw	(09h)
	movwf	(??___ftmul+0)+0
	movf	(??___ftmul+0)+0,w
	movwf	(___ftmul@cntr)
	goto	i1l2453
	line	144
	
i1l795:	
	line	145
	
i1l2453:	
	btfss	(___ftmul@f1),(0)&7
	goto	u281_21
	goto	u281_20
u281_21:
	goto	i1l2457
u281_20:
	line	146
	
i1l2455:	
	movf	(___ftmul@f2),w
	addwf	(___ftmul@f3_as_product),f
	movf	(___ftmul@f2+1),w
	clrz
	skipnc
	incf	(___ftmul@f2+1),w
	skipnz
	goto	u282_21
	addwf	(___ftmul@f3_as_product+1),f
u282_21:
	movf	(___ftmul@f2+2),w
	clrz
	skipnc
	incf	(___ftmul@f2+2),w
	skipnz
	goto	u282_22
	addwf	(___ftmul@f3_as_product+2),f
u282_22:

	goto	i1l2457
	
i1l796:	
	line	147
	
i1l2457:	
	movlw	01h
u283_25:
	clrc
	rrf	(___ftmul@f1+2),f
	rrf	(___ftmul@f1+1),f
	rrf	(___ftmul@f1),f
	addlw	-1
	skipz
	goto	u283_25

	line	148
	
i1l2459:	
	movlw	01h
u284_25:
	clrc
	rrf	(___ftmul@f3_as_product+2),f
	rrf	(___ftmul@f3_as_product+1),f
	rrf	(___ftmul@f3_as_product),f
	addlw	-1
	skipz
	goto	u284_25

	line	149
	
i1l2461:	
	movlw	low(01h)
	subwf	(___ftmul@cntr),f
	btfss	status,2
	goto	u285_21
	goto	u285_20
u285_21:
	goto	i1l2453
u285_20:
	goto	i1l2463
	
i1l797:	
	line	156
	
i1l2463:	
	movf	(___ftmul@f3_as_product),w
	movwf	(___ftpack@arg)
	movf	(___ftmul@f3_as_product+1),w
	movwf	(___ftpack@arg+1)
	movf	(___ftmul@f3_as_product+2),w
	movwf	(___ftpack@arg+2)
	movf	(___ftmul@exp),w
	movwf	(??___ftmul+0)+0
	movf	(??___ftmul+0)+0,w
	movwf	(___ftpack@exp)
	movf	(___ftmul@sign),w
	movwf	(??___ftmul+1)+0
	movf	(??___ftmul+1)+0,w
	movwf	(___ftpack@sign)
	fcall	___ftpack
	movf	(0+(?___ftpack)),w
	bcf	status, 5	;RP0=0, select bank0
	bcf	status, 6	;RP1=0, select bank0
	movwf	(?___ftmul)
	movf	(1+(?___ftpack)),w
	movwf	(?___ftmul+1)
	movf	(2+(?___ftpack)),w
	movwf	(?___ftmul+2)
	goto	i1l790
	
i1l2465:	
	line	157
	
i1l790:	
	return
	opt stack 0
GLOBAL	__end_of___ftmul
	__end_of___ftmul:
	signat	___ftmul,8315
	global	___awtoft

;; *************** function ___awtoft *****************
;; Defined at:
;;		line 32 in file "C:\Program Files (x86)\Microchip\xc8\v1.33\sources\common\awtoft.c"
;; Parameters:    Size  Location     Type
;;  c               2    8[COMMON] int 
;; Auto vars:     Size  Location     Type
;;  sign            1   13[COMMON] unsigned char 
;; Return value:  Size  Location     Type
;;                  3    8[COMMON] float 
;; Registers used:
;;		wreg, status,2, status,0, pclath, cstack
;; Tracked objects:
;;		On entry : 0/0
;;		On exit  : 0/0
;;		Unchanged: 0/0
;; Data sizes:     COMMON   BANK0   BANK1   BANK3   BANK2
;;      Params:         3       0       0       0       0
;;      Locals:         1       0       0       0       0
;;      Temps:          2       0       0       0       0
;;      Totals:         6       0       0       0       0
;;Total ram usage:        6 bytes
;; Hardware stack levels used:    1
;; Hardware stack levels required when called:    1
;; This function calls:
;;		___ftpack
;; This function is called by:
;;		_Fuzzy
;; This function uses a non-reentrant model
;;
psect	text36,local,class=CODE,delta=2,merge=1
	file	"C:\Program Files (x86)\Microchip\xc8\v1.33\sources\common\awtoft.c"
	line	32
global __ptext36
__ptext36:	;psect for function ___awtoft
psect	text36
	file	"C:\Program Files (x86)\Microchip\xc8\v1.33\sources\common\awtoft.c"
	line	32
	global	__size_of___awtoft
	__size_of___awtoft	equ	__end_of___awtoft-___awtoft
	
___awtoft:	
;incstack = 0
	opt	stack 2
; Regs used in ___awtoft: [wreg+status,2+status,0+pclath+cstack]
	line	36
	
i1l2405:	
	clrf	(___awtoft@sign)
	line	37
	
i1l2407:	
	btfss	(___awtoft@c+1),7
	goto	u271_21
	goto	u271_20
u271_21:
	goto	i1l2413
u271_20:
	line	38
	
i1l2409:	
	comf	(___awtoft@c),f
	comf	(___awtoft@c+1),f
	incf	(___awtoft@c),f
	skipnz
	incf	(___awtoft@c+1),f
	line	39
	
i1l2411:	
	clrf	(___awtoft@sign)
	incf	(___awtoft@sign),f
	goto	i1l2413
	line	40
	
i1l718:	
	line	41
	
i1l2413:	
	movf	(___awtoft@c),w
	movwf	(___ftpack@arg)
	movf	(___awtoft@c+1),w
	movwf	(___ftpack@arg+1)
	clrf	(___ftpack@arg+2)
	movlw	(08Eh)
	movwf	(??___awtoft+0)+0
	movf	(??___awtoft+0)+0,w
	movwf	(___ftpack@exp)
	movf	(___awtoft@sign),w
	movwf	(??___awtoft+1)+0
	movf	(??___awtoft+1)+0,w
	movwf	(___ftpack@sign)
	fcall	___ftpack
	movf	(0+(?___ftpack)),w
	movwf	(?___awtoft)
	movf	(1+(?___ftpack)),w
	movwf	(?___awtoft+1)
	movf	(2+(?___ftpack)),w
	movwf	(?___awtoft+2)
	goto	i1l719
	
i1l2415:	
	line	42
	
i1l719:	
	return
	opt stack 0
GLOBAL	__end_of___awtoft
	__end_of___awtoft:
	signat	___awtoft,4219
	global	___ftpack

;; *************** function ___ftpack *****************
;; Defined at:
;;		line 62 in file "C:\Program Files (x86)\Microchip\xc8\v1.33\sources\common\float.c"
;; Parameters:    Size  Location     Type
;;  arg             3    0[COMMON] unsigned um
;;  exp             1    3[COMMON] unsigned char 
;;  sign            1    4[COMMON] unsigned char 
;; Auto vars:     Size  Location     Type
;;		None
;; Return value:  Size  Location     Type
;;                  3    0[COMMON] float 
;; Registers used:
;;		wreg, status,2, status,0
;; Tracked objects:
;;		On entry : 0/0
;;		On exit  : 0/0
;;		Unchanged: 0/0
;; Data sizes:     COMMON   BANK0   BANK1   BANK3   BANK2
;;      Params:         5       0       0       0       0
;;      Locals:         0       0       0       0       0
;;      Temps:          3       0       0       0       0
;;      Totals:         8       0       0       0       0
;;Total ram usage:        8 bytes
;; Hardware stack levels used:    1
;; This function calls:
;;		Nothing
;; This function is called by:
;;		___awtoft
;;		___ftadd
;;		___ftdiv
;;		___ftmul
;;		___lwtoft
;; This function uses a non-reentrant model
;;
psect	text37,local,class=CODE,delta=2,merge=1
	file	"C:\Program Files (x86)\Microchip\xc8\v1.33\sources\common\float.c"
	line	62
global __ptext37
__ptext37:	;psect for function ___ftpack
psect	text37
	file	"C:\Program Files (x86)\Microchip\xc8\v1.33\sources\common\float.c"
	line	62
	global	__size_of___ftpack
	__size_of___ftpack	equ	__end_of___ftpack-___ftpack
	
___ftpack:	
;incstack = 0
	opt	stack 1
; Regs used in ___ftpack: [wreg+status,2+status,0]
	line	64
	
i1l2101:	
	movf	(___ftpack@exp),w
	skipz
	goto	u195_20
	goto	i1l2105
u195_20:
	
i1l2103:	
	movf	(___ftpack@arg+2),w
	iorwf	(___ftpack@arg+1),w
	iorwf	(___ftpack@arg),w
	skipz
	goto	u196_21
	goto	u196_20
u196_21:
	goto	i1l2111
u196_20:
	goto	i1l2105
	
i1l724:	
	line	65
	
i1l2105:	
	movlw	0x0
	movwf	(?___ftpack)
	movlw	0x0
	movwf	(?___ftpack+1)
	movlw	0x0
	movwf	(?___ftpack+2)
	goto	i1l725
	
i1l2107:	
	goto	i1l725
	
i1l722:	
	line	66
	goto	i1l2111
	
i1l727:	
	line	67
	
i1l2109:	
	movlw	(01h)
	movwf	(??___ftpack+0)+0
	movf	(??___ftpack+0)+0,w
	addwf	(___ftpack@exp),f
	line	68
	movlw	01h
u197_25:
	clrc
	rrf	(___ftpack@arg+2),f
	rrf	(___ftpack@arg+1),f
	rrf	(___ftpack@arg),f
	addlw	-1
	skipz
	goto	u197_25

	goto	i1l2111
	line	69
	
i1l726:	
	line	66
	
i1l2111:	
	movlw	low highword(0FE0000h)
	andwf	(___ftpack@arg+2),w
	btfss	status,2
	goto	u198_21
	goto	u198_20
u198_21:
	goto	i1l2109
u198_20:
	goto	i1l729
	
i1l728:	
	line	70
	goto	i1l729
	
i1l730:	
	line	71
	
i1l2113:	
	movlw	(01h)
	movwf	(??___ftpack+0)+0
	movf	(??___ftpack+0)+0,w
	addwf	(___ftpack@exp),f
	line	72
	
i1l2115:	
	movlw	01h
	addwf	(___ftpack@arg),f
	movlw	0
	skipnc
movlw 1
	addwf	(___ftpack@arg+1),f
	movlw	0
	skipnc
movlw 1
	addwf	(___ftpack@arg+2),f
	line	73
	
i1l2117:	
	movlw	01h
u199_25:
	clrc
	rrf	(___ftpack@arg+2),f
	rrf	(___ftpack@arg+1),f
	rrf	(___ftpack@arg),f
	addlw	-1
	skipz
	goto	u199_25

	line	74
	
i1l729:	
	line	70
	movlw	low highword(0FF0000h)
	andwf	(___ftpack@arg+2),w
	btfss	status,2
	goto	u200_21
	goto	u200_20
u200_21:
	goto	i1l2113
u200_20:
	goto	i1l2121
	
i1l731:	
	line	75
	goto	i1l2121
	
i1l733:	
	line	76
	
i1l2119:	
	movlw	low(01h)
	subwf	(___ftpack@exp),f
	line	77
	movlw	01h
u201_25:
	clrc
	rlf	(___ftpack@arg),f
	rlf	(___ftpack@arg+1),f
	rlf	(___ftpack@arg+2),f
	addlw	-1
	skipz
	goto	u201_25
	goto	i1l2121
	line	78
	
i1l732:	
	line	75
	
i1l2121:	
	btfss	(___ftpack@arg+1),(15)&7
	goto	u202_21
	goto	u202_20
u202_21:
	goto	i1l2119
u202_20:
	
i1l734:	
	line	79
	btfsc	(___ftpack@exp),(0)&7
	goto	u203_21
	goto	u203_20
u203_21:
	goto	i1l735
u203_20:
	line	80
	
i1l2123:	
	movlw	0FFh
	andwf	(___ftpack@arg),f
	movlw	07Fh
	andwf	(___ftpack@arg+1),f
	movlw	0FFh
	andwf	(___ftpack@arg+2),f
	
i1l735:	
	line	81
	clrc
	rrf	(___ftpack@exp),f

	line	82
	
i1l2125:	
	movf	(___ftpack@exp),w
	movwf	((??___ftpack+0)+0)
	clrf	((??___ftpack+0)+0+1)
	clrf	((??___ftpack+0)+0+2)
	movlw	010h
u204_25:
	clrc
	rlf	(??___ftpack+0)+0,f
	rlf	(??___ftpack+0)+1,f
	rlf	(??___ftpack+0)+2,f
u204_20:
	addlw	-1
	skipz
	goto	u204_25
	movf	0+(??___ftpack+0)+0,w
	iorwf	(___ftpack@arg),f
	movf	1+(??___ftpack+0)+0,w
	iorwf	(___ftpack@arg+1),f
	movf	2+(??___ftpack+0)+0,w
	iorwf	(___ftpack@arg+2),f
	line	83
	
i1l2127:	
	movf	(___ftpack@sign),w
	skipz
	goto	u205_20
	goto	i1l736
u205_20:
	line	84
	
i1l2129:	
	bsf	(___ftpack@arg)+(23/8),(23)&7
	
i1l736:	
	line	85
	line	86
	
i1l725:	
	return
	opt stack 0
GLOBAL	__end_of___ftpack
	__end_of___ftpack:
	signat	___ftpack,12411
global	___latbits
___latbits	equ	2
	global	btemp
	btemp set 07Eh

	DABS	1,126,2	;btemp
	global	wtemp
	global	wtemp0
	wtemp set btemp
	wtemp0 set btemp
	global	wtemp1
	wtemp1 set btemp+2
	global	wtemp2
	wtemp2 set btemp+4
	global	wtemp3
	wtemp3 set btemp+6
	global	wtemp4
	wtemp4 set btemp+8
	global	wtemp5
	wtemp5 set btemp+10
	global	wtemp6
	wtemp6 set btemp+1
	global	ttemp
	global	ttemp0
	ttemp set btemp
	ttemp0 set btemp
	global	ttemp1
	ttemp1 set btemp+3
	global	ttemp2
	ttemp2 set btemp+6
	global	ttemp3
	ttemp3 set btemp+9
	global	ttemp4
	ttemp4 set btemp+1
	global	ltemp
	global	ltemp0
	ltemp set btemp
	ltemp0 set btemp
	global	ltemp1
	ltemp1 set btemp+4
	global	ltemp2
	ltemp2 set btemp+8
	global	ltemp3
	ltemp3 set btemp+2
	end
