opt subtitle "Microchip Technology Omniscient Code Generator (Lite mode) build 59893"

opt pagewidth 120

	opt lm

	processor	16F877A
clrc	macro
	bcf	3,0
	endm
clrz	macro
	bcf	3,2
	endm
setc	macro
	bsf	3,0
	endm
setz	macro
	bsf	3,2
	endm
skipc	macro
	btfss	3,0
	endm
skipz	macro
	btfss	3,2
	endm
skipnc	macro
	btfsc	3,0
	endm
skipnz	macro
	btfsc	3,2
	endm
indf	equ	0
indf0	equ	0
pc	equ	2
pcl	equ	2
status	equ	3
fsr	equ	4
fsr0	equ	4
c	equ	1
z	equ	0
pclath	equ	10
# 49 "C:\Program Files (x86)\Microchip\xc8\v1.33\include\pic16f877a.h"
INDF equ 00h ;# 
# 55 "C:\Program Files (x86)\Microchip\xc8\v1.33\include\pic16f877a.h"
TMR0 equ 01h ;# 
# 61 "C:\Program Files (x86)\Microchip\xc8\v1.33\include\pic16f877a.h"
PCL equ 02h ;# 
# 67 "C:\Program Files (x86)\Microchip\xc8\v1.33\include\pic16f877a.h"
STATUS equ 03h ;# 
# 154 "C:\Program Files (x86)\Microchip\xc8\v1.33\include\pic16f877a.h"
FSR equ 04h ;# 
# 160 "C:\Program Files (x86)\Microchip\xc8\v1.33\include\pic16f877a.h"
PORTA equ 05h ;# 
# 209 "C:\Program Files (x86)\Microchip\xc8\v1.33\include\pic16f877a.h"
PORTB equ 06h ;# 
# 270 "C:\Program Files (x86)\Microchip\xc8\v1.33\include\pic16f877a.h"
PORTC equ 07h ;# 
# 331 "C:\Program Files (x86)\Microchip\xc8\v1.33\include\pic16f877a.h"
PORTD equ 08h ;# 
# 392 "C:\Program Files (x86)\Microchip\xc8\v1.33\include\pic16f877a.h"
PORTE equ 09h ;# 
# 423 "C:\Program Files (x86)\Microchip\xc8\v1.33\include\pic16f877a.h"
PCLATH equ 0Ah ;# 
# 442 "C:\Program Files (x86)\Microchip\xc8\v1.33\include\pic16f877a.h"
INTCON equ 0Bh ;# 
# 519 "C:\Program Files (x86)\Microchip\xc8\v1.33\include\pic16f877a.h"
PIR1 equ 0Ch ;# 
# 580 "C:\Program Files (x86)\Microchip\xc8\v1.33\include\pic16f877a.h"
PIR2 equ 0Dh ;# 
# 619 "C:\Program Files (x86)\Microchip\xc8\v1.33\include\pic16f877a.h"
TMR1 equ 0Eh ;# 
# 625 "C:\Program Files (x86)\Microchip\xc8\v1.33\include\pic16f877a.h"
TMR1L equ 0Eh ;# 
# 631 "C:\Program Files (x86)\Microchip\xc8\v1.33\include\pic16f877a.h"
TMR1H equ 0Fh ;# 
# 637 "C:\Program Files (x86)\Microchip\xc8\v1.33\include\pic16f877a.h"
T1CON equ 010h ;# 
# 711 "C:\Program Files (x86)\Microchip\xc8\v1.33\include\pic16f877a.h"
TMR2 equ 011h ;# 
# 717 "C:\Program Files (x86)\Microchip\xc8\v1.33\include\pic16f877a.h"
T2CON equ 012h ;# 
# 787 "C:\Program Files (x86)\Microchip\xc8\v1.33\include\pic16f877a.h"
SSPBUF equ 013h ;# 
# 793 "C:\Program Files (x86)\Microchip\xc8\v1.33\include\pic16f877a.h"
SSPCON equ 014h ;# 
# 862 "C:\Program Files (x86)\Microchip\xc8\v1.33\include\pic16f877a.h"
CCPR1 equ 015h ;# 
# 868 "C:\Program Files (x86)\Microchip\xc8\v1.33\include\pic16f877a.h"
CCPR1L equ 015h ;# 
# 874 "C:\Program Files (x86)\Microchip\xc8\v1.33\include\pic16f877a.h"
CCPR1H equ 016h ;# 
# 880 "C:\Program Files (x86)\Microchip\xc8\v1.33\include\pic16f877a.h"
CCP1CON equ 017h ;# 
# 937 "C:\Program Files (x86)\Microchip\xc8\v1.33\include\pic16f877a.h"
RCSTA equ 018h ;# 
# 1031 "C:\Program Files (x86)\Microchip\xc8\v1.33\include\pic16f877a.h"
TXREG equ 019h ;# 
# 1037 "C:\Program Files (x86)\Microchip\xc8\v1.33\include\pic16f877a.h"
RCREG equ 01Ah ;# 
# 1043 "C:\Program Files (x86)\Microchip\xc8\v1.33\include\pic16f877a.h"
CCPR2 equ 01Bh ;# 
# 1049 "C:\Program Files (x86)\Microchip\xc8\v1.33\include\pic16f877a.h"
CCPR2L equ 01Bh ;# 
# 1055 "C:\Program Files (x86)\Microchip\xc8\v1.33\include\pic16f877a.h"
CCPR2H equ 01Ch ;# 
# 1061 "C:\Program Files (x86)\Microchip\xc8\v1.33\include\pic16f877a.h"
CCP2CON equ 01Dh ;# 
# 1118 "C:\Program Files (x86)\Microchip\xc8\v1.33\include\pic16f877a.h"
ADRESH equ 01Eh ;# 
# 1124 "C:\Program Files (x86)\Microchip\xc8\v1.33\include\pic16f877a.h"
ADCON0 equ 01Fh ;# 
# 1219 "C:\Program Files (x86)\Microchip\xc8\v1.33\include\pic16f877a.h"
OPTION_REG equ 081h ;# 
# 1288 "C:\Program Files (x86)\Microchip\xc8\v1.33\include\pic16f877a.h"
TRISA equ 085h ;# 
# 1337 "C:\Program Files (x86)\Microchip\xc8\v1.33\include\pic16f877a.h"
TRISB equ 086h ;# 
# 1398 "C:\Program Files (x86)\Microchip\xc8\v1.33\include\pic16f877a.h"
TRISC equ 087h ;# 
# 1459 "C:\Program Files (x86)\Microchip\xc8\v1.33\include\pic16f877a.h"
TRISD equ 088h ;# 
# 1520 "C:\Program Files (x86)\Microchip\xc8\v1.33\include\pic16f877a.h"
TRISE equ 089h ;# 
# 1576 "C:\Program Files (x86)\Microchip\xc8\v1.33\include\pic16f877a.h"
PIE1 equ 08Ch ;# 
# 1637 "C:\Program Files (x86)\Microchip\xc8\v1.33\include\pic16f877a.h"
PIE2 equ 08Dh ;# 
# 1676 "C:\Program Files (x86)\Microchip\xc8\v1.33\include\pic16f877a.h"
PCON equ 08Eh ;# 
# 1709 "C:\Program Files (x86)\Microchip\xc8\v1.33\include\pic16f877a.h"
SSPCON2 equ 091h ;# 
# 1770 "C:\Program Files (x86)\Microchip\xc8\v1.33\include\pic16f877a.h"
PR2 equ 092h ;# 
# 1776 "C:\Program Files (x86)\Microchip\xc8\v1.33\include\pic16f877a.h"
SSPADD equ 093h ;# 
# 1782 "C:\Program Files (x86)\Microchip\xc8\v1.33\include\pic16f877a.h"
SSPSTAT equ 094h ;# 
# 1950 "C:\Program Files (x86)\Microchip\xc8\v1.33\include\pic16f877a.h"
TXSTA equ 098h ;# 
# 2030 "C:\Program Files (x86)\Microchip\xc8\v1.33\include\pic16f877a.h"
SPBRG equ 099h ;# 
# 2036 "C:\Program Files (x86)\Microchip\xc8\v1.33\include\pic16f877a.h"
CMCON equ 09Ch ;# 
# 2105 "C:\Program Files (x86)\Microchip\xc8\v1.33\include\pic16f877a.h"
CVRCON equ 09Dh ;# 
# 2169 "C:\Program Files (x86)\Microchip\xc8\v1.33\include\pic16f877a.h"
ADRESL equ 09Eh ;# 
# 2175 "C:\Program Files (x86)\Microchip\xc8\v1.33\include\pic16f877a.h"
ADCON1 equ 09Fh ;# 
# 2233 "C:\Program Files (x86)\Microchip\xc8\v1.33\include\pic16f877a.h"
EEDATA equ 010Ch ;# 
# 2239 "C:\Program Files (x86)\Microchip\xc8\v1.33\include\pic16f877a.h"
EEADR equ 010Dh ;# 
# 2245 "C:\Program Files (x86)\Microchip\xc8\v1.33\include\pic16f877a.h"
EEDATH equ 010Eh ;# 
# 2251 "C:\Program Files (x86)\Microchip\xc8\v1.33\include\pic16f877a.h"
EEADRH equ 010Fh ;# 
# 2257 "C:\Program Files (x86)\Microchip\xc8\v1.33\include\pic16f877a.h"
EECON1 equ 018Ch ;# 
# 2301 "C:\Program Files (x86)\Microchip\xc8\v1.33\include\pic16f877a.h"
EECON2 equ 018Dh ;# 
# 49 "C:\Program Files (x86)\Microchip\xc8\v1.33\include\pic16f877a.h"
INDF equ 00h ;# 
# 55 "C:\Program Files (x86)\Microchip\xc8\v1.33\include\pic16f877a.h"
TMR0 equ 01h ;# 
# 61 "C:\Program Files (x86)\Microchip\xc8\v1.33\include\pic16f877a.h"
PCL equ 02h ;# 
# 67 "C:\Program Files (x86)\Microchip\xc8\v1.33\include\pic16f877a.h"
STATUS equ 03h ;# 
# 154 "C:\Program Files (x86)\Microchip\xc8\v1.33\include\pic16f877a.h"
FSR equ 04h ;# 
# 160 "C:\Program Files (x86)\Microchip\xc8\v1.33\include\pic16f877a.h"
PORTA equ 05h ;# 
# 209 "C:\Program Files (x86)\Microchip\xc8\v1.33\include\pic16f877a.h"
PORTB equ 06h ;# 
# 270 "C:\Program Files (x86)\Microchip\xc8\v1.33\include\pic16f877a.h"
PORTC equ 07h ;# 
# 331 "C:\Program Files (x86)\Microchip\xc8\v1.33\include\pic16f877a.h"
PORTD equ 08h ;# 
# 392 "C:\Program Files (x86)\Microchip\xc8\v1.33\include\pic16f877a.h"
PORTE equ 09h ;# 
# 423 "C:\Program Files (x86)\Microchip\xc8\v1.33\include\pic16f877a.h"
PCLATH equ 0Ah ;# 
# 442 "C:\Program Files (x86)\Microchip\xc8\v1.33\include\pic16f877a.h"
INTCON equ 0Bh ;# 
# 519 "C:\Program Files (x86)\Microchip\xc8\v1.33\include\pic16f877a.h"
PIR1 equ 0Ch ;# 
# 580 "C:\Program Files (x86)\Microchip\xc8\v1.33\include\pic16f877a.h"
PIR2 equ 0Dh ;# 
# 619 "C:\Program Files (x86)\Microchip\xc8\v1.33\include\pic16f877a.h"
TMR1 equ 0Eh ;# 
# 625 "C:\Program Files (x86)\Microchip\xc8\v1.33\include\pic16f877a.h"
TMR1L equ 0Eh ;# 
# 631 "C:\Program Files (x86)\Microchip\xc8\v1.33\include\pic16f877a.h"
TMR1H equ 0Fh ;# 
# 637 "C:\Program Files (x86)\Microchip\xc8\v1.33\include\pic16f877a.h"
T1CON equ 010h ;# 
# 711 "C:\Program Files (x86)\Microchip\xc8\v1.33\include\pic16f877a.h"
TMR2 equ 011h ;# 
# 717 "C:\Program Files (x86)\Microchip\xc8\v1.33\include\pic16f877a.h"
T2CON equ 012h ;# 
# 787 "C:\Program Files (x86)\Microchip\xc8\v1.33\include\pic16f877a.h"
SSPBUF equ 013h ;# 
# 793 "C:\Program Files (x86)\Microchip\xc8\v1.33\include\pic16f877a.h"
SSPCON equ 014h ;# 
# 862 "C:\Program Files (x86)\Microchip\xc8\v1.33\include\pic16f877a.h"
CCPR1 equ 015h ;# 
# 868 "C:\Program Files (x86)\Microchip\xc8\v1.33\include\pic16f877a.h"
CCPR1L equ 015h ;# 
# 874 "C:\Program Files (x86)\Microchip\xc8\v1.33\include\pic16f877a.h"
CCPR1H equ 016h ;# 
# 880 "C:\Program Files (x86)\Microchip\xc8\v1.33\include\pic16f877a.h"
CCP1CON equ 017h ;# 
# 937 "C:\Program Files (x86)\Microchip\xc8\v1.33\include\pic16f877a.h"
RCSTA equ 018h ;# 
# 1031 "C:\Program Files (x86)\Microchip\xc8\v1.33\include\pic16f877a.h"
TXREG equ 019h ;# 
# 1037 "C:\Program Files (x86)\Microchip\xc8\v1.33\include\pic16f877a.h"
RCREG equ 01Ah ;# 
# 1043 "C:\Program Files (x86)\Microchip\xc8\v1.33\include\pic16f877a.h"
CCPR2 equ 01Bh ;# 
# 1049 "C:\Program Files (x86)\Microchip\xc8\v1.33\include\pic16f877a.h"
CCPR2L equ 01Bh ;# 
# 1055 "C:\Program Files (x86)\Microchip\xc8\v1.33\include\pic16f877a.h"
CCPR2H equ 01Ch ;# 
# 1061 "C:\Program Files (x86)\Microchip\xc8\v1.33\include\pic16f877a.h"
CCP2CON equ 01Dh ;# 
# 1118 "C:\Program Files (x86)\Microchip\xc8\v1.33\include\pic16f877a.h"
ADRESH equ 01Eh ;# 
# 1124 "C:\Program Files (x86)\Microchip\xc8\v1.33\include\pic16f877a.h"
ADCON0 equ 01Fh ;# 
# 1219 "C:\Program Files (x86)\Microchip\xc8\v1.33\include\pic16f877a.h"
OPTION_REG equ 081h ;# 
# 1288 "C:\Program Files (x86)\Microchip\xc8\v1.33\include\pic16f877a.h"
TRISA equ 085h ;# 
# 1337 "C:\Program Files (x86)\Microchip\xc8\v1.33\include\pic16f877a.h"
TRISB equ 086h ;# 
# 1398 "C:\Program Files (x86)\Microchip\xc8\v1.33\include\pic16f877a.h"
TRISC equ 087h ;# 
# 1459 "C:\Program Files (x86)\Microchip\xc8\v1.33\include\pic16f877a.h"
TRISD equ 088h ;# 
# 1520 "C:\Program Files (x86)\Microchip\xc8\v1.33\include\pic16f877a.h"
TRISE equ 089h ;# 
# 1576 "C:\Program Files (x86)\Microchip\xc8\v1.33\include\pic16f877a.h"
PIE1 equ 08Ch ;# 
# 1637 "C:\Program Files (x86)\Microchip\xc8\v1.33\include\pic16f877a.h"
PIE2 equ 08Dh ;# 
# 1676 "C:\Program Files (x86)\Microchip\xc8\v1.33\include\pic16f877a.h"
PCON equ 08Eh ;# 
# 1709 "C:\Program Files (x86)\Microchip\xc8\v1.33\include\pic16f877a.h"
SSPCON2 equ 091h ;# 
# 1770 "C:\Program Files (x86)\Microchip\xc8\v1.33\include\pic16f877a.h"
PR2 equ 092h ;# 
# 1776 "C:\Program Files (x86)\Microchip\xc8\v1.33\include\pic16f877a.h"
SSPADD equ 093h ;# 
# 1782 "C:\Program Files (x86)\Microchip\xc8\v1.33\include\pic16f877a.h"
SSPSTAT equ 094h ;# 
# 1950 "C:\Program Files (x86)\Microchip\xc8\v1.33\include\pic16f877a.h"
TXSTA equ 098h ;# 
# 2030 "C:\Program Files (x86)\Microchip\xc8\v1.33\include\pic16f877a.h"
SPBRG equ 099h ;# 
# 2036 "C:\Program Files (x86)\Microchip\xc8\v1.33\include\pic16f877a.h"
CMCON equ 09Ch ;# 
# 2105 "C:\Program Files (x86)\Microchip\xc8\v1.33\include\pic16f877a.h"
CVRCON equ 09Dh ;# 
# 2169 "C:\Program Files (x86)\Microchip\xc8\v1.33\include\pic16f877a.h"
ADRESL equ 09Eh ;# 
# 2175 "C:\Program Files (x86)\Microchip\xc8\v1.33\include\pic16f877a.h"
ADCON1 equ 09Fh ;# 
# 2233 "C:\Program Files (x86)\Microchip\xc8\v1.33\include\pic16f877a.h"
EEDATA equ 010Ch ;# 
# 2239 "C:\Program Files (x86)\Microchip\xc8\v1.33\include\pic16f877a.h"
EEADR equ 010Dh ;# 
# 2245 "C:\Program Files (x86)\Microchip\xc8\v1.33\include\pic16f877a.h"
EEDATH equ 010Eh ;# 
# 2251 "C:\Program Files (x86)\Microchip\xc8\v1.33\include\pic16f877a.h"
EEADRH equ 010Fh ;# 
# 2257 "C:\Program Files (x86)\Microchip\xc8\v1.33\include\pic16f877a.h"
EECON1 equ 018Ch ;# 
# 2301 "C:\Program Files (x86)\Microchip\xc8\v1.33\include\pic16f877a.h"
EECON2 equ 018Dh ;# 
# 49 "C:\Program Files (x86)\Microchip\xc8\v1.33\include\pic16f877a.h"
INDF equ 00h ;# 
# 55 "C:\Program Files (x86)\Microchip\xc8\v1.33\include\pic16f877a.h"
TMR0 equ 01h ;# 
# 61 "C:\Program Files (x86)\Microchip\xc8\v1.33\include\pic16f877a.h"
PCL equ 02h ;# 
# 67 "C:\Program Files (x86)\Microchip\xc8\v1.33\include\pic16f877a.h"
STATUS equ 03h ;# 
# 154 "C:\Program Files (x86)\Microchip\xc8\v1.33\include\pic16f877a.h"
FSR equ 04h ;# 
# 160 "C:\Program Files (x86)\Microchip\xc8\v1.33\include\pic16f877a.h"
PORTA equ 05h ;# 
# 209 "C:\Program Files (x86)\Microchip\xc8\v1.33\include\pic16f877a.h"
PORTB equ 06h ;# 
# 270 "C:\Program Files (x86)\Microchip\xc8\v1.33\include\pic16f877a.h"
PORTC equ 07h ;# 
# 331 "C:\Program Files (x86)\Microchip\xc8\v1.33\include\pic16f877a.h"
PORTD equ 08h ;# 
# 392 "C:\Program Files (x86)\Microchip\xc8\v1.33\include\pic16f877a.h"
PORTE equ 09h ;# 
# 423 "C:\Program Files (x86)\Microchip\xc8\v1.33\include\pic16f877a.h"
PCLATH equ 0Ah ;# 
# 442 "C:\Program Files (x86)\Microchip\xc8\v1.33\include\pic16f877a.h"
INTCON equ 0Bh ;# 
# 519 "C:\Program Files (x86)\Microchip\xc8\v1.33\include\pic16f877a.h"
PIR1 equ 0Ch ;# 
# 580 "C:\Program Files (x86)\Microchip\xc8\v1.33\include\pic16f877a.h"
PIR2 equ 0Dh ;# 
# 619 "C:\Program Files (x86)\Microchip\xc8\v1.33\include\pic16f877a.h"
TMR1 equ 0Eh ;# 
# 625 "C:\Program Files (x86)\Microchip\xc8\v1.33\include\pic16f877a.h"
TMR1L equ 0Eh ;# 
# 631 "C:\Program Files (x86)\Microchip\xc8\v1.33\include\pic16f877a.h"
TMR1H equ 0Fh ;# 
# 637 "C:\Program Files (x86)\Microchip\xc8\v1.33\include\pic16f877a.h"
T1CON equ 010h ;# 
# 711 "C:\Program Files (x86)\Microchip\xc8\v1.33\include\pic16f877a.h"
TMR2 equ 011h ;# 
# 717 "C:\Program Files (x86)\Microchip\xc8\v1.33\include\pic16f877a.h"
T2CON equ 012h ;# 
# 787 "C:\Program Files (x86)\Microchip\xc8\v1.33\include\pic16f877a.h"
SSPBUF equ 013h ;# 
# 793 "C:\Program Files (x86)\Microchip\xc8\v1.33\include\pic16f877a.h"
SSPCON equ 014h ;# 
# 862 "C:\Program Files (x86)\Microchip\xc8\v1.33\include\pic16f877a.h"
CCPR1 equ 015h ;# 
# 868 "C:\Program Files (x86)\Microchip\xc8\v1.33\include\pic16f877a.h"
CCPR1L equ 015h ;# 
# 874 "C:\Program Files (x86)\Microchip\xc8\v1.33\include\pic16f877a.h"
CCPR1H equ 016h ;# 
# 880 "C:\Program Files (x86)\Microchip\xc8\v1.33\include\pic16f877a.h"
CCP1CON equ 017h ;# 
# 937 "C:\Program Files (x86)\Microchip\xc8\v1.33\include\pic16f877a.h"
RCSTA equ 018h ;# 
# 1031 "C:\Program Files (x86)\Microchip\xc8\v1.33\include\pic16f877a.h"
TXREG equ 019h ;# 
# 1037 "C:\Program Files (x86)\Microchip\xc8\v1.33\include\pic16f877a.h"
RCREG equ 01Ah ;# 
# 1043 "C:\Program Files (x86)\Microchip\xc8\v1.33\include\pic16f877a.h"
CCPR2 equ 01Bh ;# 
# 1049 "C:\Program Files (x86)\Microchip\xc8\v1.33\include\pic16f877a.h"
CCPR2L equ 01Bh ;# 
# 1055 "C:\Program Files (x86)\Microchip\xc8\v1.33\include\pic16f877a.h"
CCPR2H equ 01Ch ;# 
# 1061 "C:\Program Files (x86)\Microchip\xc8\v1.33\include\pic16f877a.h"
CCP2CON equ 01Dh ;# 
# 1118 "C:\Program Files (x86)\Microchip\xc8\v1.33\include\pic16f877a.h"
ADRESH equ 01Eh ;# 
# 1124 "C:\Program Files (x86)\Microchip\xc8\v1.33\include\pic16f877a.h"
ADCON0 equ 01Fh ;# 
# 1219 "C:\Program Files (x86)\Microchip\xc8\v1.33\include\pic16f877a.h"
OPTION_REG equ 081h ;# 
# 1288 "C:\Program Files (x86)\Microchip\xc8\v1.33\include\pic16f877a.h"
TRISA equ 085h ;# 
# 1337 "C:\Program Files (x86)\Microchip\xc8\v1.33\include\pic16f877a.h"
TRISB equ 086h ;# 
# 1398 "C:\Program Files (x86)\Microchip\xc8\v1.33\include\pic16f877a.h"
TRISC equ 087h ;# 
# 1459 "C:\Program Files (x86)\Microchip\xc8\v1.33\include\pic16f877a.h"
TRISD equ 088h ;# 
# 1520 "C:\Program Files (x86)\Microchip\xc8\v1.33\include\pic16f877a.h"
TRISE equ 089h ;# 
# 1576 "C:\Program Files (x86)\Microchip\xc8\v1.33\include\pic16f877a.h"
PIE1 equ 08Ch ;# 
# 1637 "C:\Program Files (x86)\Microchip\xc8\v1.33\include\pic16f877a.h"
PIE2 equ 08Dh ;# 
# 1676 "C:\Program Files (x86)\Microchip\xc8\v1.33\include\pic16f877a.h"
PCON equ 08Eh ;# 
# 1709 "C:\Program Files (x86)\Microchip\xc8\v1.33\include\pic16f877a.h"
SSPCON2 equ 091h ;# 
# 1770 "C:\Program Files (x86)\Microchip\xc8\v1.33\include\pic16f877a.h"
PR2 equ 092h ;# 
# 1776 "C:\Program Files (x86)\Microchip\xc8\v1.33\include\pic16f877a.h"
SSPADD equ 093h ;# 
# 1782 "C:\Program Files (x86)\Microchip\xc8\v1.33\include\pic16f877a.h"
SSPSTAT equ 094h ;# 
# 1950 "C:\Program Files (x86)\Microchip\xc8\v1.33\include\pic16f877a.h"
TXSTA equ 098h ;# 
# 2030 "C:\Program Files (x86)\Microchip\xc8\v1.33\include\pic16f877a.h"
SPBRG equ 099h ;# 
# 2036 "C:\Program Files (x86)\Microchip\xc8\v1.33\include\pic16f877a.h"
CMCON equ 09Ch ;# 
# 2105 "C:\Program Files (x86)\Microchip\xc8\v1.33\include\pic16f877a.h"
CVRCON equ 09Dh ;# 
# 2169 "C:\Program Files (x86)\Microchip\xc8\v1.33\include\pic16f877a.h"
ADRESL equ 09Eh ;# 
# 2175 "C:\Program Files (x86)\Microchip\xc8\v1.33\include\pic16f877a.h"
ADCON1 equ 09Fh ;# 
# 2233 "C:\Program Files (x86)\Microchip\xc8\v1.33\include\pic16f877a.h"
EEDATA equ 010Ch ;# 
# 2239 "C:\Program Files (x86)\Microchip\xc8\v1.33\include\pic16f877a.h"
EEADR equ 010Dh ;# 
# 2245 "C:\Program Files (x86)\Microchip\xc8\v1.33\include\pic16f877a.h"
EEDATH equ 010Eh ;# 
# 2251 "C:\Program Files (x86)\Microchip\xc8\v1.33\include\pic16f877a.h"
EEADRH equ 010Fh ;# 
# 2257 "C:\Program Files (x86)\Microchip\xc8\v1.33\include\pic16f877a.h"
EECON1 equ 018Ch ;# 
# 2301 "C:\Program Files (x86)\Microchip\xc8\v1.33\include\pic16f877a.h"
EECON2 equ 018Dh ;# 
# 49 "C:\Program Files (x86)\Microchip\xc8\v1.33\include\pic16f877a.h"
INDF equ 00h ;# 
# 55 "C:\Program Files (x86)\Microchip\xc8\v1.33\include\pic16f877a.h"
TMR0 equ 01h ;# 
# 61 "C:\Program Files (x86)\Microchip\xc8\v1.33\include\pic16f877a.h"
PCL equ 02h ;# 
# 67 "C:\Program Files (x86)\Microchip\xc8\v1.33\include\pic16f877a.h"
STATUS equ 03h ;# 
# 154 "C:\Program Files (x86)\Microchip\xc8\v1.33\include\pic16f877a.h"
FSR equ 04h ;# 
# 160 "C:\Program Files (x86)\Microchip\xc8\v1.33\include\pic16f877a.h"
PORTA equ 05h ;# 
# 209 "C:\Program Files (x86)\Microchip\xc8\v1.33\include\pic16f877a.h"
PORTB equ 06h ;# 
# 270 "C:\Program Files (x86)\Microchip\xc8\v1.33\include\pic16f877a.h"
PORTC equ 07h ;# 
# 331 "C:\Program Files (x86)\Microchip\xc8\v1.33\include\pic16f877a.h"
PORTD equ 08h ;# 
# 392 "C:\Program Files (x86)\Microchip\xc8\v1.33\include\pic16f877a.h"
PORTE equ 09h ;# 
# 423 "C:\Program Files (x86)\Microchip\xc8\v1.33\include\pic16f877a.h"
PCLATH equ 0Ah ;# 
# 442 "C:\Program Files (x86)\Microchip\xc8\v1.33\include\pic16f877a.h"
INTCON equ 0Bh ;# 
# 519 "C:\Program Files (x86)\Microchip\xc8\v1.33\include\pic16f877a.h"
PIR1 equ 0Ch ;# 
# 580 "C:\Program Files (x86)\Microchip\xc8\v1.33\include\pic16f877a.h"
PIR2 equ 0Dh ;# 
# 619 "C:\Program Files (x86)\Microchip\xc8\v1.33\include\pic16f877a.h"
TMR1 equ 0Eh ;# 
# 625 "C:\Program Files (x86)\Microchip\xc8\v1.33\include\pic16f877a.h"
TMR1L equ 0Eh ;# 
# 631 "C:\Program Files (x86)\Microchip\xc8\v1.33\include\pic16f877a.h"
TMR1H equ 0Fh ;# 
# 637 "C:\Program Files (x86)\Microchip\xc8\v1.33\include\pic16f877a.h"
T1CON equ 010h ;# 
# 711 "C:\Program Files (x86)\Microchip\xc8\v1.33\include\pic16f877a.h"
TMR2 equ 011h ;# 
# 717 "C:\Program Files (x86)\Microchip\xc8\v1.33\include\pic16f877a.h"
T2CON equ 012h ;# 
# 787 "C:\Program Files (x86)\Microchip\xc8\v1.33\include\pic16f877a.h"
SSPBUF equ 013h ;# 
# 793 "C:\Program Files (x86)\Microchip\xc8\v1.33\include\pic16f877a.h"
SSPCON equ 014h ;# 
# 862 "C:\Program Files (x86)\Microchip\xc8\v1.33\include\pic16f877a.h"
CCPR1 equ 015h ;# 
# 868 "C:\Program Files (x86)\Microchip\xc8\v1.33\include\pic16f877a.h"
CCPR1L equ 015h ;# 
# 874 "C:\Program Files (x86)\Microchip\xc8\v1.33\include\pic16f877a.h"
CCPR1H equ 016h ;# 
# 880 "C:\Program Files (x86)\Microchip\xc8\v1.33\include\pic16f877a.h"
CCP1CON equ 017h ;# 
# 937 "C:\Program Files (x86)\Microchip\xc8\v1.33\include\pic16f877a.h"
RCSTA equ 018h ;# 
# 1031 "C:\Program Files (x86)\Microchip\xc8\v1.33\include\pic16f877a.h"
TXREG equ 019h ;# 
# 1037 "C:\Program Files (x86)\Microchip\xc8\v1.33\include\pic16f877a.h"
RCREG equ 01Ah ;# 
# 1043 "C:\Program Files (x86)\Microchip\xc8\v1.33\include\pic16f877a.h"
CCPR2 equ 01Bh ;# 
# 1049 "C:\Program Files (x86)\Microchip\xc8\v1.33\include\pic16f877a.h"
CCPR2L equ 01Bh ;# 
# 1055 "C:\Program Files (x86)\Microchip\xc8\v1.33\include\pic16f877a.h"
CCPR2H equ 01Ch ;# 
# 1061 "C:\Program Files (x86)\Microchip\xc8\v1.33\include\pic16f877a.h"
CCP2CON equ 01Dh ;# 
# 1118 "C:\Program Files (x86)\Microchip\xc8\v1.33\include\pic16f877a.h"
ADRESH equ 01Eh ;# 
# 1124 "C:\Program Files (x86)\Microchip\xc8\v1.33\include\pic16f877a.h"
ADCON0 equ 01Fh ;# 
# 1219 "C:\Program Files (x86)\Microchip\xc8\v1.33\include\pic16f877a.h"
OPTION_REG equ 081h ;# 
# 1288 "C:\Program Files (x86)\Microchip\xc8\v1.33\include\pic16f877a.h"
TRISA equ 085h ;# 
# 1337 "C:\Program Files (x86)\Microchip\xc8\v1.33\include\pic16f877a.h"
TRISB equ 086h ;# 
# 1398 "C:\Program Files (x86)\Microchip\xc8\v1.33\include\pic16f877a.h"
TRISC equ 087h ;# 
# 1459 "C:\Program Files (x86)\Microchip\xc8\v1.33\include\pic16f877a.h"
TRISD equ 088h ;# 
# 1520 "C:\Program Files (x86)\Microchip\xc8\v1.33\include\pic16f877a.h"
TRISE equ 089h ;# 
# 1576 "C:\Program Files (x86)\Microchip\xc8\v1.33\include\pic16f877a.h"
PIE1 equ 08Ch ;# 
# 1637 "C:\Program Files (x86)\Microchip\xc8\v1.33\include\pic16f877a.h"
PIE2 equ 08Dh ;# 
# 1676 "C:\Program Files (x86)\Microchip\xc8\v1.33\include\pic16f877a.h"
PCON equ 08Eh ;# 
# 1709 "C:\Program Files (x86)\Microchip\xc8\v1.33\include\pic16f877a.h"
SSPCON2 equ 091h ;# 
# 1770 "C:\Program Files (x86)\Microchip\xc8\v1.33\include\pic16f877a.h"
PR2 equ 092h ;# 
# 1776 "C:\Program Files (x86)\Microchip\xc8\v1.33\include\pic16f877a.h"
SSPADD equ 093h ;# 
# 1782 "C:\Program Files (x86)\Microchip\xc8\v1.33\include\pic16f877a.h"
SSPSTAT equ 094h ;# 
# 1950 "C:\Program Files (x86)\Microchip\xc8\v1.33\include\pic16f877a.h"
TXSTA equ 098h ;# 
# 2030 "C:\Program Files (x86)\Microchip\xc8\v1.33\include\pic16f877a.h"
SPBRG equ 099h ;# 
# 2036 "C:\Program Files (x86)\Microchip\xc8\v1.33\include\pic16f877a.h"
CMCON equ 09Ch ;# 
# 2105 "C:\Program Files (x86)\Microchip\xc8\v1.33\include\pic16f877a.h"
CVRCON equ 09Dh ;# 
# 2169 "C:\Program Files (x86)\Microchip\xc8\v1.33\include\pic16f877a.h"
ADRESL equ 09Eh ;# 
# 2175 "C:\Program Files (x86)\Microchip\xc8\v1.33\include\pic16f877a.h"
ADCON1 equ 09Fh ;# 
# 2233 "C:\Program Files (x86)\Microchip\xc8\v1.33\include\pic16f877a.h"
EEDATA equ 010Ch ;# 
# 2239 "C:\Program Files (x86)\Microchip\xc8\v1.33\include\pic16f877a.h"
EEADR equ 010Dh ;# 
# 2245 "C:\Program Files (x86)\Microchip\xc8\v1.33\include\pic16f877a.h"
EEDATH equ 010Eh ;# 
# 2251 "C:\Program Files (x86)\Microchip\xc8\v1.33\include\pic16f877a.h"
EEADRH equ 010Fh ;# 
# 2257 "C:\Program Files (x86)\Microchip\xc8\v1.33\include\pic16f877a.h"
EECON1 equ 018Ch ;# 
# 2301 "C:\Program Files (x86)\Microchip\xc8\v1.33\include\pic16f877a.h"
EECON2 equ 018Dh ;# 
# 49 "C:\Program Files (x86)\Microchip\xc8\v1.33\include\pic16f877a.h"
INDF equ 00h ;# 
# 55 "C:\Program Files (x86)\Microchip\xc8\v1.33\include\pic16f877a.h"
TMR0 equ 01h ;# 
# 61 "C:\Program Files (x86)\Microchip\xc8\v1.33\include\pic16f877a.h"
PCL equ 02h ;# 
# 67 "C:\Program Files (x86)\Microchip\xc8\v1.33\include\pic16f877a.h"
STATUS equ 03h ;# 
# 154 "C:\Program Files (x86)\Microchip\xc8\v1.33\include\pic16f877a.h"
FSR equ 04h ;# 
# 160 "C:\Program Files (x86)\Microchip\xc8\v1.33\include\pic16f877a.h"
PORTA equ 05h ;# 
# 209 "C:\Program Files (x86)\Microchip\xc8\v1.33\include\pic16f877a.h"
PORTB equ 06h ;# 
# 270 "C:\Program Files (x86)\Microchip\xc8\v1.33\include\pic16f877a.h"
PORTC equ 07h ;# 
# 331 "C:\Program Files (x86)\Microchip\xc8\v1.33\include\pic16f877a.h"
PORTD equ 08h ;# 
# 392 "C:\Program Files (x86)\Microchip\xc8\v1.33\include\pic16f877a.h"
PORTE equ 09h ;# 
# 423 "C:\Program Files (x86)\Microchip\xc8\v1.33\include\pic16f877a.h"
PCLATH equ 0Ah ;# 
# 442 "C:\Program Files (x86)\Microchip\xc8\v1.33\include\pic16f877a.h"
INTCON equ 0Bh ;# 
# 519 "C:\Program Files (x86)\Microchip\xc8\v1.33\include\pic16f877a.h"
PIR1 equ 0Ch ;# 
# 580 "C:\Program Files (x86)\Microchip\xc8\v1.33\include\pic16f877a.h"
PIR2 equ 0Dh ;# 
# 619 "C:\Program Files (x86)\Microchip\xc8\v1.33\include\pic16f877a.h"
TMR1 equ 0Eh ;# 
# 625 "C:\Program Files (x86)\Microchip\xc8\v1.33\include\pic16f877a.h"
TMR1L equ 0Eh ;# 
# 631 "C:\Program Files (x86)\Microchip\xc8\v1.33\include\pic16f877a.h"
TMR1H equ 0Fh ;# 
# 637 "C:\Program Files (x86)\Microchip\xc8\v1.33\include\pic16f877a.h"
T1CON equ 010h ;# 
# 711 "C:\Program Files (x86)\Microchip\xc8\v1.33\include\pic16f877a.h"
TMR2 equ 011h ;# 
# 717 "C:\Program Files (x86)\Microchip\xc8\v1.33\include\pic16f877a.h"
T2CON equ 012h ;# 
# 787 "C:\Program Files (x86)\Microchip\xc8\v1.33\include\pic16f877a.h"
SSPBUF equ 013h ;# 
# 793 "C:\Program Files (x86)\Microchip\xc8\v1.33\include\pic16f877a.h"
SSPCON equ 014h ;# 
# 862 "C:\Program Files (x86)\Microchip\xc8\v1.33\include\pic16f877a.h"
CCPR1 equ 015h ;# 
# 868 "C:\Program Files (x86)\Microchip\xc8\v1.33\include\pic16f877a.h"
CCPR1L equ 015h ;# 
# 874 "C:\Program Files (x86)\Microchip\xc8\v1.33\include\pic16f877a.h"
CCPR1H equ 016h ;# 
# 880 "C:\Program Files (x86)\Microchip\xc8\v1.33\include\pic16f877a.h"
CCP1CON equ 017h ;# 
# 937 "C:\Program Files (x86)\Microchip\xc8\v1.33\include\pic16f877a.h"
RCSTA equ 018h ;# 
# 1031 "C:\Program Files (x86)\Microchip\xc8\v1.33\include\pic16f877a.h"
TXREG equ 019h ;# 
# 1037 "C:\Program Files (x86)\Microchip\xc8\v1.33\include\pic16f877a.h"
RCREG equ 01Ah ;# 
# 1043 "C:\Program Files (x86)\Microchip\xc8\v1.33\include\pic16f877a.h"
CCPR2 equ 01Bh ;# 
# 1049 "C:\Program Files (x86)\Microchip\xc8\v1.33\include\pic16f877a.h"
CCPR2L equ 01Bh ;# 
# 1055 "C:\Program Files (x86)\Microchip\xc8\v1.33\include\pic16f877a.h"
CCPR2H equ 01Ch ;# 
# 1061 "C:\Program Files (x86)\Microchip\xc8\v1.33\include\pic16f877a.h"
CCP2CON equ 01Dh ;# 
# 1118 "C:\Program Files (x86)\Microchip\xc8\v1.33\include\pic16f877a.h"
ADRESH equ 01Eh ;# 
# 1124 "C:\Program Files (x86)\Microchip\xc8\v1.33\include\pic16f877a.h"
ADCON0 equ 01Fh ;# 
# 1219 "C:\Program Files (x86)\Microchip\xc8\v1.33\include\pic16f877a.h"
OPTION_REG equ 081h ;# 
# 1288 "C:\Program Files (x86)\Microchip\xc8\v1.33\include\pic16f877a.h"
TRISA equ 085h ;# 
# 1337 "C:\Program Files (x86)\Microchip\xc8\v1.33\include\pic16f877a.h"
TRISB equ 086h ;# 
# 1398 "C:\Program Files (x86)\Microchip\xc8\v1.33\include\pic16f877a.h"
TRISC equ 087h ;# 
# 1459 "C:\Program Files (x86)\Microchip\xc8\v1.33\include\pic16f877a.h"
TRISD equ 088h ;# 
# 1520 "C:\Program Files (x86)\Microchip\xc8\v1.33\include\pic16f877a.h"
TRISE equ 089h ;# 
# 1576 "C:\Program Files (x86)\Microchip\xc8\v1.33\include\pic16f877a.h"
PIE1 equ 08Ch ;# 
# 1637 "C:\Program Files (x86)\Microchip\xc8\v1.33\include\pic16f877a.h"
PIE2 equ 08Dh ;# 
# 1676 "C:\Program Files (x86)\Microchip\xc8\v1.33\include\pic16f877a.h"
PCON equ 08Eh ;# 
# 1709 "C:\Program Files (x86)\Microchip\xc8\v1.33\include\pic16f877a.h"
SSPCON2 equ 091h ;# 
# 1770 "C:\Program Files (x86)\Microchip\xc8\v1.33\include\pic16f877a.h"
PR2 equ 092h ;# 
# 1776 "C:\Program Files (x86)\Microchip\xc8\v1.33\include\pic16f877a.h"
SSPADD equ 093h ;# 
# 1782 "C:\Program Files (x86)\Microchip\xc8\v1.33\include\pic16f877a.h"
SSPSTAT equ 094h ;# 
# 1950 "C:\Program Files (x86)\Microchip\xc8\v1.33\include\pic16f877a.h"
TXSTA equ 098h ;# 
# 2030 "C:\Program Files (x86)\Microchip\xc8\v1.33\include\pic16f877a.h"
SPBRG equ 099h ;# 
# 2036 "C:\Program Files (x86)\Microchip\xc8\v1.33\include\pic16f877a.h"
CMCON equ 09Ch ;# 
# 2105 "C:\Program Files (x86)\Microchip\xc8\v1.33\include\pic16f877a.h"
CVRCON equ 09Dh ;# 
# 2169 "C:\Program Files (x86)\Microchip\xc8\v1.33\include\pic16f877a.h"
ADRESL equ 09Eh ;# 
# 2175 "C:\Program Files (x86)\Microchip\xc8\v1.33\include\pic16f877a.h"
ADCON1 equ 09Fh ;# 
# 2233 "C:\Program Files (x86)\Microchip\xc8\v1.33\include\pic16f877a.h"
EEDATA equ 010Ch ;# 
# 2239 "C:\Program Files (x86)\Microchip\xc8\v1.33\include\pic16f877a.h"
EEADR equ 010Dh ;# 
# 2245 "C:\Program Files (x86)\Microchip\xc8\v1.33\include\pic16f877a.h"
EEDATH equ 010Eh ;# 
# 2251 "C:\Program Files (x86)\Microchip\xc8\v1.33\include\pic16f877a.h"
EEADRH equ 010Fh ;# 
# 2257 "C:\Program Files (x86)\Microchip\xc8\v1.33\include\pic16f877a.h"
EECON1 equ 018Ch ;# 
# 2301 "C:\Program Files (x86)\Microchip\xc8\v1.33\include\pic16f877a.h"
EECON2 equ 018Dh ;# 
# 49 "C:\Program Files (x86)\Microchip\xc8\v1.33\include\pic16f877a.h"
INDF equ 00h ;# 
# 55 "C:\Program Files (x86)\Microchip\xc8\v1.33\include\pic16f877a.h"
TMR0 equ 01h ;# 
# 61 "C:\Program Files (x86)\Microchip\xc8\v1.33\include\pic16f877a.h"
PCL equ 02h ;# 
# 67 "C:\Program Files (x86)\Microchip\xc8\v1.33\include\pic16f877a.h"
STATUS equ 03h ;# 
# 154 "C:\Program Files (x86)\Microchip\xc8\v1.33\include\pic16f877a.h"
FSR equ 04h ;# 
# 160 "C:\Program Files (x86)\Microchip\xc8\v1.33\include\pic16f877a.h"
PORTA equ 05h ;# 
# 209 "C:\Program Files (x86)\Microchip\xc8\v1.33\include\pic16f877a.h"
PORTB equ 06h ;# 
# 270 "C:\Program Files (x86)\Microchip\xc8\v1.33\include\pic16f877a.h"
PORTC equ 07h ;# 
# 331 "C:\Program Files (x86)\Microchip\xc8\v1.33\include\pic16f877a.h"
PORTD equ 08h ;# 
# 392 "C:\Program Files (x86)\Microchip\xc8\v1.33\include\pic16f877a.h"
PORTE equ 09h ;# 
# 423 "C:\Program Files (x86)\Microchip\xc8\v1.33\include\pic16f877a.h"
PCLATH equ 0Ah ;# 
# 442 "C:\Program Files (x86)\Microchip\xc8\v1.33\include\pic16f877a.h"
INTCON equ 0Bh ;# 
# 519 "C:\Program Files (x86)\Microchip\xc8\v1.33\include\pic16f877a.h"
PIR1 equ 0Ch ;# 
# 580 "C:\Program Files (x86)\Microchip\xc8\v1.33\include\pic16f877a.h"
PIR2 equ 0Dh ;# 
# 619 "C:\Program Files (x86)\Microchip\xc8\v1.33\include\pic16f877a.h"
TMR1 equ 0Eh ;# 
# 625 "C:\Program Files (x86)\Microchip\xc8\v1.33\include\pic16f877a.h"
TMR1L equ 0Eh ;# 
# 631 "C:\Program Files (x86)\Microchip\xc8\v1.33\include\pic16f877a.h"
TMR1H equ 0Fh ;# 
# 637 "C:\Program Files (x86)\Microchip\xc8\v1.33\include\pic16f877a.h"
T1CON equ 010h ;# 
# 711 "C:\Program Files (x86)\Microchip\xc8\v1.33\include\pic16f877a.h"
TMR2 equ 011h ;# 
# 717 "C:\Program Files (x86)\Microchip\xc8\v1.33\include\pic16f877a.h"
T2CON equ 012h ;# 
# 787 "C:\Program Files (x86)\Microchip\xc8\v1.33\include\pic16f877a.h"
SSPBUF equ 013h ;# 
# 793 "C:\Program Files (x86)\Microchip\xc8\v1.33\include\pic16f877a.h"
SSPCON equ 014h ;# 
# 862 "C:\Program Files (x86)\Microchip\xc8\v1.33\include\pic16f877a.h"
CCPR1 equ 015h ;# 
# 868 "C:\Program Files (x86)\Microchip\xc8\v1.33\include\pic16f877a.h"
CCPR1L equ 015h ;# 
# 874 "C:\Program Files (x86)\Microchip\xc8\v1.33\include\pic16f877a.h"
CCPR1H equ 016h ;# 
# 880 "C:\Program Files (x86)\Microchip\xc8\v1.33\include\pic16f877a.h"
CCP1CON equ 017h ;# 
# 937 "C:\Program Files (x86)\Microchip\xc8\v1.33\include\pic16f877a.h"
RCSTA equ 018h ;# 
# 1031 "C:\Program Files (x86)\Microchip\xc8\v1.33\include\pic16f877a.h"
TXREG equ 019h ;# 
# 1037 "C:\Program Files (x86)\Microchip\xc8\v1.33\include\pic16f877a.h"
RCREG equ 01Ah ;# 
# 1043 "C:\Program Files (x86)\Microchip\xc8\v1.33\include\pic16f877a.h"
CCPR2 equ 01Bh ;# 
# 1049 "C:\Program Files (x86)\Microchip\xc8\v1.33\include\pic16f877a.h"
CCPR2L equ 01Bh ;# 
# 1055 "C:\Program Files (x86)\Microchip\xc8\v1.33\include\pic16f877a.h"
CCPR2H equ 01Ch ;# 
# 1061 "C:\Program Files (x86)\Microchip\xc8\v1.33\include\pic16f877a.h"
CCP2CON equ 01Dh ;# 
# 1118 "C:\Program Files (x86)\Microchip\xc8\v1.33\include\pic16f877a.h"
ADRESH equ 01Eh ;# 
# 1124 "C:\Program Files (x86)\Microchip\xc8\v1.33\include\pic16f877a.h"
ADCON0 equ 01Fh ;# 
# 1219 "C:\Program Files (x86)\Microchip\xc8\v1.33\include\pic16f877a.h"
OPTION_REG equ 081h ;# 
# 1288 "C:\Program Files (x86)\Microchip\xc8\v1.33\include\pic16f877a.h"
TRISA equ 085h ;# 
# 1337 "C:\Program Files (x86)\Microchip\xc8\v1.33\include\pic16f877a.h"
TRISB equ 086h ;# 
# 1398 "C:\Program Files (x86)\Microchip\xc8\v1.33\include\pic16f877a.h"
TRISC equ 087h ;# 
# 1459 "C:\Program Files (x86)\Microchip\xc8\v1.33\include\pic16f877a.h"
TRISD equ 088h ;# 
# 1520 "C:\Program Files (x86)\Microchip\xc8\v1.33\include\pic16f877a.h"
TRISE equ 089h ;# 
# 1576 "C:\Program Files (x86)\Microchip\xc8\v1.33\include\pic16f877a.h"
PIE1 equ 08Ch ;# 
# 1637 "C:\Program Files (x86)\Microchip\xc8\v1.33\include\pic16f877a.h"
PIE2 equ 08Dh ;# 
# 1676 "C:\Program Files (x86)\Microchip\xc8\v1.33\include\pic16f877a.h"
PCON equ 08Eh ;# 
# 1709 "C:\Program Files (x86)\Microchip\xc8\v1.33\include\pic16f877a.h"
SSPCON2 equ 091h ;# 
# 1770 "C:\Program Files (x86)\Microchip\xc8\v1.33\include\pic16f877a.h"
PR2 equ 092h ;# 
# 1776 "C:\Program Files (x86)\Microchip\xc8\v1.33\include\pic16f877a.h"
SSPADD equ 093h ;# 
# 1782 "C:\Program Files (x86)\Microchip\xc8\v1.33\include\pic16f877a.h"
SSPSTAT equ 094h ;# 
# 1950 "C:\Program Files (x86)\Microchip\xc8\v1.33\include\pic16f877a.h"
TXSTA equ 098h ;# 
# 2030 "C:\Program Files (x86)\Microchip\xc8\v1.33\include\pic16f877a.h"
SPBRG equ 099h ;# 
# 2036 "C:\Program Files (x86)\Microchip\xc8\v1.33\include\pic16f877a.h"
CMCON equ 09Ch ;# 
# 2105 "C:\Program Files (x86)\Microchip\xc8\v1.33\include\pic16f877a.h"
CVRCON equ 09Dh ;# 
# 2169 "C:\Program Files (x86)\Microchip\xc8\v1.33\include\pic16f877a.h"
ADRESL equ 09Eh ;# 
# 2175 "C:\Program Files (x86)\Microchip\xc8\v1.33\include\pic16f877a.h"
ADCON1 equ 09Fh ;# 
# 2233 "C:\Program Files (x86)\Microchip\xc8\v1.33\include\pic16f877a.h"
EEDATA equ 010Ch ;# 
# 2239 "C:\Program Files (x86)\Microchip\xc8\v1.33\include\pic16f877a.h"
EEADR equ 010Dh ;# 
# 2245 "C:\Program Files (x86)\Microchip\xc8\v1.33\include\pic16f877a.h"
EEDATH equ 010Eh ;# 
# 2251 "C:\Program Files (x86)\Microchip\xc8\v1.33\include\pic16f877a.h"
EEADRH equ 010Fh ;# 
# 2257 "C:\Program Files (x86)\Microchip\xc8\v1.33\include\pic16f877a.h"
EECON1 equ 018Ch ;# 
# 2301 "C:\Program Files (x86)\Microchip\xc8\v1.33\include\pic16f877a.h"
EECON2 equ 018Dh ;# 
# 49 "C:\Program Files (x86)\Microchip\xc8\v1.33\include\pic16f877a.h"
INDF equ 00h ;# 
# 55 "C:\Program Files (x86)\Microchip\xc8\v1.33\include\pic16f877a.h"
TMR0 equ 01h ;# 
# 61 "C:\Program Files (x86)\Microchip\xc8\v1.33\include\pic16f877a.h"
PCL equ 02h ;# 
# 67 "C:\Program Files (x86)\Microchip\xc8\v1.33\include\pic16f877a.h"
STATUS equ 03h ;# 
# 154 "C:\Program Files (x86)\Microchip\xc8\v1.33\include\pic16f877a.h"
FSR equ 04h ;# 
# 160 "C:\Program Files (x86)\Microchip\xc8\v1.33\include\pic16f877a.h"
PORTA equ 05h ;# 
# 209 "C:\Program Files (x86)\Microchip\xc8\v1.33\include\pic16f877a.h"
PORTB equ 06h ;# 
# 270 "C:\Program Files (x86)\Microchip\xc8\v1.33\include\pic16f877a.h"
PORTC equ 07h ;# 
# 331 "C:\Program Files (x86)\Microchip\xc8\v1.33\include\pic16f877a.h"
PORTD equ 08h ;# 
# 392 "C:\Program Files (x86)\Microchip\xc8\v1.33\include\pic16f877a.h"
PORTE equ 09h ;# 
# 423 "C:\Program Files (x86)\Microchip\xc8\v1.33\include\pic16f877a.h"
PCLATH equ 0Ah ;# 
# 442 "C:\Program Files (x86)\Microchip\xc8\v1.33\include\pic16f877a.h"
INTCON equ 0Bh ;# 
# 519 "C:\Program Files (x86)\Microchip\xc8\v1.33\include\pic16f877a.h"
PIR1 equ 0Ch ;# 
# 580 "C:\Program Files (x86)\Microchip\xc8\v1.33\include\pic16f877a.h"
PIR2 equ 0Dh ;# 
# 619 "C:\Program Files (x86)\Microchip\xc8\v1.33\include\pic16f877a.h"
TMR1 equ 0Eh ;# 
# 625 "C:\Program Files (x86)\Microchip\xc8\v1.33\include\pic16f877a.h"
TMR1L equ 0Eh ;# 
# 631 "C:\Program Files (x86)\Microchip\xc8\v1.33\include\pic16f877a.h"
TMR1H equ 0Fh ;# 
# 637 "C:\Program Files (x86)\Microchip\xc8\v1.33\include\pic16f877a.h"
T1CON equ 010h ;# 
# 711 "C:\Program Files (x86)\Microchip\xc8\v1.33\include\pic16f877a.h"
TMR2 equ 011h ;# 
# 717 "C:\Program Files (x86)\Microchip\xc8\v1.33\include\pic16f877a.h"
T2CON equ 012h ;# 
# 787 "C:\Program Files (x86)\Microchip\xc8\v1.33\include\pic16f877a.h"
SSPBUF equ 013h ;# 
# 793 "C:\Program Files (x86)\Microchip\xc8\v1.33\include\pic16f877a.h"
SSPCON equ 014h ;# 
# 862 "C:\Program Files (x86)\Microchip\xc8\v1.33\include\pic16f877a.h"
CCPR1 equ 015h ;# 
# 868 "C:\Program Files (x86)\Microchip\xc8\v1.33\include\pic16f877a.h"
CCPR1L equ 015h ;# 
# 874 "C:\Program Files (x86)\Microchip\xc8\v1.33\include\pic16f877a.h"
CCPR1H equ 016h ;# 
# 880 "C:\Program Files (x86)\Microchip\xc8\v1.33\include\pic16f877a.h"
CCP1CON equ 017h ;# 
# 937 "C:\Program Files (x86)\Microchip\xc8\v1.33\include\pic16f877a.h"
RCSTA equ 018h ;# 
# 1031 "C:\Program Files (x86)\Microchip\xc8\v1.33\include\pic16f877a.h"
TXREG equ 019h ;# 
# 1037 "C:\Program Files (x86)\Microchip\xc8\v1.33\include\pic16f877a.h"
RCREG equ 01Ah ;# 
# 1043 "C:\Program Files (x86)\Microchip\xc8\v1.33\include\pic16f877a.h"
CCPR2 equ 01Bh ;# 
# 1049 "C:\Program Files (x86)\Microchip\xc8\v1.33\include\pic16f877a.h"
CCPR2L equ 01Bh ;# 
# 1055 "C:\Program Files (x86)\Microchip\xc8\v1.33\include\pic16f877a.h"
CCPR2H equ 01Ch ;# 
# 1061 "C:\Program Files (x86)\Microchip\xc8\v1.33\include\pic16f877a.h"
CCP2CON equ 01Dh ;# 
# 1118 "C:\Program Files (x86)\Microchip\xc8\v1.33\include\pic16f877a.h"
ADRESH equ 01Eh ;# 
# 1124 "C:\Program Files (x86)\Microchip\xc8\v1.33\include\pic16f877a.h"
ADCON0 equ 01Fh ;# 
# 1219 "C:\Program Files (x86)\Microchip\xc8\v1.33\include\pic16f877a.h"
OPTION_REG equ 081h ;# 
# 1288 "C:\Program Files (x86)\Microchip\xc8\v1.33\include\pic16f877a.h"
TRISA equ 085h ;# 
# 1337 "C:\Program Files (x86)\Microchip\xc8\v1.33\include\pic16f877a.h"
TRISB equ 086h ;# 
# 1398 "C:\Program Files (x86)\Microchip\xc8\v1.33\include\pic16f877a.h"
TRISC equ 087h ;# 
# 1459 "C:\Program Files (x86)\Microchip\xc8\v1.33\include\pic16f877a.h"
TRISD equ 088h ;# 
# 1520 "C:\Program Files (x86)\Microchip\xc8\v1.33\include\pic16f877a.h"
TRISE equ 089h ;# 
# 1576 "C:\Program Files (x86)\Microchip\xc8\v1.33\include\pic16f877a.h"
PIE1 equ 08Ch ;# 
# 1637 "C:\Program Files (x86)\Microchip\xc8\v1.33\include\pic16f877a.h"
PIE2 equ 08Dh ;# 
# 1676 "C:\Program Files (x86)\Microchip\xc8\v1.33\include\pic16f877a.h"
PCON equ 08Eh ;# 
# 1709 "C:\Program Files (x86)\Microchip\xc8\v1.33\include\pic16f877a.h"
SSPCON2 equ 091h ;# 
# 1770 "C:\Program Files (x86)\Microchip\xc8\v1.33\include\pic16f877a.h"
PR2 equ 092h ;# 
# 1776 "C:\Program Files (x86)\Microchip\xc8\v1.33\include\pic16f877a.h"
SSPADD equ 093h ;# 
# 1782 "C:\Program Files (x86)\Microchip\xc8\v1.33\include\pic16f877a.h"
SSPSTAT equ 094h ;# 
# 1950 "C:\Program Files (x86)\Microchip\xc8\v1.33\include\pic16f877a.h"
TXSTA equ 098h ;# 
# 2030 "C:\Program Files (x86)\Microchip\xc8\v1.33\include\pic16f877a.h"
SPBRG equ 099h ;# 
# 2036 "C:\Program Files (x86)\Microchip\xc8\v1.33\include\pic16f877a.h"
CMCON equ 09Ch ;# 
# 2105 "C:\Program Files (x86)\Microchip\xc8\v1.33\include\pic16f877a.h"
CVRCON equ 09Dh ;# 
# 2169 "C:\Program Files (x86)\Microchip\xc8\v1.33\include\pic16f877a.h"
ADRESL equ 09Eh ;# 
# 2175 "C:\Program Files (x86)\Microchip\xc8\v1.33\include\pic16f877a.h"
ADCON1 equ 09Fh ;# 
# 2233 "C:\Program Files (x86)\Microchip\xc8\v1.33\include\pic16f877a.h"
EEDATA equ 010Ch ;# 
# 2239 "C:\Program Files (x86)\Microchip\xc8\v1.33\include\pic16f877a.h"
EEADR equ 010Dh ;# 
# 2245 "C:\Program Files (x86)\Microchip\xc8\v1.33\include\pic16f877a.h"
EEDATH equ 010Eh ;# 
# 2251 "C:\Program Files (x86)\Microchip\xc8\v1.33\include\pic16f877a.h"
EEADRH equ 010Fh ;# 
# 2257 "C:\Program Files (x86)\Microchip\xc8\v1.33\include\pic16f877a.h"
EECON1 equ 018Ch ;# 
# 2301 "C:\Program Files (x86)\Microchip\xc8\v1.33\include\pic16f877a.h"
EECON2 equ 018Dh ;# 
# 49 "C:\Program Files (x86)\Microchip\xc8\v1.33\include\pic16f877a.h"
INDF equ 00h ;# 
# 55 "C:\Program Files (x86)\Microchip\xc8\v1.33\include\pic16f877a.h"
TMR0 equ 01h ;# 
# 61 "C:\Program Files (x86)\Microchip\xc8\v1.33\include\pic16f877a.h"
PCL equ 02h ;# 
# 67 "C:\Program Files (x86)\Microchip\xc8\v1.33\include\pic16f877a.h"
STATUS equ 03h ;# 
# 154 "C:\Program Files (x86)\Microchip\xc8\v1.33\include\pic16f877a.h"
FSR equ 04h ;# 
# 160 "C:\Program Files (x86)\Microchip\xc8\v1.33\include\pic16f877a.h"
PORTA equ 05h ;# 
# 209 "C:\Program Files (x86)\Microchip\xc8\v1.33\include\pic16f877a.h"
PORTB equ 06h ;# 
# 270 "C:\Program Files (x86)\Microchip\xc8\v1.33\include\pic16f877a.h"
PORTC equ 07h ;# 
# 331 "C:\Program Files (x86)\Microchip\xc8\v1.33\include\pic16f877a.h"
PORTD equ 08h ;# 
# 392 "C:\Program Files (x86)\Microchip\xc8\v1.33\include\pic16f877a.h"
PORTE equ 09h ;# 
# 423 "C:\Program Files (x86)\Microchip\xc8\v1.33\include\pic16f877a.h"
PCLATH equ 0Ah ;# 
# 442 "C:\Program Files (x86)\Microchip\xc8\v1.33\include\pic16f877a.h"
INTCON equ 0Bh ;# 
# 519 "C:\Program Files (x86)\Microchip\xc8\v1.33\include\pic16f877a.h"
PIR1 equ 0Ch ;# 
# 580 "C:\Program Files (x86)\Microchip\xc8\v1.33\include\pic16f877a.h"
PIR2 equ 0Dh ;# 
# 619 "C:\Program Files (x86)\Microchip\xc8\v1.33\include\pic16f877a.h"
TMR1 equ 0Eh ;# 
# 625 "C:\Program Files (x86)\Microchip\xc8\v1.33\include\pic16f877a.h"
TMR1L equ 0Eh ;# 
# 631 "C:\Program Files (x86)\Microchip\xc8\v1.33\include\pic16f877a.h"
TMR1H equ 0Fh ;# 
# 637 "C:\Program Files (x86)\Microchip\xc8\v1.33\include\pic16f877a.h"
T1CON equ 010h ;# 
# 711 "C:\Program Files (x86)\Microchip\xc8\v1.33\include\pic16f877a.h"
TMR2 equ 011h ;# 
# 717 "C:\Program Files (x86)\Microchip\xc8\v1.33\include\pic16f877a.h"
T2CON equ 012h ;# 
# 787 "C:\Program Files (x86)\Microchip\xc8\v1.33\include\pic16f877a.h"
SSPBUF equ 013h ;# 
# 793 "C:\Program Files (x86)\Microchip\xc8\v1.33\include\pic16f877a.h"
SSPCON equ 014h ;# 
# 862 "C:\Program Files (x86)\Microchip\xc8\v1.33\include\pic16f877a.h"
CCPR1 equ 015h ;# 
# 868 "C:\Program Files (x86)\Microchip\xc8\v1.33\include\pic16f877a.h"
CCPR1L equ 015h ;# 
# 874 "C:\Program Files (x86)\Microchip\xc8\v1.33\include\pic16f877a.h"
CCPR1H equ 016h ;# 
# 880 "C:\Program Files (x86)\Microchip\xc8\v1.33\include\pic16f877a.h"
CCP1CON equ 017h ;# 
# 937 "C:\Program Files (x86)\Microchip\xc8\v1.33\include\pic16f877a.h"
RCSTA equ 018h ;# 
# 1031 "C:\Program Files (x86)\Microchip\xc8\v1.33\include\pic16f877a.h"
TXREG equ 019h ;# 
# 1037 "C:\Program Files (x86)\Microchip\xc8\v1.33\include\pic16f877a.h"
RCREG equ 01Ah ;# 
# 1043 "C:\Program Files (x86)\Microchip\xc8\v1.33\include\pic16f877a.h"
CCPR2 equ 01Bh ;# 
# 1049 "C:\Program Files (x86)\Microchip\xc8\v1.33\include\pic16f877a.h"
CCPR2L equ 01Bh ;# 
# 1055 "C:\Program Files (x86)\Microchip\xc8\v1.33\include\pic16f877a.h"
CCPR2H equ 01Ch ;# 
# 1061 "C:\Program Files (x86)\Microchip\xc8\v1.33\include\pic16f877a.h"
CCP2CON equ 01Dh ;# 
# 1118 "C:\Program Files (x86)\Microchip\xc8\v1.33\include\pic16f877a.h"
ADRESH equ 01Eh ;# 
# 1124 "C:\Program Files (x86)\Microchip\xc8\v1.33\include\pic16f877a.h"
ADCON0 equ 01Fh ;# 
# 1219 "C:\Program Files (x86)\Microchip\xc8\v1.33\include\pic16f877a.h"
OPTION_REG equ 081h ;# 
# 1288 "C:\Program Files (x86)\Microchip\xc8\v1.33\include\pic16f877a.h"
TRISA equ 085h ;# 
# 1337 "C:\Program Files (x86)\Microchip\xc8\v1.33\include\pic16f877a.h"
TRISB equ 086h ;# 
# 1398 "C:\Program Files (x86)\Microchip\xc8\v1.33\include\pic16f877a.h"
TRISC equ 087h ;# 
# 1459 "C:\Program Files (x86)\Microchip\xc8\v1.33\include\pic16f877a.h"
TRISD equ 088h ;# 
# 1520 "C:\Program Files (x86)\Microchip\xc8\v1.33\include\pic16f877a.h"
TRISE equ 089h ;# 
# 1576 "C:\Program Files (x86)\Microchip\xc8\v1.33\include\pic16f877a.h"
PIE1 equ 08Ch ;# 
# 1637 "C:\Program Files (x86)\Microchip\xc8\v1.33\include\pic16f877a.h"
PIE2 equ 08Dh ;# 
# 1676 "C:\Program Files (x86)\Microchip\xc8\v1.33\include\pic16f877a.h"
PCON equ 08Eh ;# 
# 1709 "C:\Program Files (x86)\Microchip\xc8\v1.33\include\pic16f877a.h"
SSPCON2 equ 091h ;# 
# 1770 "C:\Program Files (x86)\Microchip\xc8\v1.33\include\pic16f877a.h"
PR2 equ 092h ;# 
# 1776 "C:\Program Files (x86)\Microchip\xc8\v1.33\include\pic16f877a.h"
SSPADD equ 093h ;# 
# 1782 "C:\Program Files (x86)\Microchip\xc8\v1.33\include\pic16f877a.h"
SSPSTAT equ 094h ;# 
# 1950 "C:\Program Files (x86)\Microchip\xc8\v1.33\include\pic16f877a.h"
TXSTA equ 098h ;# 
# 2030 "C:\Program Files (x86)\Microchip\xc8\v1.33\include\pic16f877a.h"
SPBRG equ 099h ;# 
# 2036 "C:\Program Files (x86)\Microchip\xc8\v1.33\include\pic16f877a.h"
CMCON equ 09Ch ;# 
# 2105 "C:\Program Files (x86)\Microchip\xc8\v1.33\include\pic16f877a.h"
CVRCON equ 09Dh ;# 
# 2169 "C:\Program Files (x86)\Microchip\xc8\v1.33\include\pic16f877a.h"
ADRESL equ 09Eh ;# 
# 2175 "C:\Program Files (x86)\Microchip\xc8\v1.33\include\pic16f877a.h"
ADCON1 equ 09Fh ;# 
# 2233 "C:\Program Files (x86)\Microchip\xc8\v1.33\include\pic16f877a.h"
EEDATA equ 010Ch ;# 
# 2239 "C:\Program Files (x86)\Microchip\xc8\v1.33\include\pic16f877a.h"
EEADR equ 010Dh ;# 
# 2245 "C:\Program Files (x86)\Microchip\xc8\v1.33\include\pic16f877a.h"
EEDATH equ 010Eh ;# 
# 2251 "C:\Program Files (x86)\Microchip\xc8\v1.33\include\pic16f877a.h"
EEADRH equ 010Fh ;# 
# 2257 "C:\Program Files (x86)\Microchip\xc8\v1.33\include\pic16f877a.h"
EECON1 equ 018Ch ;# 
# 2301 "C:\Program Files (x86)\Microchip\xc8\v1.33\include\pic16f877a.h"
EECON2 equ 018Dh ;# 
# 49 "C:\Program Files (x86)\Microchip\xc8\v1.33\include\pic16f877a.h"
INDF equ 00h ;# 
# 55 "C:\Program Files (x86)\Microchip\xc8\v1.33\include\pic16f877a.h"
TMR0 equ 01h ;# 
# 61 "C:\Program Files (x86)\Microchip\xc8\v1.33\include\pic16f877a.h"
PCL equ 02h ;# 
# 67 "C:\Program Files (x86)\Microchip\xc8\v1.33\include\pic16f877a.h"
STATUS equ 03h ;# 
# 154 "C:\Program Files (x86)\Microchip\xc8\v1.33\include\pic16f877a.h"
FSR equ 04h ;# 
# 160 "C:\Program Files (x86)\Microchip\xc8\v1.33\include\pic16f877a.h"
PORTA equ 05h ;# 
# 209 "C:\Program Files (x86)\Microchip\xc8\v1.33\include\pic16f877a.h"
PORTB equ 06h ;# 
# 270 "C:\Program Files (x86)\Microchip\xc8\v1.33\include\pic16f877a.h"
PORTC equ 07h ;# 
# 331 "C:\Program Files (x86)\Microchip\xc8\v1.33\include\pic16f877a.h"
PORTD equ 08h ;# 
# 392 "C:\Program Files (x86)\Microchip\xc8\v1.33\include\pic16f877a.h"
PORTE equ 09h ;# 
# 423 "C:\Program Files (x86)\Microchip\xc8\v1.33\include\pic16f877a.h"
PCLATH equ 0Ah ;# 
# 442 "C:\Program Files (x86)\Microchip\xc8\v1.33\include\pic16f877a.h"
INTCON equ 0Bh ;# 
# 519 "C:\Program Files (x86)\Microchip\xc8\v1.33\include\pic16f877a.h"
PIR1 equ 0Ch ;# 
# 580 "C:\Program Files (x86)\Microchip\xc8\v1.33\include\pic16f877a.h"
PIR2 equ 0Dh ;# 
# 619 "C:\Program Files (x86)\Microchip\xc8\v1.33\include\pic16f877a.h"
TMR1 equ 0Eh ;# 
# 625 "C:\Program Files (x86)\Microchip\xc8\v1.33\include\pic16f877a.h"
TMR1L equ 0Eh ;# 
# 631 "C:\Program Files (x86)\Microchip\xc8\v1.33\include\pic16f877a.h"
TMR1H equ 0Fh ;# 
# 637 "C:\Program Files (x86)\Microchip\xc8\v1.33\include\pic16f877a.h"
T1CON equ 010h ;# 
# 711 "C:\Program Files (x86)\Microchip\xc8\v1.33\include\pic16f877a.h"
TMR2 equ 011h ;# 
# 717 "C:\Program Files (x86)\Microchip\xc8\v1.33\include\pic16f877a.h"
T2CON equ 012h ;# 
# 787 "C:\Program Files (x86)\Microchip\xc8\v1.33\include\pic16f877a.h"
SSPBUF equ 013h ;# 
# 793 "C:\Program Files (x86)\Microchip\xc8\v1.33\include\pic16f877a.h"
SSPCON equ 014h ;# 
# 862 "C:\Program Files (x86)\Microchip\xc8\v1.33\include\pic16f877a.h"
CCPR1 equ 015h ;# 
# 868 "C:\Program Files (x86)\Microchip\xc8\v1.33\include\pic16f877a.h"
CCPR1L equ 015h ;# 
# 874 "C:\Program Files (x86)\Microchip\xc8\v1.33\include\pic16f877a.h"
CCPR1H equ 016h ;# 
# 880 "C:\Program Files (x86)\Microchip\xc8\v1.33\include\pic16f877a.h"
CCP1CON equ 017h ;# 
# 937 "C:\Program Files (x86)\Microchip\xc8\v1.33\include\pic16f877a.h"
RCSTA equ 018h ;# 
# 1031 "C:\Program Files (x86)\Microchip\xc8\v1.33\include\pic16f877a.h"
TXREG equ 019h ;# 
# 1037 "C:\Program Files (x86)\Microchip\xc8\v1.33\include\pic16f877a.h"
RCREG equ 01Ah ;# 
# 1043 "C:\Program Files (x86)\Microchip\xc8\v1.33\include\pic16f877a.h"
CCPR2 equ 01Bh ;# 
# 1049 "C:\Program Files (x86)\Microchip\xc8\v1.33\include\pic16f877a.h"
CCPR2L equ 01Bh ;# 
# 1055 "C:\Program Files (x86)\Microchip\xc8\v1.33\include\pic16f877a.h"
CCPR2H equ 01Ch ;# 
# 1061 "C:\Program Files (x86)\Microchip\xc8\v1.33\include\pic16f877a.h"
CCP2CON equ 01Dh ;# 
# 1118 "C:\Program Files (x86)\Microchip\xc8\v1.33\include\pic16f877a.h"
ADRESH equ 01Eh ;# 
# 1124 "C:\Program Files (x86)\Microchip\xc8\v1.33\include\pic16f877a.h"
ADCON0 equ 01Fh ;# 
# 1219 "C:\Program Files (x86)\Microchip\xc8\v1.33\include\pic16f877a.h"
OPTION_REG equ 081h ;# 
# 1288 "C:\Program Files (x86)\Microchip\xc8\v1.33\include\pic16f877a.h"
TRISA equ 085h ;# 
# 1337 "C:\Program Files (x86)\Microchip\xc8\v1.33\include\pic16f877a.h"
TRISB equ 086h ;# 
# 1398 "C:\Program Files (x86)\Microchip\xc8\v1.33\include\pic16f877a.h"
TRISC equ 087h ;# 
# 1459 "C:\Program Files (x86)\Microchip\xc8\v1.33\include\pic16f877a.h"
TRISD equ 088h ;# 
# 1520 "C:\Program Files (x86)\Microchip\xc8\v1.33\include\pic16f877a.h"
TRISE equ 089h ;# 
# 1576 "C:\Program Files (x86)\Microchip\xc8\v1.33\include\pic16f877a.h"
PIE1 equ 08Ch ;# 
# 1637 "C:\Program Files (x86)\Microchip\xc8\v1.33\include\pic16f877a.h"
PIE2 equ 08Dh ;# 
# 1676 "C:\Program Files (x86)\Microchip\xc8\v1.33\include\pic16f877a.h"
PCON equ 08Eh ;# 
# 1709 "C:\Program Files (x86)\Microchip\xc8\v1.33\include\pic16f877a.h"
SSPCON2 equ 091h ;# 
# 1770 "C:\Program Files (x86)\Microchip\xc8\v1.33\include\pic16f877a.h"
PR2 equ 092h ;# 
# 1776 "C:\Program Files (x86)\Microchip\xc8\v1.33\include\pic16f877a.h"
SSPADD equ 093h ;# 
# 1782 "C:\Program Files (x86)\Microchip\xc8\v1.33\include\pic16f877a.h"
SSPSTAT equ 094h ;# 
# 1950 "C:\Program Files (x86)\Microchip\xc8\v1.33\include\pic16f877a.h"
TXSTA equ 098h ;# 
# 2030 "C:\Program Files (x86)\Microchip\xc8\v1.33\include\pic16f877a.h"
SPBRG equ 099h ;# 
# 2036 "C:\Program Files (x86)\Microchip\xc8\v1.33\include\pic16f877a.h"
CMCON equ 09Ch ;# 
# 2105 "C:\Program Files (x86)\Microchip\xc8\v1.33\include\pic16f877a.h"
CVRCON equ 09Dh ;# 
# 2169 "C:\Program Files (x86)\Microchip\xc8\v1.33\include\pic16f877a.h"
ADRESL equ 09Eh ;# 
# 2175 "C:\Program Files (x86)\Microchip\xc8\v1.33\include\pic16f877a.h"
ADCON1 equ 09Fh ;# 
# 2233 "C:\Program Files (x86)\Microchip\xc8\v1.33\include\pic16f877a.h"
EEDATA equ 010Ch ;# 
# 2239 "C:\Program Files (x86)\Microchip\xc8\v1.33\include\pic16f877a.h"
EEADR equ 010Dh ;# 
# 2245 "C:\Program Files (x86)\Microchip\xc8\v1.33\include\pic16f877a.h"
EEDATH equ 010Eh ;# 
# 2251 "C:\Program Files (x86)\Microchip\xc8\v1.33\include\pic16f877a.h"
EEADRH equ 010Fh ;# 
# 2257 "C:\Program Files (x86)\Microchip\xc8\v1.33\include\pic16f877a.h"
EECON1 equ 018Ch ;# 
# 2301 "C:\Program Files (x86)\Microchip\xc8\v1.33\include\pic16f877a.h"
EECON2 equ 018Dh ;# 
	FNCALL	_main,_ADC_Init
	FNCALL	_main,_LCD_Clear
	FNCALL	_main,_LCD_Cursor
	FNCALL	_main,_LCD_Init
	FNCALL	_main,_LCD_WriteString
	FNCALL	_main,_PWM_DutyCycle1
	FNCALL	_main,_PWM_DutyCycle2
	FNCALL	_main,_PWM_Init
	FNCALL	_main,_TIMER0_Init
	FNCALL	_main,_TIMER0_Set
	FNCALL	_main,_USART_Init
	FNCALL	_USART_Init,___aldiv
	FNCALL	_LCD_WriteString,_LCD_WriteData
	FNCALL	_LCD_Init,_LCD_WriteCmd
	FNCALL	_LCD_Clear,_LCD_WriteCmd
	FNROOT	_main
	FNCALL	_ISR,_Fuzzy
	FNCALL	_ISR,_USART_ReceiveChar
	FNCALL	_ISR,_USART_WriteString
	FNCALL	_ISR,___lwdiv
	FNCALL	_ISR,___wmul
	FNCALL	_ISR,_send
	FNCALL	_ISR,i1_PWM_DutyCycle2
	FNCALL	_ISR,i1_TIMER0_Set
	FNCALL	_send,_USART_WriteChar
	FNCALL	_send,___wmul
	FNCALL	_USART_ReceiveChar,_USART_WriteString
	FNCALL	_USART_WriteString,_USART_WriteChar
	FNCALL	_Fuzzy,___fttol
	FNCALL	_Fuzzy,i1_PWM_DutyCycle2
	FNCALL	intlevel1,_ISR
	global	intlevel1
	FNROOT	intlevel1
	global	_antigo
	global	_pas_cooler
	global	_pwm
	global	_setpoint
psect	idataBANK0,class=CODE,space=0,delta=2,noexec
global __pidataBANK0
__pidataBANK0:
	file	"R:\Note\Sistema I\Ultimo C no MPLAB\main.c"
	line	55

;initializer for _antigo
	retlw	0x0
	retlw	0x48
	retlw	0x42

	line	26

;initializer for _pas_cooler
	retlw	07h
	retlw	0

	line	29

;initializer for _pwm
	retlw	032h
	retlw	0

psect	idataBANK1,class=CODE,space=0,delta=2,noexec
global __pidataBANK1
__pidataBANK1:
	line	56

;initializer for _setpoint
	retlw	0x0
	retlw	0xa0
	retlw	0x41

	global	_fitemp
	global	_fop_rule1
	global	_x
	global	_y
	global	_ADCResult
	global	_antigoUI
	global	_contagens_tm0
	global	_deltaV
	global	_pulsos
	global	_rpm
	global	_setpointUI
	global	_status
	global	_buffer
	global	_ativa_fan
	global	_fop_rule2
	global	_fop_rule3
	global	_sum
	global	_total_area
	global	_display_rpm
	global	_TMR1
_TMR1	set	0xE
	global	_ADCON0bits
_ADCON0bits	set	0x1F
	global	_ADRESH
_ADRESH	set	0x1E
	global	_CCP1CON
_CCP1CON	set	0x17
	global	_CCP1CONbits
_CCP1CONbits	set	0x17
	global	_CCP2CON
_CCP2CON	set	0x1D
	global	_CCP2CONbits
_CCP2CONbits	set	0x1D
	global	_CCPR1L
_CCPR1L	set	0x15
	global	_CCPR2L
_CCPR2L	set	0x1B
	global	_INTCONbits
_INTCONbits	set	0xB
	global	_PIR1bits
_PIR1bits	set	0xC
	global	_PIR2bits
_PIR2bits	set	0xD
	global	_PORTA
_PORTA	set	0x5
	global	_PORTB
_PORTB	set	0x6
	global	_PORTBbits
_PORTBbits	set	0x6
	global	_PORTC
_PORTC	set	0x7
	global	_PORTD
_PORTD	set	0x8
	global	_PORTE
_PORTE	set	0x9
	global	_PORTEbits
_PORTEbits	set	0x9
	global	_RCREG
_RCREG	set	0x1A
	global	_RCSTAbits
_RCSTAbits	set	0x18
	global	_SSPBUF
_SSPBUF	set	0x13
	global	_SSPCONbits
_SSPCONbits	set	0x14
	global	_T1CON
_T1CON	set	0x10
	global	_T1CONbits
_T1CONbits	set	0x10
	global	_T2CONbits
_T2CONbits	set	0x12
	global	_TMR0
_TMR0	set	0x1
	global	_TMR1H
_TMR1H	set	0xF
	global	_TMR1L
_TMR1L	set	0xE
	global	_TXREG
_TXREG	set	0x19
	global	_OERR
_OERR	set	0xC1
	global	_ADCON1bits
_ADCON1bits	set	0x9F
	global	_ADRESL
_ADRESL	set	0x9E
	global	_OPTION_REGbits
_OPTION_REGbits	set	0x81
	global	_PIE1bits
_PIE1bits	set	0x8C
	global	_PIE2bits
_PIE2bits	set	0x8D
	global	_PR2
_PR2	set	0x92
	global	_SPBRG
_SPBRG	set	0x99
	global	_SSPADD
_SSPADD	set	0x93
	global	_SSPCON2
_SSPCON2	set	0x91
	global	_SSPCON2bits
_SSPCON2bits	set	0x91
	global	_SSPSTATbits
_SSPSTATbits	set	0x94
	global	_TRISA
_TRISA	set	0x85
	global	_TRISB
_TRISB	set	0x86
	global	_TRISC
_TRISC	set	0x87
	global	_TRISD
_TRISD	set	0x88
	global	_TRISE
_TRISE	set	0x89
	global	_TXSTAbits
_TXSTAbits	set	0x98
	global	_EEADR
_EEADR	set	0x10D
	global	_EEDATA
_EEDATA	set	0x10C
	global	_EECON1bits
_EECON1bits	set	0x18C
	global	_EECON2
_EECON2	set	0x18D
psect	strings,class=STRING,delta=2,noexec
global __pstrings
__pstrings:
stringtab:
	global    __stringtab
__stringtab:
;	String table - string pointers are 1 byte each
	btfsc	(btemp+1),7
	ljmp	stringcode
	bcf	status,7
	btfsc	(btemp+1),0
	bsf	status,7
	movf	indf,w
	incf fsr
skipnz
incf btemp+1
	return
stringcode:stringdir:
movlw high(stringdir)
movwf pclath
movf fsr,w
incf fsr
	addwf pc
	global __stringbase
__stringbase:
	retlw	0
psect	strings
	global    __end_of__stringtab
__end_of__stringtab:
	global __stringdata
__stringdata:
	
STR_4:	
	retlw	10
	retlw	13
	retlw	32	;' '
	retlw	45	;'-'
	retlw	45	;'-'
	retlw	45	;'-'
	retlw	45	;'-'
	retlw	45	;'-'
	retlw	45	;'-'
	retlw	45	;'-'
	retlw	32	;' '
	retlw	69	;'E'
	retlw	83	;'S'
	retlw	84	;'T'
	retlw	79	;'O'
	retlw	85	;'U'
	retlw	82	;'R'
	retlw	79	;'O'
	retlw	32	;' '
	retlw	68	;'D'
	retlw	69	;'E'
	retlw	32	;' '
	retlw	80	;'P'
	retlw	73	;'I'
	retlw	76	;'L'
	retlw	72	;'H'
	retlw	65	;'A'
	retlw	32	;' '
	retlw	45	;'-'
	retlw	45	;'-'
	retlw	45	;'-'
	retlw	45	;'-'
	retlw	45	;'-'
	retlw	45	;'-'
	retlw	45	;'-'
	retlw	32	;' '
	retlw	10
	retlw	13
	retlw	32	;' '
	retlw	0
psect	strings
	
STR_2:	
	retlw	73	;'I'
	retlw	110	;'n'
	retlw	105	;'i'
	retlw	99	;'c'
	retlw	105	;'i'
	retlw	97	;'a'
	retlw	108	;'l'
	retlw	105	;'i'
	retlw	122	;'z'
	retlw	97	;'a'
	retlw	110	;'n'
	retlw	100	;'d'
	retlw	111	;'o'
	retlw	46	;'.'
	retlw	46	;'.'
	retlw	46	;'.'
	retlw	0
psect	strings
	
STR_1:	
	retlw	10
	retlw	13
	retlw	100	;'d'
	retlw	101	;'e'
	retlw	115	;'s'
	retlw	108	;'l'
	retlw	105	;'i'
	retlw	103	;'g'
	retlw	97	;'a'
	retlw	100	;'d'
	retlw	111	;'o'
	retlw	10
	retlw	13
	retlw	0
psect	strings
	
STR_3:	
	retlw	107	;'k'
	retlw	109	;'m'
	retlw	72	;'H'
	retlw	58	;':'
	retlw	32	;' '
	retlw	0
psect	strings
	global __end_of__stringdata
__end_of__stringdata:
; #config settings
global __CFG_WDTE$OFF
__CFG_WDTE$OFF equ 0x0
global __CFG_PWRTE$ON
__CFG_PWRTE$ON equ 0x0
global __CFG_CP$OFF
__CFG_CP$OFF equ 0x0
global __CFG_BOREN$OFF
__CFG_BOREN$OFF equ 0x0
global __CFG_LVP$OFF
__CFG_LVP$OFF equ 0x0
global __CFG_CPD$OFF
__CFG_CPD$OFF equ 0x0
global __CFG_FOSC$HS
__CFG_FOSC$HS equ 0x0
	file	"PIC16F877A.as"
	line	#
psect cinit,class=CODE,delta=2
global start_initialization
start_initialization:

global __initialization
__initialization:
psect	bssBANK0,class=BANK0,space=1,noexec
global __pbssBANK0
__pbssBANK0:
_fitemp:
       ds      3

_fop_rule1:
       ds      3

_x:
       ds      3

_y:
       ds      3

_ADCResult:
       ds      2

_antigoUI:
       ds      2

_contagens_tm0:
       ds      2

_deltaV:
       ds      2

_pulsos:
       ds      2

_rpm:
       ds      2

_setpointUI:
       ds      2

_status:
       ds      2

psect	dataBANK0,class=BANK0,space=1,noexec
global __pdataBANK0
__pdataBANK0:
	file	"R:\Note\Sistema I\Ultimo C no MPLAB\main.c"
	line	55
_antigo:
       ds      3

psect	dataBANK0
	file	"R:\Note\Sistema I\Ultimo C no MPLAB\main.c"
	line	26
_pas_cooler:
       ds      2

psect	dataBANK0
	file	"R:\Note\Sistema I\Ultimo C no MPLAB\main.c"
	line	29
_pwm:
       ds      2

psect	bssBANK1,class=BANK1,space=1,noexec
global __pbssBANK1
__pbssBANK1:
_buffer:
       ds      16

_ativa_fan:
       ds      3

_fop_rule2:
       ds      3

_fop_rule3:
       ds      3

_sum:
       ds      3

_total_area:
       ds      3

_display_rpm:
       ds      10

psect	dataBANK1,class=BANK1,space=1,noexec
global __pdataBANK1
__pdataBANK1:
	file	"R:\Note\Sistema I\Ultimo C no MPLAB\main.c"
	line	56
_setpoint:
       ds      3

	file	"PIC16F877A.as"
	line	#
psect clrtext,class=CODE,delta=2
global clear_ram0
;	Called with FSR containing the base address, and
;	W with the last address+1
clear_ram0:
	clrwdt			;clear the watchdog before getting into this loop
clrloop0:
	clrf	indf		;clear RAM location pointed to by FSR
	incf	fsr,f		;increment pointer
	xorwf	fsr,w		;XOR with final address
	btfsc	status,2	;have we reached the end yet?
	retlw	0		;all done for this memory range, return
	xorwf	fsr,w		;XOR again to restore value
	goto	clrloop0		;do the next byte

; Clear objects allocated to BANK0
psect cinit,class=CODE,delta=2,merge=1
	bcf	status, 7	;select IRP bank0
	movlw	low(__pbssBANK0)
	movwf	fsr
	movlw	low((__pbssBANK0)+01Ch)
	fcall	clear_ram0
; Clear objects allocated to BANK1
psect cinit,class=CODE,delta=2,merge=1
	movlw	low(__pbssBANK1)
	movwf	fsr
	movlw	low((__pbssBANK1)+029h)
	fcall	clear_ram0
	line	#
global btemp
psect inittext,class=CODE,delta=2
global init_fetch0,btemp
;	Called with low address in FSR and high address in W
init_fetch0:
	movf btemp,w
	movwf pclath
	movf btemp+1,w
	movwf pc
global init_ram0
;Called with:
;	high address of idata address in btemp 
;	low address of idata address in btemp+1 
;	low address of data in FSR
;	high address + 1 of data in btemp-1
init_ram0:
	fcall init_fetch0
	movwf indf,f
	incf fsr,f
	movf fsr,w
	xorwf btemp-1,w
	btfsc status,2
	retlw 0
	incf btemp+1,f
	btfsc status,2
	incf btemp,f
	goto init_ram0
; Initialize objects allocated to BANK1
psect cinit,class=CODE,delta=2,merge=1
global init_ram0, __pidataBANK1
	movlw low(__pdataBANK1+3)
	movwf btemp-1,f
	movlw high(__pidataBANK1)
	movwf btemp,f
	movlw low(__pidataBANK1)
	movwf btemp+1,f
	movlw low(__pdataBANK1)
	movwf fsr,f
	fcall init_ram0
; Initialize objects allocated to BANK0
psect cinit,class=CODE,delta=2,merge=1
global init_ram0, __pidataBANK0
	movlw low(__pdataBANK0+7)
	movwf btemp-1,f
	movlw high(__pidataBANK0)
	movwf btemp,f
	movlw low(__pidataBANK0)
	movwf btemp+1,f
	movlw low(__pdataBANK0)
	movwf fsr,f
	fcall init_ram0
psect cinit,class=CODE,delta=2,merge=1
global end_of_initialization,__end_of__initialization

;End of C runtime variable initialization code

end_of_initialization:
__end_of__initialization:clrf status
ljmp _main	;jump to C main() function
psect	cstackBANK1,class=BANK1,space=1,noexec
global __pcstackBANK1
__pcstackBANK1:
	global	___aldiv@counter
___aldiv@counter:	; 1 bytes @ 0x0
	ds	1
	global	___aldiv@sign
___aldiv@sign:	; 1 bytes @ 0x1
	ds	1
	global	___aldiv@quotient
___aldiv@quotient:	; 4 bytes @ 0x2
	ds	4
?_USART_Init:	; 0 bytes @ 0x6
	global	USART_Init@BaudRate
USART_Init@BaudRate:	; 4 bytes @ 0x6
	ds	4
??_USART_Init:	; 0 bytes @ 0xA
	ds	4
??_main:	; 0 bytes @ 0xE
	ds	3
psect	cstackCOMMON,class=COMMON,space=1,noexec
global __pcstackCOMMON
__pcstackCOMMON:
?_USART_WriteChar:	; 0 bytes @ 0x0
??_USART_WriteChar:	; 0 bytes @ 0x0
?_USART_WriteString:	; 0 bytes @ 0x0
?_TIMER0_Set:	; 0 bytes @ 0x0
?_TIMER0_Init:	; 0 bytes @ 0x0
?_ADC_Init:	; 0 bytes @ 0x0
?_PWM_Init:	; 0 bytes @ 0x0
?_LCD_Init:	; 0 bytes @ 0x0
?_LCD_Clear:	; 0 bytes @ 0x0
?_send:	; 0 bytes @ 0x0
?_Fuzzy:	; 0 bytes @ 0x0
?_ISR:	; 0 bytes @ 0x0
?_main:	; 0 bytes @ 0x0
?_LCD_WriteCmd:	; 0 bytes @ 0x0
?_LCD_WriteData:	; 0 bytes @ 0x0
?i1_TIMER0_Set:	; 0 bytes @ 0x0
??i1_TIMER0_Set:	; 0 bytes @ 0x0
?i1_PWM_DutyCycle2:	; 0 bytes @ 0x0
?_USART_ReceiveChar:	; 1 bytes @ 0x0
	global	?___lwdiv
?___lwdiv:	; 2 bytes @ 0x0
	global	?___fttol
?___fttol:	; 4 bytes @ 0x0
	global	USART_WriteChar@byte
USART_WriteChar@byte:	; 1 bytes @ 0x0
	global	i1TIMER0_Set@contagens
i1TIMER0_Set@contagens:	; 1 bytes @ 0x0
	global	___lwdiv@divisor
___lwdiv@divisor:	; 2 bytes @ 0x0
	global	i1PWM_DutyCycle2@valor
i1PWM_DutyCycle2@valor:	; 2 bytes @ 0x0
	global	___fttol@f1
___fttol@f1:	; 3 bytes @ 0x0
	ds	1
??_USART_WriteString:	; 0 bytes @ 0x1
	ds	1
??i1_PWM_DutyCycle2:	; 0 bytes @ 0x2
	global	USART_WriteString@str
USART_WriteString@str:	; 1 bytes @ 0x2
	global	___lwdiv@dividend
___lwdiv@dividend:	; 2 bytes @ 0x2
	ds	1
??_USART_ReceiveChar:	; 0 bytes @ 0x3
	ds	1
??___fttol:	; 0 bytes @ 0x4
??___lwdiv:	; 0 bytes @ 0x4
	global	USART_ReceiveChar@byte
USART_ReceiveChar@byte:	; 1 bytes @ 0x4
	ds	1
	global	___lwdiv@quotient
___lwdiv@quotient:	; 2 bytes @ 0x5
	ds	2
	global	___lwdiv@counter
___lwdiv@counter:	; 1 bytes @ 0x7
	ds	1
	global	?___wmul
?___wmul:	; 2 bytes @ 0x8
	global	___fttol@sign1
___fttol@sign1:	; 1 bytes @ 0x8
	global	___wmul@multiplier
___wmul@multiplier:	; 2 bytes @ 0x8
	ds	1
	global	___fttol@lval
___fttol@lval:	; 4 bytes @ 0x9
	ds	1
	global	___wmul@multiplicand
___wmul@multiplicand:	; 2 bytes @ 0xA
	ds	2
??___wmul:	; 0 bytes @ 0xC
	global	___wmul@product
___wmul@product:	; 2 bytes @ 0xC
	ds	1
	global	___fttol@exp1
___fttol@exp1:	; 1 bytes @ 0xD
	ds	1
psect	cstackBANK0,class=BANK0,space=1,noexec
global __pcstackBANK0
__pcstackBANK0:
??_send:	; 0 bytes @ 0x0
??_Fuzzy:	; 0 bytes @ 0x0
	ds	1
	global	send@checksum
send@checksum:	; 1 bytes @ 0x1
	ds	1
	global	send@velocidade
send@velocidade:	; 2 bytes @ 0x2
	global	Fuzzy@mantem
Fuzzy@mantem:	; 3 bytes @ 0x2
	ds	2
	global	send@index
send@index:	; 1 bytes @ 0x4
	ds	1
	global	Fuzzy@reduz
Fuzzy@reduz:	; 3 bytes @ 0x5
	ds	3
	global	Fuzzy@aumenta
Fuzzy@aumenta:	; 3 bytes @ 0x8
	ds	3
	global	Fuzzy@freio
Fuzzy@freio:	; 2 bytes @ 0xB
	ds	2
??_ISR:	; 0 bytes @ 0xD
	ds	4
?_PWM_DutyCycle2:	; 0 bytes @ 0x11
??_TIMER0_Set:	; 0 bytes @ 0x11
??_TIMER0_Init:	; 0 bytes @ 0x11
??_ADC_Init:	; 0 bytes @ 0x11
??_PWM_Init:	; 0 bytes @ 0x11
?_LCD_Cursor:	; 0 bytes @ 0x11
?_PWM_DutyCycle1:	; 0 bytes @ 0x11
??_LCD_WriteCmd:	; 0 bytes @ 0x11
??_LCD_WriteData:	; 0 bytes @ 0x11
	global	?___aldiv
?___aldiv:	; 4 bytes @ 0x11
	global	TIMER0_Set@contagens
TIMER0_Set@contagens:	; 1 bytes @ 0x11
	global	LCD_Cursor@Col
LCD_Cursor@Col:	; 1 bytes @ 0x11
	global	PWM_DutyCycle1@valor
PWM_DutyCycle1@valor:	; 2 bytes @ 0x11
	global	PWM_DutyCycle2@valor
PWM_DutyCycle2@valor:	; 2 bytes @ 0x11
	global	___aldiv@divisor
___aldiv@divisor:	; 4 bytes @ 0x11
	ds	1
??_LCD_Cursor:	; 0 bytes @ 0x12
	global	LCD_WriteCmd@Byte
LCD_WriteCmd@Byte:	; 1 bytes @ 0x12
	global	LCD_WriteData@Byte
LCD_WriteData@Byte:	; 1 bytes @ 0x12
	ds	1
??_PWM_DutyCycle2:	; 0 bytes @ 0x13
??_LCD_Init:	; 0 bytes @ 0x13
?_LCD_WriteString:	; 0 bytes @ 0x13
??_PWM_DutyCycle1:	; 0 bytes @ 0x13
??_LCD_Clear:	; 0 bytes @ 0x13
	global	LCD_Cursor@Row
LCD_Cursor@Row:	; 1 bytes @ 0x13
	global	LCD_WriteString@Str
LCD_WriteString@Str:	; 2 bytes @ 0x13
	ds	2
??_LCD_WriteString:	; 0 bytes @ 0x15
	global	___aldiv@dividend
___aldiv@dividend:	; 4 bytes @ 0x15
	ds	4
??___aldiv:	; 0 bytes @ 0x19
	ds	1
;!
;!Data Sizes:
;!    Strings     77
;!    Constant    0
;!    Data        10
;!    BSS         69
;!    Persistent  0
;!    Stack       0
;!
;!Auto Spaces:
;!    Space          Size  Autos    Used
;!    COMMON           14     14      14
;!    BANK0            80     26      61
;!    BANK1            80     17      61
;!    BANK3            96      0       0
;!    BANK2            96      0       0

;!
;!Pointer List with Targets:
;!
;!    LCD_WriteString@Str	PTR const unsigned char  size(2) Largest target is 17
;!		 -> display_rpm(BANK1[10]), STR_3(CODE[6]), STR_2(CODE[17]), 
;!
;!    USART_WriteString@str	PTR const unsigned char  size(1) Largest target is 40
;!		 -> STR_4(CODE[40]), STR_1(CODE[14]), 
;!


;!
;!Critical Paths under _main in COMMON
;!
;!    None.
;!
;!Critical Paths under _ISR in COMMON
;!
;!    _ISR->___wmul
;!    _send->___wmul
;!    ___wmul->___lwdiv
;!    _USART_ReceiveChar->_USART_WriteString
;!    _USART_WriteString->_USART_WriteChar
;!    _Fuzzy->___fttol
;!
;!Critical Paths under _main in BANK0
;!
;!    _USART_Init->___aldiv
;!    _LCD_WriteString->_LCD_WriteData
;!    _LCD_Init->_LCD_WriteCmd
;!    _LCD_Clear->_LCD_WriteCmd
;!
;!Critical Paths under _ISR in BANK0
;!
;!    _ISR->_Fuzzy
;!
;!Critical Paths under _main in BANK1
;!
;!    _main->_USART_Init
;!    _USART_Init->___aldiv
;!
;!Critical Paths under _ISR in BANK1
;!
;!    None.
;!
;!Critical Paths under _main in BANK3
;!
;!    None.
;!
;!Critical Paths under _ISR in BANK3
;!
;!    None.
;!
;!Critical Paths under _main in BANK2
;!
;!    None.
;!
;!Critical Paths under _ISR in BANK2
;!
;!    None.

;;
;;Main: autosize = 0, tempsize = 3, incstack = 0, save=0
;;

;!
;!Call Graph Tables:
;!
;! ---------------------------------------------------------------------------------
;! (Depth) Function   	        Calls       Base Space   Used Autos Params    Refs
;! ---------------------------------------------------------------------------------
;! (0) _main                                                 3     3      0    1684
;!                                             14 BANK1      3     3      0
;!                           _ADC_Init
;!                          _LCD_Clear
;!                         _LCD_Cursor
;!                           _LCD_Init
;!                    _LCD_WriteString
;!                     _PWM_DutyCycle1
;!                     _PWM_DutyCycle2
;!                           _PWM_Init
;!                        _TIMER0_Init
;!                         _TIMER0_Set
;!                         _USART_Init
;! ---------------------------------------------------------------------------------
;! (1) _USART_Init                                           8     4      4     707
;!                                              6 BANK1      8     4      4
;!                            ___aldiv
;! ---------------------------------------------------------------------------------
;! (2) ___aldiv                                             15     7      8     599
;!                                             17 BANK0      9     1      8
;!                                              0 BANK1      6     6      0
;! ---------------------------------------------------------------------------------
;! (1) _TIMER0_Set                                           1     1      0      22
;!                                             17 BANK0      1     1      0
;! ---------------------------------------------------------------------------------
;! (1) _TIMER0_Init                                          0     0      0       0
;! ---------------------------------------------------------------------------------
;! (1) _PWM_Init                                             0     0      0       0
;! ---------------------------------------------------------------------------------
;! (1) _PWM_DutyCycle2                                       4     2      2     222
;!                                             17 BANK0      4     2      2
;! ---------------------------------------------------------------------------------
;! (1) _PWM_DutyCycle1                                       4     2      2     108
;!                                             17 BANK0      4     2      2
;! ---------------------------------------------------------------------------------
;! (1) _LCD_WriteString                                      2     0      2     259
;!                                             19 BANK0      2     0      2
;!                      _LCD_WriteData
;! ---------------------------------------------------------------------------------
;! (2) _LCD_WriteData                                        2     2      0      22
;!                                             17 BANK0      2     2      0
;! ---------------------------------------------------------------------------------
;! (1) _LCD_Init                                             2     2      0      22
;!                                             19 BANK0      2     2      0
;!                       _LCD_WriteCmd
;! ---------------------------------------------------------------------------------
;! (1) _LCD_Cursor                                           3     2      1     322
;!                                             17 BANK0      3     2      1
;! ---------------------------------------------------------------------------------
;! (1) _LCD_Clear                                            2     2      0      22
;!                                             19 BANK0      2     2      0
;!                       _LCD_WriteCmd
;! ---------------------------------------------------------------------------------
;! (2) _LCD_WriteCmd                                         2     2      0      22
;!                                             17 BANK0      2     2      0
;! ---------------------------------------------------------------------------------
;! (1) _ADC_Init                                             0     0      0       0
;! ---------------------------------------------------------------------------------
;! Estimated maximum stack depth 2
;! ---------------------------------------------------------------------------------
;! (Depth) Function   	        Calls       Base Space   Used Autos Params    Refs
;! ---------------------------------------------------------------------------------
;! (3) _ISR                                                  4     4      0    2160
;!                                             13 BANK0      4     4      0
;!                              _Fuzzy
;!                  _USART_ReceiveChar
;!                  _USART_WriteString
;!                            ___lwdiv
;!                             ___wmul
;!                               _send
;!                   i1_PWM_DutyCycle2
;!                       i1_TIMER0_Set
;! ---------------------------------------------------------------------------------
;! (4) i1_TIMER0_Set                                         1     1      0      22
;!                                              0 COMMON     1     1      0
;! ---------------------------------------------------------------------------------
;! (4) _send                                                 5     5      0     529
;!                                              0 BANK0      5     5      0
;!                    _USART_WriteChar
;!                             ___wmul
;! ---------------------------------------------------------------------------------
;! (5) ___wmul                                               6     2      4     348
;!                                              8 COMMON     6     2      4
;!                            ___lwdiv (ARG)
;! ---------------------------------------------------------------------------------
;! (4) ___lwdiv                                              8     4      4     418
;!                                              0 COMMON     8     4      4
;! ---------------------------------------------------------------------------------
;! (4) _USART_ReceiveChar                                    2     2      0     151
;!                                              3 COMMON     2     2      0
;!                  _USART_WriteString
;! ---------------------------------------------------------------------------------
;! (4) _USART_WriteString                                    2     2      0     127
;!                                              1 COMMON     2     2      0
;!                    _USART_WriteChar
;! ---------------------------------------------------------------------------------
;! (5) _USART_WriteChar                                      1     1      0      22
;!                                              0 COMMON     1     1      0
;! ---------------------------------------------------------------------------------
;! (4) _Fuzzy                                               16    16      0     443
;!                                              0 BANK0     13    13      0
;!                            ___fttol
;!                   i1_PWM_DutyCycle2
;! ---------------------------------------------------------------------------------
;! (4) i1_PWM_DutyCycle2                                     4     2      2     122
;!                                              0 COMMON     4     2      2
;! ---------------------------------------------------------------------------------
;! (5) ___fttol                                             14    10      4     316
;!                                              0 COMMON    14    10      4
;! ---------------------------------------------------------------------------------
;! Estimated maximum stack depth 5
;! ---------------------------------------------------------------------------------
;!
;! Call Graph Graphs:
;!
;! _main (ROOT)
;!   _ADC_Init
;!   _LCD_Clear
;!     _LCD_WriteCmd
;!   _LCD_Cursor
;!   _LCD_Init
;!     _LCD_WriteCmd
;!   _LCD_WriteString
;!     _LCD_WriteData
;!   _PWM_DutyCycle1
;!   _PWM_DutyCycle2
;!   _PWM_Init
;!   _TIMER0_Init
;!   _TIMER0_Set
;!   _USART_Init
;!     ___aldiv
;!
;! _ISR (ROOT)
;!   _Fuzzy
;!     ___fttol
;!     i1_PWM_DutyCycle2
;!   _USART_ReceiveChar
;!     _USART_WriteString
;!       _USART_WriteChar
;!   _USART_WriteString
;!     _USART_WriteChar
;!   ___lwdiv
;!   ___wmul
;!     ___lwdiv (ARG)
;!   _send
;!     _USART_WriteChar
;!     ___wmul
;!       ___lwdiv (ARG)
;!   i1_PWM_DutyCycle2
;!   i1_TIMER0_Set
;!

;! Address spaces:

;!Name               Size   Autos  Total    Cost      Usage
;!BANK3               60      0       0       9        0.0%
;!BITBANK3            60      0       0       8        0.0%
;!SFR3                 0      0       0       4        0.0%
;!BITSFR3              0      0       0       4        0.0%
;!BANK2               60      0       0      11        0.0%
;!BITBANK2            60      0       0      10        0.0%
;!SFR2                 0      0       0       5        0.0%
;!BITSFR2              0      0       0       5        0.0%
;!BANK1               50     11      3D       7       76.3%
;!BITBANK1            50      0       0       6        0.0%
;!SFR1                 0      0       0       2        0.0%
;!BITSFR1              0      0       0       2        0.0%
;!BANK0               50     1A      3D       5       76.3%
;!BITBANK0            50      0       0       4        0.0%
;!SFR0                 0      0       0       1        0.0%
;!BITSFR0              0      0       0       1        0.0%
;!COMMON               E      E       E       1      100.0%
;!BITCOMMON            E      0       0       0        0.0%
;!CODE                 0      0       0       0        0.0%
;!DATA                 0      0      88      12        0.0%
;!ABS                  0      0      88       3        0.0%
;!NULL                 0      0       0       0        0.0%
;!STACK                0      0       0       2        0.0%
;!EEDATA             100      0       0       0        0.0%

	global	_main

;; *************** function _main *****************
;; Defined at:
;;		line 522 in file "R:\Note\Sistema I\Ultimo C no MPLAB\main.c"
;; Parameters:    Size  Location     Type
;;		None
;; Auto vars:     Size  Location     Type
;;		None
;; Return value:  Size  Location     Type
;;		None               void
;; Registers used:
;;		wreg, fsr0l, fsr0h, status,2, status,0, btemp+1, pclath, cstack
;; Tracked objects:
;;		On entry : 17F/0
;;		On exit  : 0/0
;;		Unchanged: 0/0
;; Data sizes:     COMMON   BANK0   BANK1   BANK3   BANK2
;;      Params:         0       0       0       0       0
;;      Locals:         0       0       0       0       0
;;      Temps:          0       0       3       0       0
;;      Totals:         0       0       3       0       0
;;Total ram usage:        3 bytes
;; Hardware stack levels required when called:    6
;; This function calls:
;;		_ADC_Init
;;		_LCD_Clear
;;		_LCD_Cursor
;;		_LCD_Init
;;		_LCD_WriteString
;;		_PWM_DutyCycle1
;;		_PWM_DutyCycle2
;;		_PWM_Init
;;		_TIMER0_Init
;;		_TIMER0_Set
;;		_USART_Init
;; This function is called by:
;;		Startup code after reset
;; This function uses a non-reentrant model
;;
psect	maintext,global,class=CODE,delta=2,split=1
	file	"R:\Note\Sistema I\Ultimo C no MPLAB\main.c"
	line	522
global __pmaintext
__pmaintext:	;psect for function _main
psect	maintext
	file	"R:\Note\Sistema I\Ultimo C no MPLAB\main.c"
	line	522
	global	__size_of_main
	__size_of_main	equ	__end_of_main-_main
	
_main:	
;incstack = 0
	opt	stack 2
; Regs used in _main: [wreg-fsr0h+status,2+status,0+btemp+1+pclath+cstack]
	line	524
	
l2263:	
;main.c: 524: TRISA = 0b00000001;
	movlw	(01h)
	bsf	status, 5	;RP0=1, select bank1
	bcf	status, 6	;RP1=0, select bank1
	movwf	(133)^080h	;volatile
	line	525
;main.c: 525: PORTA = 0b00000001;
	movlw	(01h)
	bcf	status, 5	;RP0=0, select bank0
	bcf	status, 6	;RP1=0, select bank0
	movwf	(5)	;volatile
	line	526
	
l2265:	
;main.c: 526: TRISB = 0b00000000;
	bsf	status, 5	;RP0=1, select bank1
	bcf	status, 6	;RP1=0, select bank1
	clrf	(134)^080h	;volatile
	line	527
	
l2267:	
;main.c: 527: PORTB = 0b00000000;
	bcf	status, 5	;RP0=0, select bank0
	bcf	status, 6	;RP1=0, select bank0
	clrf	(6)	;volatile
	line	528
;main.c: 528: TRISC = 0b10000001;
	movlw	(081h)
	bsf	status, 5	;RP0=1, select bank1
	bcf	status, 6	;RP1=0, select bank1
	movwf	(135)^080h	;volatile
	line	529
;main.c: 529: PORTC = 0b11000000;
	movlw	(0C0h)
	bcf	status, 5	;RP0=0, select bank0
	bcf	status, 6	;RP1=0, select bank0
	movwf	(7)	;volatile
	line	530
	
l2269:	
;main.c: 530: TRISD = 0b00000000;
	bsf	status, 5	;RP0=1, select bank1
	bcf	status, 6	;RP1=0, select bank1
	clrf	(136)^080h	;volatile
	line	531
	
l2271:	
;main.c: 531: PORTD = 0b00000000;
	bcf	status, 5	;RP0=0, select bank0
	bcf	status, 6	;RP1=0, select bank0
	clrf	(8)	;volatile
	line	532
	
l2273:	
;main.c: 532: TRISE = 0b00000000;
	bsf	status, 5	;RP0=1, select bank1
	bcf	status, 6	;RP1=0, select bank1
	clrf	(137)^080h	;volatile
	line	533
	
l2275:	
;main.c: 533: PORTE = 0b00000000;
	bcf	status, 5	;RP0=0, select bank0
	bcf	status, 6	;RP1=0, select bank0
	clrf	(9)	;volatile
	line	536
;main.c: 536: T1CON = 0x03;
	movlw	(03h)
	movwf	(16)	;volatile
	line	537
	
l2277:	
;main.c: 537: TMR1L = 0x00;
	clrf	(14)	;volatile
	line	538
	
l2279:	
;main.c: 538: TMR1H = 0x00;
	clrf	(15)	;volatile
	line	541
	
l2281:	
;main.c: 541: USART_Init(115200);
	movlw	0
	bsf	status, 5	;RP0=1, select bank1
	bcf	status, 6	;RP1=0, select bank1
	movwf	(USART_Init@BaudRate+3)^080h
	movlw	01h
	movwf	(USART_Init@BaudRate+2)^080h
	movlw	0C2h
	movwf	(USART_Init@BaudRate+1)^080h
	movlw	0
	movwf	(USART_Init@BaudRate)^080h

	fcall	_USART_Init
	line	542
;main.c: 542: TIMER0_Init();
	fcall	_TIMER0_Init
	line	543
;main.c: 543: ADC_Init();
	fcall	_ADC_Init
	line	544
	
l2283:	
;main.c: 544: PWM_Init();
	fcall	_PWM_Init
	line	545
	
l2285:	
;main.c: 545: LCD_Init();
	fcall	_LCD_Init
	line	548
	
l2287:	
;main.c: 548: INTCONbits.PEIE = 1;
	bsf	(11),6	;volatile
	line	549
	
l2289:	
;main.c: 549: INTCONbits.GIE = 1;
	bsf	(11),7	;volatile
	line	556
	
l2291:	
;main.c: 556: LCD_Init();
	fcall	_LCD_Init
	line	557
	
l2293:	
;main.c: 557: LCD_Cursor(0,0);
	bcf	status, 5	;RP0=0, select bank0
	bcf	status, 6	;RP1=0, select bank0
	clrf	(LCD_Cursor@Col)
	movlw	(0)
	fcall	_LCD_Cursor
	line	558
	
l2295:	
;main.c: 558: LCD_WriteString("Inicializando...");
	movlw	low((STR_2)-__stringbase)
	bcf	status, 5	;RP0=0, select bank0
	bcf	status, 6	;RP1=0, select bank0
	movwf	(LCD_WriteString@Str)
	movlw	80h
	movwf	(LCD_WriteString@Str+1)
	fcall	_LCD_WriteString
	line	561
	
l2297:	
;main.c: 561: PWM_DutyCycle1(0);
	movlw	low(0)
	bcf	status, 5	;RP0=0, select bank0
	bcf	status, 6	;RP1=0, select bank0
	movwf	(PWM_DutyCycle1@valor)
	movlw	high(0)
	movwf	((PWM_DutyCycle1@valor))+1
	fcall	_PWM_DutyCycle1
	line	562
	
l2299:	
;main.c: 562: PWM_DutyCycle2(0);
	movlw	low(0)
	bcf	status, 5	;RP0=0, select bank0
	bcf	status, 6	;RP1=0, select bank0
	movwf	(PWM_DutyCycle2@valor)
	movlw	high(0)
	movwf	((PWM_DutyCycle2@valor))+1
	fcall	_PWM_DutyCycle2
	line	565
	
l2301:	
;main.c: 565: TIMER0_Set(238);
	movlw	(0EEh)
	fcall	_TIMER0_Set
	line	568
	
l2303:	
;main.c: 568: _delay((unsigned long)((1000)*(18432000/4000.0)));
	opt asmopt_off
movlw  24
	bsf	status, 5	;RP0=1, select bank1
	bcf	status, 6	;RP1=0, select bank1
movwf	((??_main+0)^080h+0+2),f
movlw	97
movwf	((??_main+0)^080h+0+1),f
	movlw	110
movwf	((??_main+0)^080h+0),f
u1677:
	decfsz	((??_main+0)^080h+0),f
	goto	u1677
	decfsz	((??_main+0)^080h+0+1),f
	goto	u1677
	decfsz	((??_main+0)^080h+0+2),f
	goto	u1677
	nop
opt asmopt_on

	goto	l2305
	line	571
;main.c: 571: while(1)
	
l177:	
	line	578
	
l2305:	
;main.c: 572: {
;main.c: 578: LCD_Clear();
	fcall	_LCD_Clear
	line	579
	
l2307:	
;main.c: 579: LCD_Cursor(0,0);
	bcf	status, 5	;RP0=0, select bank0
	bcf	status, 6	;RP1=0, select bank0
	clrf	(LCD_Cursor@Col)
	movlw	(0)
	fcall	_LCD_Cursor
	line	580
;main.c: 580: LCD_WriteString("kmH: ");
	movlw	low((STR_3)-__stringbase)
	bcf	status, 5	;RP0=0, select bank0
	bcf	status, 6	;RP1=0, select bank0
	movwf	(LCD_WriteString@Str)
	movlw	80h
	movwf	(LCD_WriteString@Str+1)
	fcall	_LCD_WriteString
	line	581
	
l2309:	
;main.c: 581: LCD_Cursor(0,6);
	movlw	(06h)
	bsf	status, 5	;RP0=1, select bank1
	bcf	status, 6	;RP1=0, select bank1
	movwf	(??_main+0)^080h+0
	movf	(??_main+0)^080h+0,w
	bcf	status, 5	;RP0=0, select bank0
	bcf	status, 6	;RP1=0, select bank0
	movwf	(LCD_Cursor@Col)
	movlw	(0)
	fcall	_LCD_Cursor
	line	582
	
l2311:	
;main.c: 582: LCD_WriteString(display_rpm);
	movlw	(_display_rpm&0ffh)
	bcf	status, 5	;RP0=0, select bank0
	bcf	status, 6	;RP1=0, select bank0
	movwf	(LCD_WriteString@Str)
	movlw	(0x0)
	movwf	(LCD_WriteString@Str+1)
	fcall	_LCD_WriteString
	line	583
;main.c: 583: LCD_Cursor(1,0);
	bcf	status, 5	;RP0=0, select bank0
	bcf	status, 6	;RP1=0, select bank0
	clrf	(LCD_Cursor@Col)
	movlw	(01h)
	fcall	_LCD_Cursor
	line	588
	
l2313:	
;main.c: 588: _delay((unsigned long)((200)*(18432000/4000.0)));
	opt asmopt_off
movlw  5
	bsf	status, 5	;RP0=1, select bank1
	bcf	status, 6	;RP1=0, select bank1
movwf	((??_main+0)^080h+0+2),f
movlw	173
movwf	((??_main+0)^080h+0+1),f
	movlw	224
movwf	((??_main+0)^080h+0),f
u1687:
	decfsz	((??_main+0)^080h+0),f
	goto	u1687
	decfsz	((??_main+0)^080h+0+1),f
	goto	u1687
	decfsz	((??_main+0)^080h+0+2),f
	goto	u1687
opt asmopt_on

	goto	l2305
	line	589
	
l178:	
	line	571
	goto	l2305
	
l179:	
	line	590
	
l180:	
	global	start
	ljmp	start
	opt stack 0
GLOBAL	__end_of_main
	__end_of_main:
	signat	_main,88
	global	_USART_Init

;; *************** function _USART_Init *****************
;; Defined at:
;;		line 6 in file "R:\Note\Sistema I\Ultimo C no MPLAB\usart.c"
;; Parameters:    Size  Location     Type
;;  BaudRate        4    6[BANK1 ] long 
;; Auto vars:     Size  Location     Type
;;		None
;; Return value:  Size  Location     Type
;;		None               void
;; Registers used:
;;		wreg, status,2, status,0, pclath, cstack
;; Tracked objects:
;;		On entry : 0/0
;;		On exit  : 0/0
;;		Unchanged: 0/0
;; Data sizes:     COMMON   BANK0   BANK1   BANK3   BANK2
;;      Params:         0       0       4       0       0
;;      Locals:         0       0       0       0       0
;;      Temps:          0       0       4       0       0
;;      Totals:         0       0       8       0       0
;;Total ram usage:        8 bytes
;; Hardware stack levels used:    1
;; Hardware stack levels required when called:    5
;; This function calls:
;;		___aldiv
;; This function is called by:
;;		_main
;; This function uses a non-reentrant model
;;
psect	text1,local,class=CODE,delta=2,merge=1
	file	"R:\Note\Sistema I\Ultimo C no MPLAB\usart.c"
	line	6
global __ptext1
__ptext1:	;psect for function _USART_Init
psect	text1
	file	"R:\Note\Sistema I\Ultimo C no MPLAB\usart.c"
	line	6
	global	__size_of_USART_Init
	__size_of_USART_Init	equ	__end_of_USART_Init-_USART_Init
	
_USART_Init:	
;incstack = 0
	opt	stack 2
; Regs used in _USART_Init: [wreg+status,2+status,0+pclath+cstack]
	line	13
	
l2223:	
;usart.c: 13: SPBRG = (unsigned char)(18432000 / (16 * BaudRate)) - 1;
	bsf	status, 5	;RP0=1, select bank1
	bcf	status, 6	;RP1=0, select bank1
	movf	(USART_Init@BaudRate)^080h,w
	movwf	(??_USART_Init+0)^080h+0
	movf	(USART_Init@BaudRate+1)^080h,w
	movwf	((??_USART_Init+0)^080h+0+1)
	movf	(USART_Init@BaudRate+2)^080h,w
	movwf	((??_USART_Init+0)^080h+0+2)
	movf	(USART_Init@BaudRate+3)^080h,w
	movwf	((??_USART_Init+0)^080h+0+3)
	movlw	04h
u1665:
	clrc
	rlf	(??_USART_Init+0)^080h+0,f
	rlf	(??_USART_Init+0)^080h+1,f
	rlf	(??_USART_Init+0)^080h+2,f
	rlf	(??_USART_Init+0)^080h+3,f
u1660:
	addlw	-1
	skipz
	goto	u1665
	movf	3+(??_USART_Init+0)^080h+0,w
	bcf	status, 5	;RP0=0, select bank0
	bcf	status, 6	;RP1=0, select bank0
	movwf	(___aldiv@divisor+3)
	bsf	status, 5	;RP0=1, select bank1
	bcf	status, 6	;RP1=0, select bank1
	movf	2+(??_USART_Init+0)^080h+0,w
	bcf	status, 5	;RP0=0, select bank0
	bcf	status, 6	;RP1=0, select bank0
	movwf	(___aldiv@divisor+2)
	bsf	status, 5	;RP0=1, select bank1
	bcf	status, 6	;RP1=0, select bank1
	movf	1+(??_USART_Init+0)^080h+0,w
	bcf	status, 5	;RP0=0, select bank0
	bcf	status, 6	;RP1=0, select bank0
	movwf	(___aldiv@divisor+1)
	bsf	status, 5	;RP0=1, select bank1
	bcf	status, 6	;RP1=0, select bank1
	movf	0+(??_USART_Init+0)^080h+0,w
	bcf	status, 5	;RP0=0, select bank0
	bcf	status, 6	;RP1=0, select bank0
	movwf	(___aldiv@divisor)

	movlw	01h
	movwf	(___aldiv@dividend+3)
	movlw	019h
	movwf	(___aldiv@dividend+2)
	movlw	040h
	movwf	(___aldiv@dividend+1)
	movlw	0
	movwf	(___aldiv@dividend)

	fcall	___aldiv
	bcf	status, 5	;RP0=0, select bank0
	bcf	status, 6	;RP1=0, select bank0
	movf	0+(((0+(?___aldiv)))),w
	addlw	0FFh
	bsf	status, 5	;RP0=1, select bank1
	bcf	status, 6	;RP1=0, select bank1
	movwf	(153)^080h	;volatile
	line	16
	
l2225:	
;usart.c: 16: TXSTAbits.CSRC = 0;
	bcf	(152)^080h,7	;volatile
	line	17
	
l2227:	
;usart.c: 17: TXSTAbits.TX9 = 0;
	bcf	(152)^080h,6	;volatile
	line	18
	
l2229:	
;usart.c: 18: TXSTAbits.TXEN = 1;
	bsf	(152)^080h,5	;volatile
	line	19
	
l2231:	
;usart.c: 19: TXSTAbits.SYNC = 0;
	bcf	(152)^080h,4	;volatile
	line	21
	
l2233:	
;usart.c: 21: TXSTAbits.BRGH = 1;
	bsf	(152)^080h,2	;volatile
	line	22
	
l2235:	
;usart.c: 22: TXSTAbits.TRMT = 1;
	bsf	(152)^080h,1	;volatile
	line	23
	
l2237:	
;usart.c: 23: TXSTAbits.TX9D = 0;
	bcf	(152)^080h,0	;volatile
	line	26
	
l2239:	
;usart.c: 26: RCSTAbits.SPEN = 1;
	bcf	status, 5	;RP0=0, select bank0
	bcf	status, 6	;RP1=0, select bank0
	bsf	(24),7	;volatile
	line	27
	
l2241:	
;usart.c: 27: RCSTAbits.RX9 = 0;
	bcf	(24),6	;volatile
	line	28
	
l2243:	
;usart.c: 28: RCSTAbits.SREN = 0;
	bcf	(24),5	;volatile
	line	29
	
l2245:	
;usart.c: 29: RCSTAbits.CREN = 1;
	bsf	(24),4	;volatile
	line	30
	
l2247:	
;usart.c: 30: RCSTAbits.ADDEN = 0;
	bcf	(24),3	;volatile
	line	31
	
l2249:	
;usart.c: 31: RCSTAbits.FERR = 0;
	bcf	(24),2	;volatile
	line	32
	
l2251:	
;usart.c: 32: RCSTAbits.OERR = 0;
	bcf	(24),1	;volatile
	line	33
	
l2253:	
;usart.c: 33: RCSTAbits.RX9D = 0;
	bcf	(24),0	;volatile
	line	36
	
l2255:	
;usart.c: 36: PIE1bits.TXIE = 0;
	bsf	status, 5	;RP0=1, select bank1
	bcf	status, 6	;RP1=0, select bank1
	bcf	(140)^080h,4	;volatile
	line	37
	
l2257:	
;usart.c: 37: PIR1bits.TXIF = 0;
	bcf	status, 5	;RP0=0, select bank0
	bcf	status, 6	;RP1=0, select bank0
	bcf	(12),4	;volatile
	line	38
	
l2259:	
;usart.c: 38: PIE1bits.RCIE = 1;
	bsf	status, 5	;RP0=1, select bank1
	bcf	status, 6	;RP1=0, select bank1
	bsf	(140)^080h,5	;volatile
	line	39
	
l2261:	
;usart.c: 39: PIR1bits.RCIF = 0;
	bcf	status, 5	;RP0=0, select bank0
	bcf	status, 6	;RP1=0, select bank0
	bcf	(12),5	;volatile
	line	40
	
l199:	
	return
	opt stack 0
GLOBAL	__end_of_USART_Init
	__end_of_USART_Init:
	signat	_USART_Init,4216
	global	___aldiv

;; *************** function ___aldiv *****************
;; Defined at:
;;		line 6 in file "C:\Program Files (x86)\Microchip\xc8\v1.33\sources\common\aldiv.c"
;; Parameters:    Size  Location     Type
;;  divisor         4   17[BANK0 ] long 
;;  dividend        4   21[BANK0 ] long 
;; Auto vars:     Size  Location     Type
;;  quotient        4    2[BANK1 ] long 
;;  sign            1    1[BANK1 ] unsigned char 
;;  counter         1    0[BANK1 ] unsigned char 
;; Return value:  Size  Location     Type
;;                  4   17[BANK0 ] long 
;; Registers used:
;;		wreg, status,2, status,0
;; Tracked objects:
;;		On entry : 0/0
;;		On exit  : 0/0
;;		Unchanged: 0/0
;; Data sizes:     COMMON   BANK0   BANK1   BANK3   BANK2
;;      Params:         0       8       0       0       0
;;      Locals:         0       0       6       0       0
;;      Temps:          0       1       0       0       0
;;      Totals:         0       9       6       0       0
;;Total ram usage:       15 bytes
;; Hardware stack levels used:    1
;; Hardware stack levels required when called:    4
;; This function calls:
;;		Nothing
;; This function is called by:
;;		_USART_Init
;; This function uses a non-reentrant model
;;
psect	text2,local,class=CODE,delta=2,merge=1
	file	"C:\Program Files (x86)\Microchip\xc8\v1.33\sources\common\aldiv.c"
	line	6
global __ptext2
__ptext2:	;psect for function ___aldiv
psect	text2
	file	"C:\Program Files (x86)\Microchip\xc8\v1.33\sources\common\aldiv.c"
	line	6
	global	__size_of___aldiv
	__size_of___aldiv	equ	__end_of___aldiv-___aldiv
	
___aldiv:	
;incstack = 0
	opt	stack 2
; Regs used in ___aldiv: [wreg+status,2+status,0]
	line	14
	
l2183:	
	bsf	status, 5	;RP0=1, select bank1
	bcf	status, 6	;RP1=0, select bank1
	clrf	(___aldiv@sign)^080h
	line	15
	
l2185:	
	bcf	status, 5	;RP0=0, select bank0
	bcf	status, 6	;RP1=0, select bank0
	btfss	(___aldiv@divisor+3),7
	goto	u1561
	goto	u1560
u1561:
	goto	l577
u1560:
	line	16
	
l2187:	
	comf	(___aldiv@divisor),f
	comf	(___aldiv@divisor+1),f
	comf	(___aldiv@divisor+2),f
	comf	(___aldiv@divisor+3),f
	incf	(___aldiv@divisor),f
	skipnz
	incf	(___aldiv@divisor+1),f
	skipnz
	incf	(___aldiv@divisor+2),f
	skipnz
	incf	(___aldiv@divisor+3),f
	line	17
	bsf	status, 5	;RP0=1, select bank1
	bcf	status, 6	;RP1=0, select bank1
	clrf	(___aldiv@sign)^080h
	incf	(___aldiv@sign)^080h,f
	line	18
	
l577:	
	line	19
	bcf	status, 5	;RP0=0, select bank0
	btfss	(___aldiv@dividend+3),7
	goto	u1571
	goto	u1570
u1571:
	goto	l2193
u1570:
	line	20
	
l2189:	
	comf	(___aldiv@dividend),f
	comf	(___aldiv@dividend+1),f
	comf	(___aldiv@dividend+2),f
	comf	(___aldiv@dividend+3),f
	incf	(___aldiv@dividend),f
	skipnz
	incf	(___aldiv@dividend+1),f
	skipnz
	incf	(___aldiv@dividend+2),f
	skipnz
	incf	(___aldiv@dividend+3),f
	line	21
	
l2191:	
	movlw	(01h)
	movwf	(??___aldiv+0)+0
	movf	(??___aldiv+0)+0,w
	bsf	status, 5	;RP0=1, select bank1
	bcf	status, 6	;RP1=0, select bank1
	xorwf	(___aldiv@sign)^080h,f
	goto	l2193
	line	22
	
l578:	
	line	23
	
l2193:	
	movlw	0
	bsf	status, 5	;RP0=1, select bank1
	bcf	status, 6	;RP1=0, select bank1
	movwf	(___aldiv@quotient+3)^080h
	movlw	0
	movwf	(___aldiv@quotient+2)^080h
	movlw	0
	movwf	(___aldiv@quotient+1)^080h
	movlw	0
	movwf	(___aldiv@quotient)^080h

	line	24
	
l2195:	
	bcf	status, 5	;RP0=0, select bank0
	bcf	status, 6	;RP1=0, select bank0
	movf	(___aldiv@divisor+3),w
	iorwf	(___aldiv@divisor+2),w
	iorwf	(___aldiv@divisor+1),w
	iorwf	(___aldiv@divisor),w
	skipnz
	goto	u1581
	goto	u1580
u1581:
	goto	l2215
u1580:
	line	25
	
l2197:	
	bsf	status, 5	;RP0=1, select bank1
	bcf	status, 6	;RP1=0, select bank1
	clrf	(___aldiv@counter)^080h
	incf	(___aldiv@counter)^080h,f
	line	26
	goto	l2201
	
l581:	
	line	27
	
l2199:	
	movlw	01h
	bcf	status, 5	;RP0=0, select bank0
	movwf	(??___aldiv+0)+0
u1595:
	clrc
	rlf	(___aldiv@divisor),f
	rlf	(___aldiv@divisor+1),f
	rlf	(___aldiv@divisor+2),f
	rlf	(___aldiv@divisor+3),f
	decfsz	(??___aldiv+0)+0
	goto	u1595
	line	28
	movlw	(01h)
	movwf	(??___aldiv+0)+0
	movf	(??___aldiv+0)+0,w
	bsf	status, 5	;RP0=1, select bank1
	bcf	status, 6	;RP1=0, select bank1
	addwf	(___aldiv@counter)^080h,f
	goto	l2201
	line	29
	
l580:	
	line	26
	
l2201:	
	bcf	status, 5	;RP0=0, select bank0
	bcf	status, 6	;RP1=0, select bank0
	btfss	(___aldiv@divisor+3),(31)&7
	goto	u1601
	goto	u1600
u1601:
	goto	l2199
u1600:
	goto	l2203
	
l582:	
	goto	l2203
	line	30
	
l583:	
	line	31
	
l2203:	
	movlw	01h
	bcf	status, 5	;RP0=0, select bank0
	movwf	(??___aldiv+0)+0
u1615:
	clrc
	bsf	status, 5	;RP0=1, select bank1
	bcf	status, 6	;RP1=0, select bank1
	rlf	(___aldiv@quotient)^080h,f
	rlf	(___aldiv@quotient+1)^080h,f
	rlf	(___aldiv@quotient+2)^080h,f
	rlf	(___aldiv@quotient+3)^080h,f
	bcf	status, 5	;RP0=0, select bank0
	bcf	status, 6	;RP1=0, select bank0
	decfsz	(??___aldiv+0)+0
	goto	u1615
	line	32
	
l2205:	
	movf	(___aldiv@divisor+3),w
	subwf	(___aldiv@dividend+3),w
	skipz
	goto	u1625
	movf	(___aldiv@divisor+2),w
	subwf	(___aldiv@dividend+2),w
	skipz
	goto	u1625
	movf	(___aldiv@divisor+1),w
	subwf	(___aldiv@dividend+1),w
	skipz
	goto	u1625
	movf	(___aldiv@divisor),w
	subwf	(___aldiv@dividend),w
u1625:
	skipc
	goto	u1621
	goto	u1620
u1621:
	goto	l2211
u1620:
	line	33
	
l2207:	
	movf	(___aldiv@divisor),w
	subwf	(___aldiv@dividend),f
	movf	(___aldiv@divisor+1),w
	skipc
	incfsz	(___aldiv@divisor+1),w
	subwf	(___aldiv@dividend+1),f
	movf	(___aldiv@divisor+2),w
	skipc
	incfsz	(___aldiv@divisor+2),w
	subwf	(___aldiv@dividend+2),f
	movf	(___aldiv@divisor+3),w
	skipc
	incfsz	(___aldiv@divisor+3),w
	subwf	(___aldiv@dividend+3),f
	line	34
	
l2209:	
	bsf	status, 5	;RP0=1, select bank1
	bcf	status, 6	;RP1=0, select bank1
	bsf	(___aldiv@quotient)^080h+(0/8),(0)&7
	goto	l2211
	line	35
	
l584:	
	line	36
	
l2211:	
	movlw	01h
u1635:
	clrc
	bcf	status, 5	;RP0=0, select bank0
	rrf	(___aldiv@divisor+3),f
	rrf	(___aldiv@divisor+2),f
	rrf	(___aldiv@divisor+1),f
	rrf	(___aldiv@divisor),f
	addlw	-1
	skipz
	goto	u1635

	line	37
	
l2213:	
	movlw	low(01h)
	bsf	status, 5	;RP0=1, select bank1
	bcf	status, 6	;RP1=0, select bank1
	subwf	(___aldiv@counter)^080h,f
	btfss	status,2
	goto	u1641
	goto	u1640
u1641:
	goto	l2203
u1640:
	goto	l2215
	
l585:	
	goto	l2215
	line	38
	
l579:	
	line	39
	
l2215:	
	bsf	status, 5	;RP0=1, select bank1
	bcf	status, 6	;RP1=0, select bank1
	movf	(___aldiv@sign)^080h,w
	skipz
	goto	u1650
	goto	l2219
u1650:
	line	40
	
l2217:	
	comf	(___aldiv@quotient)^080h,f
	comf	(___aldiv@quotient+1)^080h,f
	comf	(___aldiv@quotient+2)^080h,f
	comf	(___aldiv@quotient+3)^080h,f
	incf	(___aldiv@quotient)^080h,f
	skipnz
	incf	(___aldiv@quotient+1)^080h,f
	skipnz
	incf	(___aldiv@quotient+2)^080h,f
	skipnz
	incf	(___aldiv@quotient+3)^080h,f
	goto	l2219
	
l586:	
	line	41
	
l2219:	
	movf	(___aldiv@quotient+3)^080h,w
	bcf	status, 5	;RP0=0, select bank0
	bcf	status, 6	;RP1=0, select bank0
	movwf	(?___aldiv+3)
	bsf	status, 5	;RP0=1, select bank1
	bcf	status, 6	;RP1=0, select bank1
	movf	(___aldiv@quotient+2)^080h,w
	bcf	status, 5	;RP0=0, select bank0
	bcf	status, 6	;RP1=0, select bank0
	movwf	(?___aldiv+2)
	bsf	status, 5	;RP0=1, select bank1
	bcf	status, 6	;RP1=0, select bank1
	movf	(___aldiv@quotient+1)^080h,w
	bcf	status, 5	;RP0=0, select bank0
	bcf	status, 6	;RP1=0, select bank0
	movwf	(?___aldiv+1)
	bsf	status, 5	;RP0=1, select bank1
	bcf	status, 6	;RP1=0, select bank1
	movf	(___aldiv@quotient)^080h,w
	bcf	status, 5	;RP0=0, select bank0
	bcf	status, 6	;RP1=0, select bank0
	movwf	(?___aldiv)

	goto	l587
	
l2221:	
	line	42
	
l587:	
	return
	opt stack 0
GLOBAL	__end_of___aldiv
	__end_of___aldiv:
	signat	___aldiv,8316
	global	_TIMER0_Set

;; *************** function _TIMER0_Set *****************
;; Defined at:
;;		line 20 in file "R:\Note\Sistema I\Ultimo C no MPLAB\timers.c"
;; Parameters:    Size  Location     Type
;;  contagens       1    wreg     unsigned char 
;; Auto vars:     Size  Location     Type
;;  contagens       1   17[BANK0 ] unsigned char 
;; Return value:  Size  Location     Type
;;		None               void
;; Registers used:
;;		wreg
;; Tracked objects:
;;		On entry : 0/0
;;		On exit  : 0/0
;;		Unchanged: 0/0
;; Data sizes:     COMMON   BANK0   BANK1   BANK3   BANK2
;;      Params:         0       0       0       0       0
;;      Locals:         0       1       0       0       0
;;      Temps:          0       0       0       0       0
;;      Totals:         0       1       0       0       0
;;Total ram usage:        1 bytes
;; Hardware stack levels used:    1
;; Hardware stack levels required when called:    4
;; This function calls:
;;		Nothing
;; This function is called by:
;;		_main
;; This function uses a non-reentrant model
;;
psect	text3,local,class=CODE,delta=2,merge=1
	file	"R:\Note\Sistema I\Ultimo C no MPLAB\timers.c"
	line	20
global __ptext3
__ptext3:	;psect for function _TIMER0_Set
psect	text3
	file	"R:\Note\Sistema I\Ultimo C no MPLAB\timers.c"
	line	20
	global	__size_of_TIMER0_Set
	__size_of_TIMER0_Set	equ	__end_of_TIMER0_Set-_TIMER0_Set
	
_TIMER0_Set:	
;incstack = 0
	opt	stack 3
; Regs used in _TIMER0_Set: [wreg]
;TIMER0_Set@contagens stored from wreg
	bcf	status, 5	;RP0=0, select bank0
	bcf	status, 6	;RP1=0, select bank0
	movwf	(TIMER0_Set@contagens)
	line	22
	
l1879:	
;timers.c: 22: TMR0 = contagens;
	movf	(TIMER0_Set@contagens),w
	movwf	(1)	;volatile
	line	23
	
l259:	
	return
	opt stack 0
GLOBAL	__end_of_TIMER0_Set
	__end_of_TIMER0_Set:
	signat	_TIMER0_Set,4216
	global	_TIMER0_Init

;; *************** function _TIMER0_Init *****************
;; Defined at:
;;		line 6 in file "R:\Note\Sistema I\Ultimo C no MPLAB\timers.c"
;; Parameters:    Size  Location     Type
;;		None
;; Auto vars:     Size  Location     Type
;;		None
;; Return value:  Size  Location     Type
;;		None               void
;; Registers used:
;;		None
;; Tracked objects:
;;		On entry : 0/0
;;		On exit  : 0/0
;;		Unchanged: 0/0
;; Data sizes:     COMMON   BANK0   BANK1   BANK3   BANK2
;;      Params:         0       0       0       0       0
;;      Locals:         0       0       0       0       0
;;      Temps:          0       0       0       0       0
;;      Totals:         0       0       0       0       0
;;Total ram usage:        0 bytes
;; Hardware stack levels used:    1
;; Hardware stack levels required when called:    4
;; This function calls:
;;		Nothing
;; This function is called by:
;;		_main
;; This function uses a non-reentrant model
;;
psect	text4,local,class=CODE,delta=2,merge=1
	line	6
global __ptext4
__ptext4:	;psect for function _TIMER0_Init
psect	text4
	file	"R:\Note\Sistema I\Ultimo C no MPLAB\timers.c"
	line	6
	global	__size_of_TIMER0_Init
	__size_of_TIMER0_Init	equ	__end_of_TIMER0_Init-_TIMER0_Init
	
_TIMER0_Init:	
;incstack = 0
	opt	stack 3
; Regs used in _TIMER0_Init: []
	line	8
	
l1921:	
;timers.c: 8: OPTION_REGbits.T0CS = 0;
	bsf	status, 5	;RP0=1, select bank1
	bcf	status, 6	;RP1=0, select bank1
	bcf	(129)^080h,5	;volatile
	line	9
;timers.c: 9: OPTION_REGbits.T0SE = 0;
	bcf	(129)^080h,4	;volatile
	line	10
;timers.c: 10: OPTION_REGbits.PSA = 0;
	bcf	(129)^080h,3	;volatile
	line	11
;timers.c: 11: OPTION_REGbits.PS2 = 1;
	bsf	(129)^080h,2	;volatile
	line	12
;timers.c: 12: OPTION_REGbits.PS1 = 1;
	bsf	(129)^080h,1	;volatile
	line	13
;timers.c: 13: OPTION_REGbits.PS0 = 1;
	bsf	(129)^080h,0	;volatile
	line	14
;timers.c: 14: INTCONbits.TMR0IF = 0;
	bcf	(11),2	;volatile
	line	15
;timers.c: 15: INTCONbits.TMR0IE = 1;
	bsf	(11),5	;volatile
	line	16
	
l256:	
	return
	opt stack 0
GLOBAL	__end_of_TIMER0_Init
	__end_of_TIMER0_Init:
	signat	_TIMER0_Init,88
	global	_PWM_Init

;; *************** function _PWM_Init *****************
;; Defined at:
;;		line 5 in file "R:\Note\Sistema I\Ultimo C no MPLAB\pwm.c"
;; Parameters:    Size  Location     Type
;;		None
;; Auto vars:     Size  Location     Type
;;		None
;; Return value:  Size  Location     Type
;;		None               void
;; Registers used:
;;		wreg
;; Tracked objects:
;;		On entry : 0/0
;;		On exit  : 0/0
;;		Unchanged: 0/0
;; Data sizes:     COMMON   BANK0   BANK1   BANK3   BANK2
;;      Params:         0       0       0       0       0
;;      Locals:         0       0       0       0       0
;;      Temps:          0       0       0       0       0
;;      Totals:         0       0       0       0       0
;;Total ram usage:        0 bytes
;; Hardware stack levels used:    1
;; Hardware stack levels required when called:    4
;; This function calls:
;;		Nothing
;; This function is called by:
;;		_main
;; This function uses a non-reentrant model
;;
psect	text5,local,class=CODE,delta=2,merge=1
	file	"R:\Note\Sistema I\Ultimo C no MPLAB\pwm.c"
	line	5
global __ptext5
__ptext5:	;psect for function _PWM_Init
psect	text5
	file	"R:\Note\Sistema I\Ultimo C no MPLAB\pwm.c"
	line	5
	global	__size_of_PWM_Init
	__size_of_PWM_Init	equ	__end_of_PWM_Init-_PWM_Init
	
_PWM_Init:	
;incstack = 0
	opt	stack 3
; Regs used in _PWM_Init: [wreg]
	line	14
	
l1925:	
;pwm.c: 14: T2CONbits.T2CKPS1 = 1;
	bcf	status, 5	;RP0=0, select bank0
	bcf	status, 6	;RP1=0, select bank0
	bsf	(18),1	;volatile
	line	15
;pwm.c: 15: T2CONbits.T2CKPS0 = 0;
	bcf	(18),0	;volatile
	line	18
;pwm.c: 18: T2CONbits.TOUTPS3 = 0;
	bcf	(18),6	;volatile
	line	19
;pwm.c: 19: T2CONbits.TOUTPS2 = 0;
	bcf	(18),5	;volatile
	line	20
;pwm.c: 20: T2CONbits.TOUTPS1 = 0;
	bcf	(18),4	;volatile
	line	21
;pwm.c: 21: T2CONbits.TOUTPS0 = 0;
	bcf	(18),3	;volatile
	line	24
;pwm.c: 24: T2CONbits.TMR2ON = 1;
	bsf	(18),2	;volatile
	line	27
	
l1927:	
;pwm.c: 27: PR2 = 255;
	movlw	(0FFh)
	bsf	status, 5	;RP0=1, select bank1
	bcf	status, 6	;RP1=0, select bank1
	movwf	(146)^080h	;volatile
	line	43
	
l1929:	
;pwm.c: 43: CCP1CONbits.CCP1M3 = 1;
	bcf	status, 5	;RP0=0, select bank0
	bcf	status, 6	;RP1=0, select bank0
	bsf	(23),3	;volatile
	line	44
	
l1931:	
;pwm.c: 44: CCP1CONbits.CCP1M2 = 1;
	bsf	(23),2	;volatile
	line	45
	
l1933:	
;pwm.c: 45: CCP1CONbits.CCP1M1 = 1;
	bsf	(23),1	;volatile
	line	46
	
l1935:	
;pwm.c: 46: CCP1CONbits.CCP1M0 = 1;
	bsf	(23),0	;volatile
	line	49
	
l1937:	
;pwm.c: 49: PIE1bits.CCP1IE = 1;
	bsf	status, 5	;RP0=1, select bank1
	bcf	status, 6	;RP1=0, select bank1
	bsf	(140)^080h,2	;volatile
	line	50
	
l1939:	
;pwm.c: 50: PIR1bits.CCP1IF = 0;
	bcf	status, 5	;RP0=0, select bank0
	bcf	status, 6	;RP1=0, select bank0
	bcf	(12),2	;volatile
	line	53
	
l1941:	
;pwm.c: 53: CCP2CONbits.CCP2M3 = 1;
	bsf	(29),3	;volatile
	line	54
	
l1943:	
;pwm.c: 54: CCP2CONbits.CCP2M2 = 1;
	bsf	(29),2	;volatile
	line	55
	
l1945:	
;pwm.c: 55: CCP2CONbits.CCP2M1 = 1;
	bsf	(29),1	;volatile
	line	56
	
l1947:	
;pwm.c: 56: CCP2CONbits.CCP2M0 = 1;
	bsf	(29),0	;volatile
	line	59
	
l1949:	
;pwm.c: 59: PIE2bits.CCP2IE = 1;
	bsf	status, 5	;RP0=1, select bank1
	bcf	status, 6	;RP1=0, select bank1
	bsf	(141)^080h,0	;volatile
	line	60
	
l1951:	
;pwm.c: 60: PIR2bits.CCP2IF = 0;
	bcf	status, 5	;RP0=0, select bank0
	bcf	status, 6	;RP1=0, select bank0
	bcf	(13),0	;volatile
	line	61
	
l407:	
	return
	opt stack 0
GLOBAL	__end_of_PWM_Init
	__end_of_PWM_Init:
	signat	_PWM_Init,88
	global	_PWM_DutyCycle2

;; *************** function _PWM_DutyCycle2 *****************
;; Defined at:
;;		line 96 in file "R:\Note\Sistema I\Ultimo C no MPLAB\pwm.c"
;; Parameters:    Size  Location     Type
;;  valor           2   17[BANK0 ] int 
;; Auto vars:     Size  Location     Type
;;		None
;; Return value:  Size  Location     Type
;;		None               void
;; Registers used:
;;		wreg, status,2, status,0
;; Tracked objects:
;;		On entry : 0/0
;;		On exit  : 0/0
;;		Unchanged: 0/0
;; Data sizes:     COMMON   BANK0   BANK1   BANK3   BANK2
;;      Params:         0       2       0       0       0
;;      Locals:         0       0       0       0       0
;;      Temps:          0       2       0       0       0
;;      Totals:         0       4       0       0       0
;;Total ram usage:        4 bytes
;; Hardware stack levels used:    1
;; Hardware stack levels required when called:    4
;; This function calls:
;;		Nothing
;; This function is called by:
;;		_main
;; This function uses a non-reentrant model
;;
psect	text6,local,class=CODE,delta=2,merge=1
	line	96
global __ptext6
__ptext6:	;psect for function _PWM_DutyCycle2
psect	text6
	file	"R:\Note\Sistema I\Ultimo C no MPLAB\pwm.c"
	line	96
	global	__size_of_PWM_DutyCycle2
	__size_of_PWM_DutyCycle2	equ	__end_of_PWM_DutyCycle2-_PWM_DutyCycle2
	
_PWM_DutyCycle2:	
;incstack = 0
	opt	stack 3
; Regs used in _PWM_DutyCycle2: [wreg+status,2+status,0]
	line	98
	
l1855:	
;pwm.c: 98: CCPR2L = valor >> 2;
	bcf	status, 5	;RP0=0, select bank0
	bcf	status, 6	;RP1=0, select bank0
	movf	(PWM_DutyCycle2@valor+1),w
	movwf	(??_PWM_DutyCycle2+0)+0+1
	movf	(PWM_DutyCycle2@valor),w
	movwf	(??_PWM_DutyCycle2+0)+0
	rlf	(??_PWM_DutyCycle2+0)+1,w
	rrf	(??_PWM_DutyCycle2+0)+1,f
	rrf	(??_PWM_DutyCycle2+0)+0,f
	rlf	(??_PWM_DutyCycle2+0)+1,w
	rrf	(??_PWM_DutyCycle2+0)+1,f
	rrf	(??_PWM_DutyCycle2+0)+0,f
	movf	0+(??_PWM_DutyCycle2+0)+0,w
	movwf	(27)	;volatile
	line	99
	
l1857:	
;pwm.c: 99: CCP2CON = (valor << 4)|0X0C;
	movf	(PWM_DutyCycle2@valor),w
	movwf	(??_PWM_DutyCycle2+0)+0
	movlw	(04h)-1
u1265:
	clrc
	rlf	(??_PWM_DutyCycle2+0)+0,f
	addlw	-1
	skipz
	goto	u1265
	clrc
	rlf	(??_PWM_DutyCycle2+0)+0,w
	iorlw	0Ch
	movwf	(29)	;volatile
	line	100
	
l413:	
	return
	opt stack 0
GLOBAL	__end_of_PWM_DutyCycle2
	__end_of_PWM_DutyCycle2:
	signat	_PWM_DutyCycle2,4216
	global	_PWM_DutyCycle1

;; *************** function _PWM_DutyCycle1 *****************
;; Defined at:
;;		line 64 in file "R:\Note\Sistema I\Ultimo C no MPLAB\pwm.c"
;; Parameters:    Size  Location     Type
;;  valor           2   17[BANK0 ] int 
;; Auto vars:     Size  Location     Type
;;		None
;; Return value:  Size  Location     Type
;;		None               void
;; Registers used:
;;		wreg, status,2, status,0
;; Tracked objects:
;;		On entry : 0/0
;;		On exit  : 0/0
;;		Unchanged: 0/0
;; Data sizes:     COMMON   BANK0   BANK1   BANK3   BANK2
;;      Params:         0       2       0       0       0
;;      Locals:         0       0       0       0       0
;;      Temps:          0       2       0       0       0
;;      Totals:         0       4       0       0       0
;;Total ram usage:        4 bytes
;; Hardware stack levels used:    1
;; Hardware stack levels required when called:    4
;; This function calls:
;;		Nothing
;; This function is called by:
;;		_main
;; This function uses a non-reentrant model
;;
psect	text7,local,class=CODE,delta=2,merge=1
	line	64
global __ptext7
__ptext7:	;psect for function _PWM_DutyCycle1
psect	text7
	file	"R:\Note\Sistema I\Ultimo C no MPLAB\pwm.c"
	line	64
	global	__size_of_PWM_DutyCycle1
	__size_of_PWM_DutyCycle1	equ	__end_of_PWM_DutyCycle1-_PWM_DutyCycle1
	
_PWM_DutyCycle1:	
;incstack = 0
	opt	stack 3
; Regs used in _PWM_DutyCycle1: [wreg+status,2+status,0]
	line	91
	
l1999:	
;pwm.c: 91: CCPR1L = valor >> 2;
	bcf	status, 5	;RP0=0, select bank0
	bcf	status, 6	;RP1=0, select bank0
	movf	(PWM_DutyCycle1@valor+1),w
	movwf	(??_PWM_DutyCycle1+0)+0+1
	movf	(PWM_DutyCycle1@valor),w
	movwf	(??_PWM_DutyCycle1+0)+0
	rlf	(??_PWM_DutyCycle1+0)+1,w
	rrf	(??_PWM_DutyCycle1+0)+1,f
	rrf	(??_PWM_DutyCycle1+0)+0,f
	rlf	(??_PWM_DutyCycle1+0)+1,w
	rrf	(??_PWM_DutyCycle1+0)+1,f
	rrf	(??_PWM_DutyCycle1+0)+0,f
	movf	0+(??_PWM_DutyCycle1+0)+0,w
	movwf	(21)	;volatile
	line	92
	
l2001:	
;pwm.c: 92: CCP1CON = (valor << 4)|0X0C;
	movf	(PWM_DutyCycle1@valor),w
	movwf	(??_PWM_DutyCycle1+0)+0
	movlw	(04h)-1
u1315:
	clrc
	rlf	(??_PWM_DutyCycle1+0)+0,f
	addlw	-1
	skipz
	goto	u1315
	clrc
	rlf	(??_PWM_DutyCycle1+0)+0,w
	iorlw	0Ch
	movwf	(23)	;volatile
	line	94
	
l410:	
	return
	opt stack 0
GLOBAL	__end_of_PWM_DutyCycle1
	__end_of_PWM_DutyCycle1:
	signat	_PWM_DutyCycle1,4216
	global	_LCD_WriteString

;; *************** function _LCD_WriteString *****************
;; Defined at:
;;		line 61 in file "R:\Note\Sistema I\Ultimo C no MPLAB\lcd.c"
;; Parameters:    Size  Location     Type
;;  Str             2   19[BANK0 ] PTR const unsigned char 
;;		 -> display_rpm(10), STR_3(6), STR_2(17), 
;; Auto vars:     Size  Location     Type
;;		None
;; Return value:  Size  Location     Type
;;		None               void
;; Registers used:
;;		wreg, fsr0l, fsr0h, status,2, status,0, btemp+1, pclath, cstack
;; Tracked objects:
;;		On entry : 0/0
;;		On exit  : 0/0
;;		Unchanged: 0/0
;; Data sizes:     COMMON   BANK0   BANK1   BANK3   BANK2
;;      Params:         0       2       0       0       0
;;      Locals:         0       0       0       0       0
;;      Temps:          0       0       0       0       0
;;      Totals:         0       2       0       0       0
;;Total ram usage:        2 bytes
;; Hardware stack levels used:    1
;; Hardware stack levels required when called:    5
;; This function calls:
;;		_LCD_WriteData
;; This function is called by:
;;		_main
;; This function uses a non-reentrant model
;;
psect	text8,local,class=CODE,delta=2,merge=1
	file	"R:\Note\Sistema I\Ultimo C no MPLAB\lcd.c"
	line	61
global __ptext8
__ptext8:	;psect for function _LCD_WriteString
psect	text8
	file	"R:\Note\Sistema I\Ultimo C no MPLAB\lcd.c"
	line	61
	global	__size_of_LCD_WriteString
	__size_of_LCD_WriteString	equ	__end_of_LCD_WriteString-_LCD_WriteString
	
_LCD_WriteString:	
;incstack = 0
	opt	stack 2
; Regs used in _LCD_WriteString: [wreg-fsr0h+status,2+status,0+btemp+1+pclath+cstack]
	line	63
	
l1991:	
;lcd.c: 63: while(*Str != '\0')
	goto	l1997
	
l288:	
	line	65
	
l1993:	
;lcd.c: 64: {
;lcd.c: 65: LCD_WriteData(*Str);
	bcf	status, 5	;RP0=0, select bank0
	bcf	status, 6	;RP1=0, select bank0
	movf	(LCD_WriteString@Str+1),w
	movwf	btemp+1
	movf	(LCD_WriteString@Str),w
	movwf	fsr0
	fcall	stringtab
	fcall	_LCD_WriteData
	line	66
	
l1995:	
;lcd.c: 66: Str++;
	movlw	01h
	bcf	status, 5	;RP0=0, select bank0
	bcf	status, 6	;RP1=0, select bank0
	addwf	(LCD_WriteString@Str),f
	skipnc
	incf	(LCD_WriteString@Str+1),f
	goto	l1997
	line	67
	
l287:	
	line	63
	
l1997:	
	bcf	status, 5	;RP0=0, select bank0
	bcf	status, 6	;RP1=0, select bank0
	movf	(LCD_WriteString@Str+1),w
	movwf	btemp+1
	movf	(LCD_WriteString@Str),w
	movwf	fsr0
	fcall	stringtab
	iorlw	0
	skipz
	goto	u1301
	goto	u1300
u1301:
	goto	l1993
u1300:
	goto	l290
	
l289:	
	line	68
	
l290:	
	return
	opt stack 0
GLOBAL	__end_of_LCD_WriteString
	__end_of_LCD_WriteString:
	signat	_LCD_WriteString,4216
	global	_LCD_WriteData

;; *************** function _LCD_WriteData *****************
;; Defined at:
;;		line 47 in file "R:\Note\Sistema I\Ultimo C no MPLAB\lcd.c"
;; Parameters:    Size  Location     Type
;;  Byte            1    wreg     unsigned char 
;; Auto vars:     Size  Location     Type
;;  Byte            1   18[BANK0 ] unsigned char 
;; Return value:  Size  Location     Type
;;		None               void
;; Registers used:
;;		wreg
;; Tracked objects:
;;		On entry : 0/0
;;		On exit  : 0/0
;;		Unchanged: 0/0
;; Data sizes:     COMMON   BANK0   BANK1   BANK3   BANK2
;;      Params:         0       0       0       0       0
;;      Locals:         0       1       0       0       0
;;      Temps:          0       1       0       0       0
;;      Totals:         0       2       0       0       0
;;Total ram usage:        2 bytes
;; Hardware stack levels used:    1
;; Hardware stack levels required when called:    4
;; This function calls:
;;		Nothing
;; This function is called by:
;;		_LCD_WriteString
;; This function uses a non-reentrant model
;;
psect	text9,local,class=CODE,delta=2,merge=1
	line	47
global __ptext9
__ptext9:	;psect for function _LCD_WriteData
psect	text9
	file	"R:\Note\Sistema I\Ultimo C no MPLAB\lcd.c"
	line	47
	global	__size_of_LCD_WriteData
	__size_of_LCD_WriteData	equ	__end_of_LCD_WriteData-_LCD_WriteData
	
_LCD_WriteData:	
;incstack = 0
	opt	stack 2
; Regs used in _LCD_WriteData: [wreg]
;LCD_WriteData@Byte stored from wreg
	bcf	status, 5	;RP0=0, select bank0
	bcf	status, 6	;RP1=0, select bank0
	movwf	(LCD_WriteData@Byte)
	line	49
	
l1667:	
;lcd.c: 49: PORTEbits.RE0 = 1;
	bsf	(9),0	;volatile
	line	51
	
l1669:	
;lcd.c: 51: PORTD = Byte;
	movf	(LCD_WriteData@Byte),w
	movwf	(8)	;volatile
	line	53
	
l1671:	
;lcd.c: 53: PORTEbits.RE1 = 1;
	bsf	(9),1	;volatile
	line	55
;lcd.c: 55: _delay((unsigned long)((40)*(18432000/4000000.0)));
	opt asmopt_off
movlw	61
movwf	(??_LCD_WriteData+0)+0,f
u1697:
decfsz	(??_LCD_WriteData+0)+0,f
	goto	u1697
opt asmopt_on

	line	57
	
l1673:	
;lcd.c: 57: PORTEbits.RE1 = 0;
	bcf	status, 5	;RP0=0, select bank0
	bcf	status, 6	;RP1=0, select bank0
	bcf	(9),1	;volatile
	line	58
	
l284:	
	return
	opt stack 0
GLOBAL	__end_of_LCD_WriteData
	__end_of_LCD_WriteData:
	signat	_LCD_WriteData,4216
	global	_LCD_Init

;; *************** function _LCD_Init *****************
;; Defined at:
;;		line 87 in file "R:\Note\Sistema I\Ultimo C no MPLAB\lcd.c"
;; Parameters:    Size  Location     Type
;;		None
;; Auto vars:     Size  Location     Type
;;		None
;; Return value:  Size  Location     Type
;;		None               void
;; Registers used:
;;		wreg, status,2, status,0, pclath, cstack
;; Tracked objects:
;;		On entry : 0/0
;;		On exit  : 0/0
;;		Unchanged: 0/0
;; Data sizes:     COMMON   BANK0   BANK1   BANK3   BANK2
;;      Params:         0       0       0       0       0
;;      Locals:         0       0       0       0       0
;;      Temps:          0       2       0       0       0
;;      Totals:         0       2       0       0       0
;;Total ram usage:        2 bytes
;; Hardware stack levels used:    1
;; Hardware stack levels required when called:    5
;; This function calls:
;;		_LCD_WriteCmd
;; This function is called by:
;;		_main
;; This function uses a non-reentrant model
;;
psect	text10,local,class=CODE,delta=2,merge=1
	line	87
global __ptext10
__ptext10:	;psect for function _LCD_Init
psect	text10
	file	"R:\Note\Sistema I\Ultimo C no MPLAB\lcd.c"
	line	87
	global	__size_of_LCD_Init
	__size_of_LCD_Init	equ	__end_of_LCD_Init-_LCD_Init
	
_LCD_Init:	
;incstack = 0
	opt	stack 2
; Regs used in _LCD_Init: [wreg+status,2+status,0+pclath+cstack]
	line	90
	
l1953:	
;lcd.c: 90: ADCON1bits.PCFG3 = 0;
	bsf	status, 5	;RP0=1, select bank1
	bcf	status, 6	;RP1=0, select bank1
	bcf	(159)^080h,3	;volatile
	line	91
;lcd.c: 91: ADCON1bits.PCFG2 = 1;
	bsf	(159)^080h,2	;volatile
	line	92
;lcd.c: 92: ADCON1bits.PCFG1 = 0;
	bcf	(159)^080h,1	;volatile
	line	93
;lcd.c: 93: ADCON1bits.PCFG0 = 0;
	bcf	(159)^080h,0	;volatile
	line	95
	
l1955:	
;lcd.c: 95: _delay((unsigned long)((15)*(18432000/4000.0)));
	opt asmopt_off
movlw	90
	bcf	status, 5	;RP0=0, select bank0
	bcf	status, 6	;RP1=0, select bank0
movwf	((??_LCD_Init+0)+0+1),f
	movlw	195
movwf	((??_LCD_Init+0)+0),f
u1707:
	decfsz	((??_LCD_Init+0)+0),f
	goto	u1707
	decfsz	((??_LCD_Init+0)+0+1),f
	goto	u1707
opt asmopt_on

	line	97
	
l1957:	
;lcd.c: 97: LCD_WriteCmd(0x30);
	movlw	(030h)
	fcall	_LCD_WriteCmd
	line	98
	
l1959:	
;lcd.c: 98: _delay((unsigned long)((4)*(18432000/4000.0)));
	opt asmopt_off
movlw	24
	bcf	status, 5	;RP0=0, select bank0
	bcf	status, 6	;RP1=0, select bank0
movwf	((??_LCD_Init+0)+0+1),f
	movlw	239
movwf	((??_LCD_Init+0)+0),f
u1717:
	decfsz	((??_LCD_Init+0)+0),f
	goto	u1717
	decfsz	((??_LCD_Init+0)+0+1),f
	goto	u1717
opt asmopt_on

	line	100
;lcd.c: 100: LCD_WriteCmd(0x30);
	movlw	(030h)
	fcall	_LCD_WriteCmd
	line	101
	
l1961:	
;lcd.c: 101: _delay((unsigned long)((100)*(18432000/4000000.0)));
	opt asmopt_off
movlw	153
	bcf	status, 5	;RP0=0, select bank0
	bcf	status, 6	;RP1=0, select bank0
movwf	(??_LCD_Init+0)+0,f
u1727:
decfsz	(??_LCD_Init+0)+0,f
	goto	u1727
opt asmopt_on

	line	103
	
l1963:	
;lcd.c: 103: LCD_WriteCmd(0x30);
	movlw	(030h)
	fcall	_LCD_WriteCmd
	line	104
;lcd.c: 104: _delay((unsigned long)((40)*(18432000/4000000.0)));
	opt asmopt_off
movlw	61
	bcf	status, 5	;RP0=0, select bank0
	bcf	status, 6	;RP1=0, select bank0
movwf	(??_LCD_Init+0)+0,f
u1737:
decfsz	(??_LCD_Init+0)+0,f
	goto	u1737
opt asmopt_on

	line	106
	
l1965:	
;lcd.c: 106: LCD_WriteCmd(0x38);
	movlw	(038h)
	fcall	_LCD_WriteCmd
	line	107
	
l1967:	
;lcd.c: 107: _delay((unsigned long)((40)*(18432000/4000000.0)));
	opt asmopt_off
movlw	61
	bcf	status, 5	;RP0=0, select bank0
	bcf	status, 6	;RP1=0, select bank0
movwf	(??_LCD_Init+0)+0,f
u1747:
decfsz	(??_LCD_Init+0)+0,f
	goto	u1747
opt asmopt_on

	line	109
;lcd.c: 109: LCD_WriteCmd(0x01);
	movlw	(01h)
	fcall	_LCD_WriteCmd
	line	110
	
l1969:	
;lcd.c: 110: _delay((unsigned long)((2)*(18432000/4000.0)));
	opt asmopt_off
movlw	12
	bcf	status, 5	;RP0=0, select bank0
	bcf	status, 6	;RP1=0, select bank0
movwf	((??_LCD_Init+0)+0+1),f
	movlw	247
movwf	((??_LCD_Init+0)+0),f
u1757:
	decfsz	((??_LCD_Init+0)+0),f
	goto	u1757
	decfsz	((??_LCD_Init+0)+0+1),f
	goto	u1757
opt asmopt_on

	line	112
	
l1971:	
;lcd.c: 112: LCD_WriteCmd(0x0C);
	movlw	(0Ch)
	fcall	_LCD_WriteCmd
	line	113
;lcd.c: 113: _delay((unsigned long)((40)*(18432000/4000000.0)));
	opt asmopt_off
movlw	61
	bcf	status, 5	;RP0=0, select bank0
	bcf	status, 6	;RP1=0, select bank0
movwf	(??_LCD_Init+0)+0,f
u1767:
decfsz	(??_LCD_Init+0)+0,f
	goto	u1767
opt asmopt_on

	line	115
	
l1973:	
;lcd.c: 115: LCD_WriteCmd(0x06);
	movlw	(06h)
	fcall	_LCD_WriteCmd
	line	116
	
l1975:	
;lcd.c: 116: _delay((unsigned long)((40)*(18432000/4000000.0)));
	opt asmopt_off
movlw	61
	bcf	status, 5	;RP0=0, select bank0
	bcf	status, 6	;RP1=0, select bank0
movwf	(??_LCD_Init+0)+0,f
u1777:
decfsz	(??_LCD_Init+0)+0,f
	goto	u1777
opt asmopt_on

	line	117
	
l296:	
	return
	opt stack 0
GLOBAL	__end_of_LCD_Init
	__end_of_LCD_Init:
	signat	_LCD_Init,88
	global	_LCD_Cursor

;; *************** function _LCD_Cursor *****************
;; Defined at:
;;		line 10 in file "R:\Note\Sistema I\Ultimo C no MPLAB\lcd.c"
;; Parameters:    Size  Location     Type
;;  Row             1    wreg     unsigned char 
;;  Col             1   17[BANK0 ] unsigned char 
;; Auto vars:     Size  Location     Type
;;  Row             1   19[BANK0 ] unsigned char 
;; Return value:  Size  Location     Type
;;		None               void
;; Registers used:
;;		wreg, status,2, status,0
;; Tracked objects:
;;		On entry : 0/0
;;		On exit  : 0/0
;;		Unchanged: 0/0
;; Data sizes:     COMMON   BANK0   BANK1   BANK3   BANK2
;;      Params:         0       1       0       0       0
;;      Locals:         0       1       0       0       0
;;      Temps:          0       1       0       0       0
;;      Totals:         0       3       0       0       0
;;Total ram usage:        3 bytes
;; Hardware stack levels used:    1
;; Hardware stack levels required when called:    4
;; This function calls:
;;		Nothing
;; This function is called by:
;;		_main
;; This function uses a non-reentrant model
;;
psect	text11,local,class=CODE,delta=2,merge=1
	line	10
global __ptext11
__ptext11:	;psect for function _LCD_Cursor
psect	text11
	file	"R:\Note\Sistema I\Ultimo C no MPLAB\lcd.c"
	line	10
	global	__size_of_LCD_Cursor
	__size_of_LCD_Cursor	equ	__end_of_LCD_Cursor-_LCD_Cursor
	
_LCD_Cursor:	
;incstack = 0
	opt	stack 3
; Regs used in _LCD_Cursor: [wreg+status,2+status,0]
;LCD_Cursor@Row stored from wreg
	bcf	status, 5	;RP0=0, select bank0
	bcf	status, 6	;RP1=0, select bank0
	movwf	(LCD_Cursor@Row)
	line	12
	
l1977:	
;lcd.c: 12: PORTEbits.RE0 = 0;
	bcf	(9),0	;volatile
	line	14
	
l1979:	
;lcd.c: 14: if (Row == 0)
	movf	(LCD_Cursor@Row),f
	skipz
	goto	u1291
	goto	u1290
u1291:
	goto	l1983
u1290:
	line	16
	
l1981:	
;lcd.c: 15: {
;lcd.c: 16: PORTD = 0x80 + Col;
	movf	(LCD_Cursor@Col),w
	addlw	080h
	movwf	(8)	;volatile
	line	17
;lcd.c: 17: }
	goto	l1985
	line	18
	
l276:	
	line	20
	
l1983:	
;lcd.c: 18: else
;lcd.c: 19: {
;lcd.c: 20: PORTD = 0xC0 + Col;
	movf	(LCD_Cursor@Col),w
	addlw	0C0h
	movwf	(8)	;volatile
	goto	l1985
	line	21
	
l277:	
	line	24
	
l1985:	
;lcd.c: 21: }
;lcd.c: 24: PORTEbits.RE1 = 1;
	bsf	(9),1	;volatile
	line	26
	
l1987:	
;lcd.c: 26: _delay((unsigned long)((40)*(18432000/4000000.0)));
	opt asmopt_off
movlw	61
movwf	(??_LCD_Cursor+0)+0,f
u1787:
decfsz	(??_LCD_Cursor+0)+0,f
	goto	u1787
opt asmopt_on

	line	28
	
l1989:	
;lcd.c: 28: PORTEbits.RE1 = 0;
	bcf	status, 5	;RP0=0, select bank0
	bcf	status, 6	;RP1=0, select bank0
	bcf	(9),1	;volatile
	line	29
	
l278:	
	return
	opt stack 0
GLOBAL	__end_of_LCD_Cursor
	__end_of_LCD_Cursor:
	signat	_LCD_Cursor,8312
	global	_LCD_Clear

;; *************** function _LCD_Clear *****************
;; Defined at:
;;		line 71 in file "R:\Note\Sistema I\Ultimo C no MPLAB\lcd.c"
;; Parameters:    Size  Location     Type
;;		None
;; Auto vars:     Size  Location     Type
;;		None
;; Return value:  Size  Location     Type
;;		None               void
;; Registers used:
;;		wreg, status,2, status,0, pclath, cstack
;; Tracked objects:
;;		On entry : 0/0
;;		On exit  : 0/0
;;		Unchanged: 0/0
;; Data sizes:     COMMON   BANK0   BANK1   BANK3   BANK2
;;      Params:         0       0       0       0       0
;;      Locals:         0       0       0       0       0
;;      Temps:          0       2       0       0       0
;;      Totals:         0       2       0       0       0
;;Total ram usage:        2 bytes
;; Hardware stack levels used:    1
;; Hardware stack levels required when called:    5
;; This function calls:
;;		_LCD_WriteCmd
;; This function is called by:
;;		_main
;; This function uses a non-reentrant model
;;
psect	text12,local,class=CODE,delta=2,merge=1
	line	71
global __ptext12
__ptext12:	;psect for function _LCD_Clear
psect	text12
	file	"R:\Note\Sistema I\Ultimo C no MPLAB\lcd.c"
	line	71
	global	__size_of_LCD_Clear
	__size_of_LCD_Clear	equ	__end_of_LCD_Clear-_LCD_Clear
	
_LCD_Clear:	
;incstack = 0
	opt	stack 2
; Regs used in _LCD_Clear: [wreg+status,2+status,0+pclath+cstack]
	line	73
	
l2003:	
;lcd.c: 73: LCD_WriteCmd(0x01);
	movlw	(01h)
	fcall	_LCD_WriteCmd
	line	75
	
l2005:	
;lcd.c: 75: _delay((unsigned long)((2)*(18432000/4000.0)));
	opt asmopt_off
movlw	12
	bcf	status, 5	;RP0=0, select bank0
	bcf	status, 6	;RP1=0, select bank0
movwf	((??_LCD_Clear+0)+0+1),f
	movlw	247
movwf	((??_LCD_Clear+0)+0),f
u1797:
	decfsz	((??_LCD_Clear+0)+0),f
	goto	u1797
	decfsz	((??_LCD_Clear+0)+0+1),f
	goto	u1797
opt asmopt_on

	line	77
	
l2007:	
;lcd.c: 77: LCD_WriteCmd(0x0C);
	movlw	(0Ch)
	fcall	_LCD_WriteCmd
	line	79
;lcd.c: 79: _delay((unsigned long)((40)*(18432000/4000000.0)));
	opt asmopt_off
movlw	61
	bcf	status, 5	;RP0=0, select bank0
	bcf	status, 6	;RP1=0, select bank0
movwf	(??_LCD_Clear+0)+0,f
u1807:
decfsz	(??_LCD_Clear+0)+0,f
	goto	u1807
opt asmopt_on

	line	81
	
l2009:	
;lcd.c: 81: LCD_WriteCmd(0x06);
	movlw	(06h)
	fcall	_LCD_WriteCmd
	line	83
	
l2011:	
;lcd.c: 83: _delay((unsigned long)((40)*(18432000/4000000.0)));
	opt asmopt_off
movlw	61
	bcf	status, 5	;RP0=0, select bank0
	bcf	status, 6	;RP1=0, select bank0
movwf	(??_LCD_Clear+0)+0,f
u1817:
decfsz	(??_LCD_Clear+0)+0,f
	goto	u1817
opt asmopt_on

	line	84
	
l293:	
	return
	opt stack 0
GLOBAL	__end_of_LCD_Clear
	__end_of_LCD_Clear:
	signat	_LCD_Clear,88
	global	_LCD_WriteCmd

;; *************** function _LCD_WriteCmd *****************
;; Defined at:
;;		line 32 in file "R:\Note\Sistema I\Ultimo C no MPLAB\lcd.c"
;; Parameters:    Size  Location     Type
;;  Byte            1    wreg     unsigned char 
;; Auto vars:     Size  Location     Type
;;  Byte            1   18[BANK0 ] unsigned char 
;; Return value:  Size  Location     Type
;;		None               void
;; Registers used:
;;		wreg
;; Tracked objects:
;;		On entry : 0/0
;;		On exit  : 0/0
;;		Unchanged: 0/0
;; Data sizes:     COMMON   BANK0   BANK1   BANK3   BANK2
;;      Params:         0       0       0       0       0
;;      Locals:         0       1       0       0       0
;;      Temps:          0       1       0       0       0
;;      Totals:         0       2       0       0       0
;;Total ram usage:        2 bytes
;; Hardware stack levels used:    1
;; Hardware stack levels required when called:    4
;; This function calls:
;;		Nothing
;; This function is called by:
;;		_LCD_Clear
;;		_LCD_Init
;; This function uses a non-reentrant model
;;
psect	text13,local,class=CODE,delta=2,merge=1
	line	32
global __ptext13
__ptext13:	;psect for function _LCD_WriteCmd
psect	text13
	file	"R:\Note\Sistema I\Ultimo C no MPLAB\lcd.c"
	line	32
	global	__size_of_LCD_WriteCmd
	__size_of_LCD_WriteCmd	equ	__end_of_LCD_WriteCmd-_LCD_WriteCmd
	
_LCD_WriteCmd:	
;incstack = 0
	opt	stack 2
; Regs used in _LCD_WriteCmd: [wreg]
;LCD_WriteCmd@Byte stored from wreg
	bcf	status, 5	;RP0=0, select bank0
	bcf	status, 6	;RP1=0, select bank0
	movwf	(LCD_WriteCmd@Byte)
	line	34
	
l1659:	
;lcd.c: 34: PORTEbits.RE0 = 0;
	bcf	(9),0	;volatile
	line	36
	
l1661:	
;lcd.c: 36: PORTD = Byte;
	movf	(LCD_WriteCmd@Byte),w
	movwf	(8)	;volatile
	line	39
	
l1663:	
;lcd.c: 39: PORTEbits.RE1 = 1;
	bsf	(9),1	;volatile
	line	41
;lcd.c: 41: _delay((unsigned long)((40)*(18432000/4000000.0)));
	opt asmopt_off
movlw	61
movwf	(??_LCD_WriteCmd+0)+0,f
u1827:
decfsz	(??_LCD_WriteCmd+0)+0,f
	goto	u1827
opt asmopt_on

	line	43
	
l1665:	
;lcd.c: 43: PORTEbits.RE1 = 0;
	bcf	status, 5	;RP0=0, select bank0
	bcf	status, 6	;RP1=0, select bank0
	bcf	(9),1	;volatile
	line	44
	
l281:	
	return
	opt stack 0
GLOBAL	__end_of_LCD_WriteCmd
	__end_of_LCD_WriteCmd:
	signat	_LCD_WriteCmd,4216
	global	_ADC_Init

;; *************** function _ADC_Init *****************
;; Defined at:
;;		line 6 in file "R:\Note\Sistema I\Ultimo C no MPLAB\adc.c"
;; Parameters:    Size  Location     Type
;;		None
;; Auto vars:     Size  Location     Type
;;		None
;; Return value:  Size  Location     Type
;;		None               void
;; Registers used:
;;		None
;; Tracked objects:
;;		On entry : 0/0
;;		On exit  : 0/0
;;		Unchanged: 0/0
;; Data sizes:     COMMON   BANK0   BANK1   BANK3   BANK2
;;      Params:         0       0       0       0       0
;;      Locals:         0       0       0       0       0
;;      Temps:          0       0       0       0       0
;;      Totals:         0       0       0       0       0
;;Total ram usage:        0 bytes
;; Hardware stack levels used:    1
;; Hardware stack levels required when called:    4
;; This function calls:
;;		Nothing
;; This function is called by:
;;		_main
;; This function uses a non-reentrant model
;;
psect	text14,local,class=CODE,delta=2,merge=1
	file	"R:\Note\Sistema I\Ultimo C no MPLAB\adc.c"
	line	6
global __ptext14
__ptext14:	;psect for function _ADC_Init
psect	text14
	file	"R:\Note\Sistema I\Ultimo C no MPLAB\adc.c"
	line	6
	global	__size_of_ADC_Init
	__size_of_ADC_Init	equ	__end_of_ADC_Init-_ADC_Init
	
_ADC_Init:	
;incstack = 0
	opt	stack 3
; Regs used in _ADC_Init: []
	line	9
	
l1923:	
;adc.c: 9: ADCON1bits.ADFM = 1;
	bsf	status, 5	;RP0=1, select bank1
	bcf	status, 6	;RP1=0, select bank1
	bsf	(159)^080h,7	;volatile
	line	32
;adc.c: 32: ADCON1bits.PCFG3 = 1;
	bsf	(159)^080h,3	;volatile
	line	33
;adc.c: 33: ADCON1bits.PCFG2 = 1;
	bsf	(159)^080h,2	;volatile
	line	34
;adc.c: 34: ADCON1bits.PCFG1 = 1;
	bsf	(159)^080h,1	;volatile
	line	35
;adc.c: 35: ADCON1bits.PCFG0 = 0;
	bcf	(159)^080h,0	;volatile
	line	38
;adc.c: 38: ADCON0bits.ADCS1 = 1;
	bcf	status, 5	;RP0=0, select bank0
	bcf	status, 6	;RP1=0, select bank0
	bsf	(31),7	;volatile
	line	39
;adc.c: 39: ADCON0bits.ADCS0 = 0;
	bcf	(31),6	;volatile
	line	42
;adc.c: 42: PIE1bits.ADIE = 0;
	bsf	status, 5	;RP0=1, select bank1
	bcf	status, 6	;RP1=0, select bank1
	bcf	(140)^080h,6	;volatile
	line	43
;adc.c: 43: PIR1bits.ADIF = 0;
	bcf	status, 5	;RP0=0, select bank0
	bcf	status, 6	;RP1=0, select bank0
	bcf	(12),6	;volatile
	line	44
	
l233:	
	return
	opt stack 0
GLOBAL	__end_of_ADC_Init
	__end_of_ADC_Init:
	signat	_ADC_Init,88
	global	_ISR

;; *************** function _ISR *****************
;; Defined at:
;;		line 371 in file "R:\Note\Sistema I\Ultimo C no MPLAB\main.c"
;; Parameters:    Size  Location     Type
;;		None
;; Auto vars:     Size  Location     Type
;;		None
;; Return value:  Size  Location     Type
;;		None               void
;; Registers used:
;;		wreg, fsr0l, fsr0h, status,2, status,0, pclath, cstack
;; Tracked objects:
;;		On entry : 0/0
;;		On exit  : 0/0
;;		Unchanged: 0/0
;; Data sizes:     COMMON   BANK0   BANK1   BANK3   BANK2
;;      Params:         0       0       0       0       0
;;      Locals:         0       0       0       0       0
;;      Temps:          0       4       0       0       0
;;      Totals:         0       4       0       0       0
;;Total ram usage:        4 bytes
;; Hardware stack levels used:    1
;; Hardware stack levels required when called:    3
;; This function calls:
;;		_Fuzzy
;;		_USART_ReceiveChar
;;		_USART_WriteString
;;		___lwdiv
;;		___wmul
;;		_send
;;		i1_PWM_DutyCycle2
;;		i1_TIMER0_Set
;; This function is called by:
;;		Interrupt level 1
;; This function uses a non-reentrant model
;;
psect	text15,local,class=CODE,delta=2,merge=1
	file	"R:\Note\Sistema I\Ultimo C no MPLAB\main.c"
	line	371
global __ptext15
__ptext15:	;psect for function _ISR
psect	text15
	file	"R:\Note\Sistema I\Ultimo C no MPLAB\main.c"
	line	371
	global	__size_of_ISR
	__size_of_ISR	equ	__end_of_ISR-_ISR
	
_ISR:	
;incstack = 0
	opt	stack 2
; Regs used in _ISR: [wreg-fsr0h+status,2+status,0+pclath+cstack]
psect	intentry,class=CODE,delta=2
global __pintentry
__pintentry:
global interrupt_function
interrupt_function:
	global saved_w
	saved_w	set	btemp+0
	movwf	saved_w
	swapf	status,w
	bcf	status, 5	;RP0=0, select bank0
	bcf	status, 6	;RP1=0, select bank0
	movwf	(??_ISR+0)
	movf	fsr0,w
	movwf	(??_ISR+1)
	movf	pclath,w
	movwf	(??_ISR+2)
	movf	btemp+1,w
	movwf	(??_ISR+3)
	ljmp	_ISR
psect	text15
	line	374
	
i1l2041:	
;main.c: 374: if (PIR1bits.RCIF)
	btfss	(12),5	;volatile
	goto	u139_21
	goto	u139_20
u139_21:
	goto	i1l2097
u139_20:
	line	376
	
i1l2043:	
;main.c: 375: {
;main.c: 376: if (USART_ReceiveChar() == '0')
	fcall	_USART_ReceiveChar
	xorlw	030h
	skipz
	goto	u140_21
	goto	u140_20
u140_21:
	goto	i1l2051
u140_20:
	line	378
	
i1l2045:	
;main.c: 377: {
;main.c: 378: USART_WriteString("\n\rdesligado\n\r");
	movlw	((STR_1)-__stringbase)&0ffh
	fcall	_USART_WriteString
	line	380
	
i1l2047:	
;main.c: 380: PWM_DutyCycle2(0);
	movlw	low(0)
	movwf	(i1PWM_DutyCycle2@valor)
	movlw	high(0)
	movwf	((i1PWM_DutyCycle2@valor))+1
	fcall	i1_PWM_DutyCycle2
	goto	i1l158
	line	381
	
i1l2049:	
;main.c: 381: return;
	goto	i1l158
	line	382
	
i1l157:	
	line	384
	
i1l2051:	
;main.c: 382: }
;main.c: 384: if (USART_ReceiveChar() == '1')
	fcall	_USART_ReceiveChar
	xorlw	031h
	skipz
	goto	u141_21
	goto	u141_20
u141_21:
	goto	i1l2055
u141_20:
	line	386
	
i1l2053:	
;main.c: 385: {
;main.c: 386: setpointUI = 720;
	movlw	low(02D0h)
	bcf	status, 5	;RP0=0, select bank0
	bcf	status, 6	;RP1=0, select bank0
	movwf	(_setpointUI)
	movlw	high(02D0h)
	movwf	((_setpointUI))+1
	goto	i1l2055
	line	388
	
i1l159:	
	line	390
	
i1l2055:	
;main.c: 388: }
;main.c: 390: if (USART_ReceiveChar() == '2')
	fcall	_USART_ReceiveChar
	xorlw	032h
	skipz
	goto	u142_21
	goto	u142_20
u142_21:
	goto	i1l2059
u142_20:
	line	392
	
i1l2057:	
;main.c: 391: {
;main.c: 392: setpointUI = 1450;
	movlw	low(05AAh)
	bcf	status, 5	;RP0=0, select bank0
	bcf	status, 6	;RP1=0, select bank0
	movwf	(_setpointUI)
	movlw	high(05AAh)
	movwf	((_setpointUI))+1
	goto	i1l2059
	line	394
	
i1l160:	
	line	396
	
i1l2059:	
;main.c: 394: }
;main.c: 396: if (USART_ReceiveChar() == '3')
	fcall	_USART_ReceiveChar
	xorlw	033h
	skipz
	goto	u143_21
	goto	u143_20
u143_21:
	goto	i1l2063
u143_20:
	line	398
	
i1l2061:	
;main.c: 397: {
;main.c: 398: setpointUI = 2828;
	movlw	low(0B0Ch)
	bcf	status, 5	;RP0=0, select bank0
	bcf	status, 6	;RP1=0, select bank0
	movwf	(_setpointUI)
	movlw	high(0B0Ch)
	movwf	((_setpointUI))+1
	goto	i1l2063
	line	400
	
i1l161:	
	line	402
	
i1l2063:	
;main.c: 400: }
;main.c: 402: if (USART_ReceiveChar() == '4')
	fcall	_USART_ReceiveChar
	xorlw	034h
	skipz
	goto	u144_21
	goto	u144_20
u144_21:
	goto	i1l2067
u144_20:
	line	404
	
i1l2065:	
;main.c: 403: {
;main.c: 404: setpointUI = 3256;
	movlw	low(0CB8h)
	bcf	status, 5	;RP0=0, select bank0
	bcf	status, 6	;RP1=0, select bank0
	movwf	(_setpointUI)
	movlw	high(0CB8h)
	movwf	((_setpointUI))+1
	goto	i1l2067
	line	406
	
i1l162:	
	line	408
	
i1l2067:	
;main.c: 406: }
;main.c: 408: if (USART_ReceiveChar() == '5')
	fcall	_USART_ReceiveChar
	xorlw	035h
	skipz
	goto	u145_21
	goto	u145_20
u145_21:
	goto	i1l2071
u145_20:
	line	410
	
i1l2069:	
;main.c: 409: {
;main.c: 410: setpointUI = 4510;
	movlw	low(0119Eh)
	bcf	status, 5	;RP0=0, select bank0
	bcf	status, 6	;RP1=0, select bank0
	movwf	(_setpointUI)
	movlw	high(0119Eh)
	movwf	((_setpointUI))+1
	goto	i1l2071
	line	412
	
i1l163:	
	line	414
	
i1l2071:	
;main.c: 412: }
;main.c: 414: if (USART_ReceiveChar() == '6')
	fcall	_USART_ReceiveChar
	xorlw	036h
	skipz
	goto	u146_21
	goto	u146_20
u146_21:
	goto	i1l2075
u146_20:
	line	416
	
i1l2073:	
;main.c: 415: {
;main.c: 416: setpointUI = 5760;
	movlw	low(01680h)
	bcf	status, 5	;RP0=0, select bank0
	bcf	status, 6	;RP1=0, select bank0
	movwf	(_setpointUI)
	movlw	high(01680h)
	movwf	((_setpointUI))+1
	goto	i1l2075
	line	418
	
i1l164:	
	line	420
	
i1l2075:	
;main.c: 418: }
;main.c: 420: if (USART_ReceiveChar() == '7')
	fcall	_USART_ReceiveChar
	xorlw	037h
	skipz
	goto	u147_21
	goto	u147_20
u147_21:
	goto	i1l2079
u147_20:
	line	422
	
i1l2077:	
;main.c: 421: {
;main.c: 422: setpointUI = 6890;
	movlw	low(01AEAh)
	bcf	status, 5	;RP0=0, select bank0
	bcf	status, 6	;RP1=0, select bank0
	movwf	(_setpointUI)
	movlw	high(01AEAh)
	movwf	((_setpointUI))+1
	goto	i1l2079
	line	424
	
i1l165:	
	line	426
	
i1l2079:	
;main.c: 424: }
;main.c: 426: if (USART_ReceiveChar() == '8')
	fcall	_USART_ReceiveChar
	xorlw	038h
	skipz
	goto	u148_21
	goto	u148_20
u148_21:
	goto	i1l2083
u148_20:
	line	428
	
i1l2081:	
;main.c: 427: {
;main.c: 428: setpointUI = 8100;
	movlw	low(01FA4h)
	bcf	status, 5	;RP0=0, select bank0
	bcf	status, 6	;RP1=0, select bank0
	movwf	(_setpointUI)
	movlw	high(01FA4h)
	movwf	((_setpointUI))+1
	goto	i1l2083
	line	430
	
i1l166:	
	line	432
	
i1l2083:	
;main.c: 430: }
;main.c: 432: if (USART_ReceiveChar() == '9')
	fcall	_USART_ReceiveChar
	xorlw	039h
	skipz
	goto	u149_21
	goto	u149_20
u149_21:
	goto	i1l2087
u149_20:
	line	434
	
i1l2085:	
;main.c: 433: {
;main.c: 434: setpointUI = 9000;
	movlw	low(02328h)
	bcf	status, 5	;RP0=0, select bank0
	bcf	status, 6	;RP1=0, select bank0
	movwf	(_setpointUI)
	movlw	high(02328h)
	movwf	((_setpointUI))+1
	goto	i1l2087
	line	436
	
i1l167:	
	line	440
	
i1l2087:	
;main.c: 436: }
;main.c: 440: Fuzzy();
	fcall	_Fuzzy
	line	441
	
i1l2089:	
;main.c: 441: antigoUI = setpointUI;
	bcf	status, 5	;RP0=0, select bank0
	bcf	status, 6	;RP1=0, select bank0
	movf	(_setpointUI+1),w
	clrf	(_antigoUI+1)
	addwf	(_antigoUI+1)
	movf	(_setpointUI),w
	clrf	(_antigoUI)
	addwf	(_antigoUI)

	line	444
	
i1l2091:	
;main.c: 444: if(USART_ReceiveChar() == 'X')
	fcall	_USART_ReceiveChar
	xorlw	058h
	skipz
	goto	u150_21
	goto	u150_20
u150_21:
	goto	i1l2095
u150_20:
	line	446
	
i1l2093:	
;main.c: 445: {
;main.c: 446: send();
	fcall	_send
	goto	i1l2095
	line	447
	
i1l168:	
	line	449
	
i1l2095:	
;main.c: 447: }
;main.c: 449: PIR1bits.RCIF = 0;
	bcf	status, 5	;RP0=0, select bank0
	bcf	status, 6	;RP1=0, select bank0
	bcf	(12),5	;volatile
	goto	i1l2097
	line	450
	
i1l156:	
	line	453
	
i1l2097:	
;main.c: 450: }
;main.c: 453: if (PIR1bits.ADIF)
	btfss	(12),6	;volatile
	goto	u151_21
	goto	u151_20
u151_21:
	goto	i1l169
u151_20:
	line	458
	
i1l2099:	
;main.c: 454: {
;main.c: 458: PIR1bits.ADIF = 0;
	bcf	(12),6	;volatile
	line	459
	
i1l169:	
	line	463
;main.c: 459: }
;main.c: 463: if (INTCONbits.T0IF)
	btfss	(11),2	;volatile
	goto	u152_21
	goto	u152_20
u152_21:
	goto	i1l2125
u152_20:
	line	466
	
i1l2101:	
;main.c: 464: {
;main.c: 466: TIMER0_Set(238);
	movlw	(0EEh)
	fcall	i1_TIMER0_Set
	line	469
	
i1l2103:	
;main.c: 469: if (contagens_tm0 < 499)
	movlw	high(01F3h)
	bcf	status, 5	;RP0=0, select bank0
	bcf	status, 6	;RP1=0, select bank0
	subwf	(_contagens_tm0+1),w
	movlw	low(01F3h)
	skipnz
	subwf	(_contagens_tm0),w
	skipnc
	goto	u153_21
	goto	u153_20
u153_21:
	goto	i1l2109
u153_20:
	line	472
	
i1l2105:	
;main.c: 470: {
;main.c: 472: contagens_tm0++;
	movlw	low(01h)
	addwf	(_contagens_tm0),f
	skipnc
	incf	(_contagens_tm0+1),f
	movlw	high(01h)
	addwf	(_contagens_tm0+1),f
	line	475
	
i1l2107:	
;main.c: 475: PORTBbits.RB6 = 1;
	bsf	(6),6	;volatile
	line	476
;main.c: 476: }
	goto	i1l2123
	line	477
	
i1l171:	
	line	480
	
i1l2109:	
;main.c: 477: else
;main.c: 478: {
;main.c: 480: contagens_tm0 = 0;
	clrf	(_contagens_tm0)
	clrf	(_contagens_tm0+1)
	line	483
	
i1l2111:	
;main.c: 483: pulsos = (TMR1H << 8) + TMR1L;
	movf	(15),w	;volatile
	clrf	(_pulsos+1)
	addwf	(_pulsos+1)
	movf	(14),w	;volatile
	clrf	(_pulsos)
	addwf	(_pulsos)

	line	484
	
i1l2113:	
;main.c: 484: rpm = ((pulsos / pas_cooler) * 120);
	movf	(_pas_cooler+1),w
	clrf	(___lwdiv@divisor+1)
	addwf	(___lwdiv@divisor+1)
	movf	(_pas_cooler),w
	clrf	(___lwdiv@divisor)
	addwf	(___lwdiv@divisor)

	movf	(_pulsos+1),w
	clrf	(___lwdiv@dividend+1)
	addwf	(___lwdiv@dividend+1)
	movf	(_pulsos),w
	clrf	(___lwdiv@dividend)
	addwf	(___lwdiv@dividend)

	fcall	___lwdiv
	movf	(1+(?___lwdiv)),w
	clrf	(___wmul@multiplier+1)
	addwf	(___wmul@multiplier+1)
	movf	(0+(?___lwdiv)),w
	clrf	(___wmul@multiplier)
	addwf	(___wmul@multiplier)

	movlw	low(078h)
	movwf	(___wmul@multiplicand)
	movlw	high(078h)
	movwf	((___wmul@multiplicand))+1
	fcall	___wmul
	movf	(1+(?___wmul)),w
	bcf	status, 5	;RP0=0, select bank0
	bcf	status, 6	;RP1=0, select bank0
	clrf	(_rpm+1)
	addwf	(_rpm+1)
	movf	(0+(?___wmul)),w
	clrf	(_rpm)
	addwf	(_rpm)

	line	488
	
i1l2115:	
;main.c: 488: rpm = rpm / 40;
	movlw	low(028h)
	movwf	(___lwdiv@divisor)
	movlw	high(028h)
	movwf	((___lwdiv@divisor))+1
	movf	(_rpm+1),w
	clrf	(___lwdiv@dividend+1)
	addwf	(___lwdiv@dividend+1)
	movf	(_rpm),w
	clrf	(___lwdiv@dividend)
	addwf	(___lwdiv@dividend)

	fcall	___lwdiv
	movf	(1+(?___lwdiv)),w
	bcf	status, 5	;RP0=0, select bank0
	bcf	status, 6	;RP1=0, select bank0
	clrf	(_rpm+1)
	addwf	(_rpm+1)
	movf	(0+(?___lwdiv)),w
	clrf	(_rpm)
	addwf	(_rpm)

	line	491
	
i1l2117:	
;main.c: 491: TMR1L = 0x00;
	clrf	(14)	;volatile
	line	492
	
i1l2119:	
;main.c: 492: TMR1H = 0x00;
	clrf	(15)	;volatile
	line	495
	
i1l2121:	
;main.c: 495: PORTBbits.RB6 = 0;
	bcf	(6),6	;volatile
	goto	i1l2123
	line	496
	
i1l172:	
	line	499
	
i1l2123:	
;main.c: 496: }
;main.c: 499: INTCONbits.T0IF = 0;
	bcf	(11),2	;volatile
	goto	i1l2125
	line	500
	
i1l170:	
	line	503
	
i1l2125:	
;main.c: 500: }
;main.c: 503: if (PIR1bits.TMR1IF)
	btfss	(12),0	;volatile
	goto	u154_21
	goto	u154_20
u154_21:
	goto	i1l173
u154_20:
	line	508
	
i1l2127:	
;main.c: 504: {
;main.c: 508: PIR1bits.TMR1IF = 0;
	bcf	(12),0	;volatile
	line	509
	
i1l173:	
	line	512
;main.c: 509: }
;main.c: 512: if (PIR1bits.SSPIF)
	btfss	(12),3	;volatile
	goto	u155_21
	goto	u155_20
u155_21:
	goto	i1l158
u155_20:
	line	517
	
i1l2129:	
;main.c: 513: {
;main.c: 517: PIR1bits.SSPIF = 0;
	bcf	(12),3	;volatile
	goto	i1l158
	line	518
	
i1l174:	
	line	519
	
i1l158:	
	bcf	status, 5	;RP0=0, select bank0
	bcf	status, 6	;RP1=0, select bank0
	movf	(??_ISR+3),w
	movwf	btemp+1
	movf	(??_ISR+2),w
	movwf	pclath
	movf	(??_ISR+1),w
	movwf	fsr0
	swapf	(??_ISR+0)^00h,w
	movwf	status
	swapf	saved_w,f
	swapf	saved_w,w
	retfie
	opt stack 0
GLOBAL	__end_of_ISR
	__end_of_ISR:
	signat	_ISR,88
	global	i1_TIMER0_Set

;; *************** function i1_TIMER0_Set *****************
;; Defined at:
;;		line 20 in file "R:\Note\Sistema I\Ultimo C no MPLAB\timers.c"
;; Parameters:    Size  Location     Type
;;  contagens       1    wreg     unsigned char 
;; Auto vars:     Size  Location     Type
;;  contagens       1    0[COMMON] unsigned char 
;; Return value:  Size  Location     Type
;;		None               void
;; Registers used:
;;		wreg
;; Tracked objects:
;;		On entry : 0/0
;;		On exit  : 0/0
;;		Unchanged: 0/0
;; Data sizes:     COMMON   BANK0   BANK1   BANK3   BANK2
;;      Params:         0       0       0       0       0
;;      Locals:         1       0       0       0       0
;;      Temps:          0       0       0       0       0
;;      Totals:         1       0       0       0       0
;;Total ram usage:        1 bytes
;; Hardware stack levels used:    1
;; This function calls:
;;		Nothing
;; This function is called by:
;;		_ISR
;; This function uses a non-reentrant model
;;
psect	text16,local,class=CODE,delta=2,merge=1
	file	"R:\Note\Sistema I\Ultimo C no MPLAB\timers.c"
	line	20
global __ptext16
__ptext16:	;psect for function i1_TIMER0_Set
psect	text16
	file	"R:\Note\Sistema I\Ultimo C no MPLAB\timers.c"
	line	20
	global	__size_ofi1_TIMER0_Set
	__size_ofi1_TIMER0_Set	equ	__end_ofi1_TIMER0_Set-i1_TIMER0_Set
	
i1_TIMER0_Set:	
;incstack = 0
	opt	stack 4
; Regs used in i1_TIMER0_Set: [wreg]
;i1TIMER0_Set@contagens stored from wreg
	movwf	(i1TIMER0_Set@contagens)
	line	22
	
i1l2039:	
;timers.c: 22: TMR0 = contagens;
	movf	(i1TIMER0_Set@contagens),w
	bcf	status, 5	;RP0=0, select bank0
	bcf	status, 6	;RP1=0, select bank0
	movwf	(1)	;volatile
	line	23
	
i1l259:	
	return
	opt stack 0
GLOBAL	__end_ofi1_TIMER0_Set
	__end_ofi1_TIMER0_Set:
	signat	i1_TIMER0_Set,88
	global	_send

;; *************** function _send *****************
;; Defined at:
;;		line 105 in file "R:\Note\Sistema I\Ultimo C no MPLAB\main.c"
;; Parameters:    Size  Location     Type
;;		None
;; Auto vars:     Size  Location     Type
;;  index           1    4[BANK0 ] unsigned char 
;;  velocidade      2    2[BANK0 ] unsigned int 
;;  checksum        1    1[BANK0 ] unsigned char 
;; Return value:  Size  Location     Type
;;		None               void
;; Registers used:
;;		wreg, fsr0l, fsr0h, status,2, status,0, pclath, cstack
;; Tracked objects:
;;		On entry : 0/0
;;		On exit  : 0/0
;;		Unchanged: 0/0
;; Data sizes:     COMMON   BANK0   BANK1   BANK3   BANK2
;;      Params:         0       0       0       0       0
;;      Locals:         0       4       0       0       0
;;      Temps:          0       1       0       0       0
;;      Totals:         0       5       0       0       0
;;Total ram usage:        5 bytes
;; Hardware stack levels used:    1
;; Hardware stack levels required when called:    1
;; This function calls:
;;		_USART_WriteChar
;;		___wmul
;; This function is called by:
;;		_ISR
;; This function uses a non-reentrant model
;;
psect	text17,local,class=CODE,delta=2,merge=1
	file	"R:\Note\Sistema I\Ultimo C no MPLAB\main.c"
	line	105
global __ptext17
__ptext17:	;psect for function _send
psect	text17
	file	"R:\Note\Sistema I\Ultimo C no MPLAB\main.c"
	line	105
	global	__size_of_send
	__size_of_send	equ	__end_of_send-_send
	
_send:	
;incstack = 0
	opt	stack 3
; Regs used in _send: [wreg-fsr0h+status,2+status,0+pclath+cstack]
	line	108
	
i1l1775:	
;main.c: 108: buffer[0] = '#';
	movlw	(023h)
	bcf	status, 5	;RP0=0, select bank0
	bcf	status, 6	;RP1=0, select bank0
	movwf	(??_send+0)+0
	movf	(??_send+0)+0,w
	bsf	status, 5	;RP0=1, select bank1
	bcf	status, 6	;RP1=0, select bank1
	movwf	(_buffer)^080h
	line	109
;main.c: 109: buffer[1] = '$';
	movlw	(024h)
	bcf	status, 5	;RP0=0, select bank0
	bcf	status, 6	;RP1=0, select bank0
	movwf	(??_send+0)+0
	movf	(??_send+0)+0,w
	bsf	status, 5	;RP0=1, select bank1
	bcf	status, 6	;RP1=0, select bank1
	movwf	0+(_buffer)^080h+01h
	line	110
;main.c: 110: buffer[2] = ':';
	movlw	(03Ah)
	bcf	status, 5	;RP0=0, select bank0
	bcf	status, 6	;RP1=0, select bank0
	movwf	(??_send+0)+0
	movf	(??_send+0)+0,w
	bsf	status, 5	;RP0=1, select bank1
	bcf	status, 6	;RP1=0, select bank1
	movwf	0+(_buffer)^080h+02h
	line	112
	
i1l1777:	
;main.c: 112: unsigned int velocidade = rpm * 40;
	bcf	status, 5	;RP0=0, select bank0
	bcf	status, 6	;RP1=0, select bank0
	movf	(_rpm+1),w
	clrf	(___wmul@multiplier+1)
	addwf	(___wmul@multiplier+1)
	movf	(_rpm),w
	clrf	(___wmul@multiplier)
	addwf	(___wmul@multiplier)

	movlw	low(028h)
	movwf	(___wmul@multiplicand)
	movlw	high(028h)
	movwf	((___wmul@multiplicand))+1
	fcall	___wmul
	movf	(1+(?___wmul)),w
	bcf	status, 5	;RP0=0, select bank0
	bcf	status, 6	;RP1=0, select bank0
	clrf	(send@velocidade+1)
	addwf	(send@velocidade+1)
	movf	(0+(?___wmul)),w
	clrf	(send@velocidade)
	addwf	(send@velocidade)

	line	114
	
i1l1779:	
;main.c: 114: buffer[3] = (velocidade >> 8) & 0xFF;
	movf	(send@velocidade+1),w
	movwf	(??_send+0)+0
	movf	(??_send+0)+0,w
	bsf	status, 5	;RP0=1, select bank1
	bcf	status, 6	;RP1=0, select bank1
	movwf	0+(_buffer)^080h+03h
	line	115
	
i1l1781:	
;main.c: 115: buffer[4] = velocidade & 0xFF;
	bcf	status, 5	;RP0=0, select bank0
	bcf	status, 6	;RP1=0, select bank0
	movf	(send@velocidade),w
	movwf	(??_send+0)+0
	movf	(??_send+0)+0,w
	bsf	status, 5	;RP0=1, select bank1
	bcf	status, 6	;RP1=0, select bank1
	movwf	0+(_buffer)^080h+04h
	line	116
	
i1l1783:	
;main.c: 116: buffer[5] = 'V';
	movlw	(056h)
	bcf	status, 5	;RP0=0, select bank0
	bcf	status, 6	;RP1=0, select bank0
	movwf	(??_send+0)+0
	movf	(??_send+0)+0,w
	bsf	status, 5	;RP0=1, select bank1
	bcf	status, 6	;RP1=0, select bank1
	movwf	0+(_buffer)^080h+05h
	line	119
	
i1l1785:	
;main.c: 119: buffer[6] = (setpointUI >> 8) & 0xFF;
	bcf	status, 5	;RP0=0, select bank0
	bcf	status, 6	;RP1=0, select bank0
	movf	(_setpointUI+1),w
	movwf	(??_send+0)+0
	movf	(??_send+0)+0,w
	bsf	status, 5	;RP0=1, select bank1
	bcf	status, 6	;RP1=0, select bank1
	movwf	0+(_buffer)^080h+06h
	line	120
	
i1l1787:	
;main.c: 120: buffer[7] = setpointUI & 0xFF;
	bcf	status, 5	;RP0=0, select bank0
	bcf	status, 6	;RP1=0, select bank0
	movf	(_setpointUI),w
	movwf	(??_send+0)+0
	movf	(??_send+0)+0,w
	bsf	status, 5	;RP0=1, select bank1
	bcf	status, 6	;RP1=0, select bank1
	movwf	0+(_buffer)^080h+07h
	line	121
	
i1l1789:	
;main.c: 121: buffer[8] = 'S';
	movlw	(053h)
	bcf	status, 5	;RP0=0, select bank0
	bcf	status, 6	;RP1=0, select bank0
	movwf	(??_send+0)+0
	movf	(??_send+0)+0,w
	bsf	status, 5	;RP0=1, select bank1
	bcf	status, 6	;RP1=0, select bank1
	movwf	0+(_buffer)^080h+08h
	line	124
	
i1l1791:	
;main.c: 124: buffer[9] = (deltaV >> 8) & 0xFF;
	bcf	status, 5	;RP0=0, select bank0
	bcf	status, 6	;RP1=0, select bank0
	movf	(_deltaV+1),w
	movwf	(??_send+0)+0
	movf	(??_send+0)+0,w
	bsf	status, 5	;RP0=1, select bank1
	bcf	status, 6	;RP1=0, select bank1
	movwf	0+(_buffer)^080h+09h
	line	125
	
i1l1793:	
;main.c: 125: buffer[10] = deltaV & 0xFF;
	bcf	status, 5	;RP0=0, select bank0
	bcf	status, 6	;RP1=0, select bank0
	movf	(_deltaV),w
	movwf	(??_send+0)+0
	movf	(??_send+0)+0,w
	bsf	status, 5	;RP0=1, select bank1
	bcf	status, 6	;RP1=0, select bank1
	movwf	0+(_buffer)^080h+0Ah
	line	126
	
i1l1795:	
;main.c: 126: buffer[11] = 'S';
	movlw	(053h)
	bcf	status, 5	;RP0=0, select bank0
	bcf	status, 6	;RP1=0, select bank0
	movwf	(??_send+0)+0
	movf	(??_send+0)+0,w
	bsf	status, 5	;RP0=1, select bank1
	bcf	status, 6	;RP1=0, select bank1
	movwf	0+(_buffer)^080h+0Bh
	line	129
	
i1l1797:	
;main.c: 129: buffer[12] = (antigoUI >> 8) & 0xFF;
	bcf	status, 5	;RP0=0, select bank0
	bcf	status, 6	;RP1=0, select bank0
	movf	(_antigoUI+1),w
	movwf	(??_send+0)+0
	movf	(??_send+0)+0,w
	bsf	status, 5	;RP0=1, select bank1
	bcf	status, 6	;RP1=0, select bank1
	movwf	0+(_buffer)^080h+0Ch
	line	130
	
i1l1799:	
;main.c: 130: buffer[13] = antigoUI & 0xFF;
	bcf	status, 5	;RP0=0, select bank0
	bcf	status, 6	;RP1=0, select bank0
	movf	(_antigoUI),w
	movwf	(??_send+0)+0
	movf	(??_send+0)+0,w
	bsf	status, 5	;RP0=1, select bank1
	bcf	status, 6	;RP1=0, select bank1
	movwf	0+(_buffer)^080h+0Dh
	line	131
	
i1l1801:	
;main.c: 131: buffer[14] = 'S';
	movlw	(053h)
	bcf	status, 5	;RP0=0, select bank0
	bcf	status, 6	;RP1=0, select bank0
	movwf	(??_send+0)+0
	movf	(??_send+0)+0,w
	bsf	status, 5	;RP0=1, select bank1
	bcf	status, 6	;RP1=0, select bank1
	movwf	0+(_buffer)^080h+0Eh
	line	133
	
i1l1803:	
;main.c: 133: unsigned char checksum = 0x00;
	bcf	status, 5	;RP0=0, select bank0
	bcf	status, 6	;RP1=0, select bank0
	clrf	(send@checksum)
	line	134
	
i1l1805:	
;main.c: 134: for (unsigned char index = 0; index < 15; index++)
	clrf	(send@index)
	
i1l1807:	
	movlw	(0Fh)
	subwf	(send@index),w
	skipc
	goto	u119_21
	goto	u119_20
u119_21:
	goto	i1l1811
u119_20:
	goto	i1l1819
	
i1l1809:	
	goto	i1l1819
	line	135
	
i1l133:	
	line	136
	
i1l1811:	
;main.c: 135: {
;main.c: 136: USART_WriteChar(buffer[index]);
	movf	(send@index),w
	addlw	_buffer&0ffh
	movwf	fsr0
	bcf	status, 7	;select IRP bank1
	movf	indf,w
	fcall	_USART_WriteChar
	line	137
	
i1l1813:	
;main.c: 137: checksum ^= buffer[index];
	bcf	status, 5	;RP0=0, select bank0
	bcf	status, 6	;RP1=0, select bank0
	movf	(send@index),w
	addlw	_buffer&0ffh
	movwf	fsr0
	bcf	status, 7	;select IRP bank1
	movf	indf,w
	movwf	(??_send+0)+0
	movf	(??_send+0)+0,w
	xorwf	(send@checksum),f
	line	134
	
i1l1815:	
	movlw	(01h)
	movwf	(??_send+0)+0
	movf	(??_send+0)+0,w
	addwf	(send@index),f
	
i1l1817:	
	movlw	(0Fh)
	subwf	(send@index),w
	skipc
	goto	u120_21
	goto	u120_20
u120_21:
	goto	i1l1811
u120_20:
	goto	i1l1819
	
i1l134:	
	line	139
	
i1l1819:	
;main.c: 138: }
;main.c: 139: buffer[15] = checksum;
	movf	(send@checksum),w
	movwf	(??_send+0)+0
	movf	(??_send+0)+0,w
	bsf	status, 5	;RP0=1, select bank1
	bcf	status, 6	;RP1=0, select bank1
	movwf	0+(_buffer)^080h+0Fh
	line	140
	
i1l1821:	
;main.c: 140: USART_WriteChar(buffer[15]);
	movf	0+(_buffer)^080h+0Fh,w
	fcall	_USART_WriteChar
	line	141
	
i1l135:	
	return
	opt stack 0
GLOBAL	__end_of_send
	__end_of_send:
	signat	_send,88
	global	___wmul

;; *************** function ___wmul *****************
;; Defined at:
;;		line 15 in file "C:\Program Files (x86)\Microchip\xc8\v1.33\sources\common\Umul16.c"
;; Parameters:    Size  Location     Type
;;  multiplier      2    8[COMMON] unsigned int 
;;  multiplicand    2   10[COMMON] unsigned int 
;; Auto vars:     Size  Location     Type
;;  product         2   12[COMMON] unsigned int 
;; Return value:  Size  Location     Type
;;                  2    8[COMMON] unsigned int 
;; Registers used:
;;		wreg, status,2, status,0
;; Tracked objects:
;;		On entry : 0/0
;;		On exit  : 0/0
;;		Unchanged: 0/0
;; Data sizes:     COMMON   BANK0   BANK1   BANK3   BANK2
;;      Params:         4       0       0       0       0
;;      Locals:         2       0       0       0       0
;;      Temps:          0       0       0       0       0
;;      Totals:         6       0       0       0       0
;;Total ram usage:        6 bytes
;; Hardware stack levels used:    1
;; This function calls:
;;		Nothing
;; This function is called by:
;;		_send
;;		_ISR
;; This function uses a non-reentrant model
;;
psect	text18,local,class=CODE,delta=2,merge=1
	file	"C:\Program Files (x86)\Microchip\xc8\v1.33\sources\common\Umul16.c"
	line	15
global __ptext18
__ptext18:	;psect for function ___wmul
psect	text18
	file	"C:\Program Files (x86)\Microchip\xc8\v1.33\sources\common\Umul16.c"
	line	15
	global	__size_of___wmul
	__size_of___wmul	equ	__end_of___wmul-___wmul
	
___wmul:	
;incstack = 0
	opt	stack 3
; Regs used in ___wmul: [wreg+status,2+status,0]
	line	43
	
i1l1675:	
	clrf	(___wmul@product)
	clrf	(___wmul@product+1)
	goto	i1l1677
	line	44
	
i1l521:	
	line	45
	
i1l1677:	
	btfss	(___wmul@multiplier),(0)&7
	goto	u94_21
	goto	u94_20
u94_21:
	goto	i1l522
u94_20:
	line	46
	
i1l1679:	
	movf	(___wmul@multiplicand),w
	addwf	(___wmul@product),f
	skipnc
	incf	(___wmul@product+1),f
	movf	(___wmul@multiplicand+1),w
	addwf	(___wmul@product+1),f
	
i1l522:	
	line	47
	movlw	01h
	
u95_25:
	clrc
	rlf	(___wmul@multiplicand),f
	rlf	(___wmul@multiplicand+1),f
	addlw	-1
	skipz
	goto	u95_25
	line	48
	
i1l1681:	
	movlw	01h
	
u96_25:
	clrc
	rrf	(___wmul@multiplier+1),f
	rrf	(___wmul@multiplier),f
	addlw	-1
	skipz
	goto	u96_25
	line	49
	movf	((___wmul@multiplier+1)),w
	iorwf	((___wmul@multiplier)),w
	skipz
	goto	u97_21
	goto	u97_20
u97_21:
	goto	i1l1677
u97_20:
	goto	i1l1683
	
i1l523:	
	line	52
	
i1l1683:	
	movf	(___wmul@product+1),w
	clrf	(?___wmul+1)
	addwf	(?___wmul+1)
	movf	(___wmul@product),w
	clrf	(?___wmul)
	addwf	(?___wmul)

	goto	i1l524
	
i1l1685:	
	line	53
	
i1l524:	
	return
	opt stack 0
GLOBAL	__end_of___wmul
	__end_of___wmul:
	signat	___wmul,8314
	global	___lwdiv

;; *************** function ___lwdiv *****************
;; Defined at:
;;		line 6 in file "C:\Program Files (x86)\Microchip\xc8\v1.33\sources\common\lwdiv.c"
;; Parameters:    Size  Location     Type
;;  divisor         2    0[COMMON] unsigned int 
;;  dividend        2    2[COMMON] unsigned int 
;; Auto vars:     Size  Location     Type
;;  quotient        2    5[COMMON] unsigned int 
;;  counter         1    7[COMMON] unsigned char 
;; Return value:  Size  Location     Type
;;                  2    0[COMMON] unsigned int 
;; Registers used:
;;		wreg, status,2, status,0
;; Tracked objects:
;;		On entry : 0/0
;;		On exit  : 0/0
;;		Unchanged: 0/0
;; Data sizes:     COMMON   BANK0   BANK1   BANK3   BANK2
;;      Params:         4       0       0       0       0
;;      Locals:         3       0       0       0       0
;;      Temps:          1       0       0       0       0
;;      Totals:         8       0       0       0       0
;;Total ram usage:        8 bytes
;; Hardware stack levels used:    1
;; This function calls:
;;		Nothing
;; This function is called by:
;;		_ISR
;; This function uses a non-reentrant model
;;
psect	text19,local,class=CODE,delta=2,merge=1
	file	"C:\Program Files (x86)\Microchip\xc8\v1.33\sources\common\lwdiv.c"
	line	6
global __ptext19
__ptext19:	;psect for function ___lwdiv
psect	text19
	file	"C:\Program Files (x86)\Microchip\xc8\v1.33\sources\common\lwdiv.c"
	line	6
	global	__size_of___lwdiv
	__size_of___lwdiv	equ	__end_of___lwdiv-___lwdiv
	
___lwdiv:	
;incstack = 0
	opt	stack 4
; Regs used in ___lwdiv: [wreg+status,2+status,0]
	line	14
	
i1l2013:	
	clrf	(___lwdiv@quotient)
	clrf	(___lwdiv@quotient+1)
	line	15
	
i1l2015:	
	movf	(___lwdiv@divisor+1),w
	iorwf	(___lwdiv@divisor),w
	skipnz
	goto	u132_21
	goto	u132_20
u132_21:
	goto	i1l2035
u132_20:
	line	16
	
i1l2017:	
	clrf	(___lwdiv@counter)
	incf	(___lwdiv@counter),f
	line	17
	goto	i1l2023
	
i1l853:	
	line	18
	
i1l2019:	
	movlw	01h
	
u133_25:
	clrc
	rlf	(___lwdiv@divisor),f
	rlf	(___lwdiv@divisor+1),f
	addlw	-1
	skipz
	goto	u133_25
	line	19
	
i1l2021:	
	movlw	(01h)
	movwf	(??___lwdiv+0)+0
	movf	(??___lwdiv+0)+0,w
	addwf	(___lwdiv@counter),f
	goto	i1l2023
	line	20
	
i1l852:	
	line	17
	
i1l2023:	
	btfss	(___lwdiv@divisor+1),(15)&7
	goto	u134_21
	goto	u134_20
u134_21:
	goto	i1l2019
u134_20:
	goto	i1l2025
	
i1l854:	
	goto	i1l2025
	line	21
	
i1l855:	
	line	22
	
i1l2025:	
	movlw	01h
	
u135_25:
	clrc
	rlf	(___lwdiv@quotient),f
	rlf	(___lwdiv@quotient+1),f
	addlw	-1
	skipz
	goto	u135_25
	line	23
	movf	(___lwdiv@divisor+1),w
	subwf	(___lwdiv@dividend+1),w
	skipz
	goto	u136_25
	movf	(___lwdiv@divisor),w
	subwf	(___lwdiv@dividend),w
u136_25:
	skipc
	goto	u136_21
	goto	u136_20
u136_21:
	goto	i1l2031
u136_20:
	line	24
	
i1l2027:	
	movf	(___lwdiv@divisor),w
	subwf	(___lwdiv@dividend),f
	movf	(___lwdiv@divisor+1),w
	skipc
	decf	(___lwdiv@dividend+1),f
	subwf	(___lwdiv@dividend+1),f
	line	25
	
i1l2029:	
	bsf	(___lwdiv@quotient)+(0/8),(0)&7
	goto	i1l2031
	line	26
	
i1l856:	
	line	27
	
i1l2031:	
	movlw	01h
	
u137_25:
	clrc
	rrf	(___lwdiv@divisor+1),f
	rrf	(___lwdiv@divisor),f
	addlw	-1
	skipz
	goto	u137_25
	line	28
	
i1l2033:	
	movlw	low(01h)
	subwf	(___lwdiv@counter),f
	btfss	status,2
	goto	u138_21
	goto	u138_20
u138_21:
	goto	i1l2025
u138_20:
	goto	i1l2035
	
i1l857:	
	goto	i1l2035
	line	29
	
i1l851:	
	line	30
	
i1l2035:	
	movf	(___lwdiv@quotient+1),w
	clrf	(?___lwdiv+1)
	addwf	(?___lwdiv+1)
	movf	(___lwdiv@quotient),w
	clrf	(?___lwdiv)
	addwf	(?___lwdiv)

	goto	i1l858
	
i1l2037:	
	line	31
	
i1l858:	
	return
	opt stack 0
GLOBAL	__end_of___lwdiv
	__end_of___lwdiv:
	signat	___lwdiv,8314
	global	_USART_ReceiveChar

;; *************** function _USART_ReceiveChar *****************
;; Defined at:
;;		line 63 in file "R:\Note\Sistema I\Ultimo C no MPLAB\usart.c"
;; Parameters:    Size  Location     Type
;;		None
;; Auto vars:     Size  Location     Type
;;  byte            1    4[COMMON] unsigned char 
;; Return value:  Size  Location     Type
;;                  1    wreg      unsigned char 
;; Registers used:
;;		wreg, fsr0l, fsr0h, status,2, status,0, pclath, cstack
;; Tracked objects:
;;		On entry : 0/0
;;		On exit  : 0/0
;;		Unchanged: 0/0
;; Data sizes:     COMMON   BANK0   BANK1   BANK3   BANK2
;;      Params:         0       0       0       0       0
;;      Locals:         1       0       0       0       0
;;      Temps:          1       0       0       0       0
;;      Totals:         2       0       0       0       0
;;Total ram usage:        2 bytes
;; Hardware stack levels used:    1
;; Hardware stack levels required when called:    2
;; This function calls:
;;		_USART_WriteString
;; This function is called by:
;;		_ISR
;; This function uses a non-reentrant model
;;
psect	text20,local,class=CODE,delta=2,merge=1
	file	"R:\Note\Sistema I\Ultimo C no MPLAB\usart.c"
	line	63
global __ptext20
__ptext20:	;psect for function _USART_ReceiveChar
psect	text20
	file	"R:\Note\Sistema I\Ultimo C no MPLAB\usart.c"
	line	63
	global	__size_of_USART_ReceiveChar
	__size_of_USART_ReceiveChar	equ	__end_of_USART_ReceiveChar-_USART_ReceiveChar
	
_USART_ReceiveChar:	
;incstack = 0
	opt	stack 2
; Regs used in _USART_ReceiveChar: [wreg-fsr0h+status,2+status,0+pclath+cstack]
	line	67
	
i1l1859:	
;usart.c: 65: unsigned char byte;
;usart.c: 67: if (!OERR)
	bcf	status, 5	;RP0=0, select bank0
	bcf	status, 6	;RP1=0, select bank0
	btfsc	(193/8),(193)&7	;volatile
	goto	u127_21
	goto	u127_20
u127_21:
	goto	i1l1865
u127_20:
	line	69
	
i1l1861:	
;usart.c: 68: {
;usart.c: 69: byte = RCREG;
	movf	(26),w	;volatile
	movwf	(??_USART_ReceiveChar+0)+0
	movf	(??_USART_ReceiveChar+0)+0,w
	movwf	(USART_ReceiveChar@byte)
	line	70
	
i1l1863:	
;usart.c: 70: PIR1bits.RCIF = 0;
	bcf	(12),5	;volatile
	line	71
;usart.c: 71: }
	goto	i1l1875
	line	72
	
i1l214:	
	line	74
	
i1l1865:	
;usart.c: 72: else
;usart.c: 73: {
;usart.c: 74: USART_WriteString("\n\r ------- ESTOURO DE PILHA ------- \n\r ");
	movlw	((STR_4)-__stringbase)&0ffh
	fcall	_USART_WriteString
	line	76
	
i1l1867:	
;usart.c: 76: RCSTAbits.CREN = 0;
	bcf	status, 5	;RP0=0, select bank0
	bcf	status, 6	;RP1=0, select bank0
	bcf	(24),4	;volatile
	line	77
	
i1l1869:	
;usart.c: 77: byte = RCREG;
	movf	(26),w	;volatile
	movwf	(??_USART_ReceiveChar+0)+0
	movf	(??_USART_ReceiveChar+0)+0,w
	movwf	(USART_ReceiveChar@byte)
	line	78
	
i1l1871:	
;usart.c: 78: RCSTAbits.CREN = 1;
	bsf	(24),4	;volatile
	line	79
	
i1l1873:	
;usart.c: 79: PIR1bits.RCIF = 0;
	bcf	(12),5	;volatile
	goto	i1l1875
	line	80
	
i1l215:	
	line	82
	
i1l1875:	
;usart.c: 80: }
;usart.c: 82: return(byte);
	movf	(USART_ReceiveChar@byte),w
	goto	i1l216
	
i1l1877:	
	line	83
	
i1l216:	
	return
	opt stack 0
GLOBAL	__end_of_USART_ReceiveChar
	__end_of_USART_ReceiveChar:
	signat	_USART_ReceiveChar,89
	global	_USART_WriteString

;; *************** function _USART_WriteString *****************
;; Defined at:
;;		line 52 in file "R:\Note\Sistema I\Ultimo C no MPLAB\usart.c"
;; Parameters:    Size  Location     Type
;;  str             1    wreg     PTR const unsigned char 
;;		 -> STR_4(40), STR_1(14), 
;; Auto vars:     Size  Location     Type
;;  str             1    2[COMMON] PTR const unsigned char 
;;		 -> STR_4(40), STR_1(14), 
;; Return value:  Size  Location     Type
;;		None               void
;; Registers used:
;;		wreg, fsr0l, fsr0h, status,2, status,0, pclath, cstack
;; Tracked objects:
;;		On entry : 0/0
;;		On exit  : 0/0
;;		Unchanged: 0/0
;; Data sizes:     COMMON   BANK0   BANK1   BANK3   BANK2
;;      Params:         0       0       0       0       0
;;      Locals:         1       0       0       0       0
;;      Temps:          1       0       0       0       0
;;      Totals:         2       0       0       0       0
;;Total ram usage:        2 bytes
;; Hardware stack levels used:    1
;; Hardware stack levels required when called:    1
;; This function calls:
;;		_USART_WriteChar
;; This function is called by:
;;		_ISR
;;		_USART_ReceiveChar
;; This function uses a non-reentrant model
;;
psect	text21,local,class=CODE,delta=2,merge=1
	line	52
global __ptext21
__ptext21:	;psect for function _USART_WriteString
psect	text21
	file	"R:\Note\Sistema I\Ultimo C no MPLAB\usart.c"
	line	52
	global	__size_of_USART_WriteString
	__size_of_USART_WriteString	equ	__end_of_USART_WriteString-_USART_WriteString
	
_USART_WriteString:	
;incstack = 0
	opt	stack 3
; Regs used in _USART_WriteString: [wreg-fsr0h+status,2+status,0+pclath+cstack]
;USART_WriteString@str stored from wreg
	movwf	(USART_WriteString@str)
	line	54
	
i1l1651:	
;usart.c: 54: while(*str != '\0')
	goto	i1l1657
	
i1l209:	
	line	56
	
i1l1653:	
;usart.c: 55: {
;usart.c: 56: USART_WriteChar(*str);
	movf	(USART_WriteString@str),w
	movwf	fsr0
	fcall	stringdir
	fcall	_USART_WriteChar
	line	57
	
i1l1655:	
;usart.c: 57: str++;
	movlw	(01h)
	movwf	(??_USART_WriteString+0)+0
	movf	(??_USART_WriteString+0)+0,w
	addwf	(USART_WriteString@str),f
	goto	i1l1657
	line	58
	
i1l208:	
	line	54
	
i1l1657:	
	movf	(USART_WriteString@str),w
	movwf	fsr0
	fcall	stringdir
	iorlw	0
	skipz
	goto	u93_21
	goto	u93_20
u93_21:
	goto	i1l1653
u93_20:
	goto	i1l211
	
i1l210:	
	line	59
	
i1l211:	
	return
	opt stack 0
GLOBAL	__end_of_USART_WriteString
	__end_of_USART_WriteString:
	signat	_USART_WriteString,4216
	global	_USART_WriteChar

;; *************** function _USART_WriteChar *****************
;; Defined at:
;;		line 44 in file "R:\Note\Sistema I\Ultimo C no MPLAB\usart.c"
;; Parameters:    Size  Location     Type
;;  byte            1    wreg     unsigned char 
;; Auto vars:     Size  Location     Type
;;  byte            1    0[COMMON] unsigned char 
;; Return value:  Size  Location     Type
;;		None               void
;; Registers used:
;;		wreg
;; Tracked objects:
;;		On entry : 0/0
;;		On exit  : 0/0
;;		Unchanged: 0/0
;; Data sizes:     COMMON   BANK0   BANK1   BANK3   BANK2
;;      Params:         0       0       0       0       0
;;      Locals:         1       0       0       0       0
;;      Temps:          0       0       0       0       0
;;      Totals:         1       0       0       0       0
;;Total ram usage:        1 bytes
;; Hardware stack levels used:    1
;; This function calls:
;;		Nothing
;; This function is called by:
;;		_send
;;		_USART_WriteString
;; This function uses a non-reentrant model
;;
psect	text22,local,class=CODE,delta=2,merge=1
	line	44
global __ptext22
__ptext22:	;psect for function _USART_WriteChar
psect	text22
	file	"R:\Note\Sistema I\Ultimo C no MPLAB\usart.c"
	line	44
	global	__size_of_USART_WriteChar
	__size_of_USART_WriteChar	equ	__end_of_USART_WriteChar-_USART_WriteChar
	
_USART_WriteChar:	
;incstack = 0
	opt	stack 3
; Regs used in _USART_WriteChar: [wreg]
;USART_WriteChar@byte stored from wreg
	movwf	(USART_WriteChar@byte)
	line	46
	
i1l1647:	
;usart.c: 46: while(!PIR1bits.TXIF);
	goto	i1l202
	
i1l203:	
	
i1l202:	
	bcf	status, 5	;RP0=0, select bank0
	bcf	status, 6	;RP1=0, select bank0
	btfss	(12),4	;volatile
	goto	u92_21
	goto	u92_20
u92_21:
	goto	i1l202
u92_20:
	goto	i1l1649
	
i1l204:	
	line	47
	
i1l1649:	
;usart.c: 47: TXREG = byte;
	movf	(USART_WriteChar@byte),w
	movwf	(25)	;volatile
	line	48
	
i1l205:	
	return
	opt stack 0
GLOBAL	__end_of_USART_WriteChar
	__end_of_USART_WriteChar:
	signat	_USART_WriteChar,4216
	global	_Fuzzy

;; *************** function _Fuzzy *****************
;; Defined at:
;;		line 165 in file "R:\Note\Sistema I\Ultimo C no MPLAB\main.c"
;; Parameters:    Size  Location     Type
;;		None
;; Auto vars:     Size  Location     Type
;;  aumenta         3    8[BANK0 ] float 
;;  reduz           3    5[BANK0 ] float 
;;  mantem          3    2[BANK0 ] float 
;;  tip             3    0        float 
;;  freio           2   11[BANK0 ] unsigned int 
;; Return value:  Size  Location     Type
;;		None               void
;; Registers used:
;;		wreg, status,2, status,0, pclath, cstack
;; Tracked objects:
;;		On entry : 0/0
;;		On exit  : 0/0
;;		Unchanged: 0/0
;; Data sizes:     COMMON   BANK0   BANK1   BANK3   BANK2
;;      Params:         0       0       0       0       0
;;      Locals:         0      11       0       0       0
;;      Temps:          0       2       0       0       0
;;      Totals:         0      13       0       0       0
;;Total ram usage:       13 bytes
;; Hardware stack levels used:    1
;; Hardware stack levels required when called:    1
;; This function calls:
;;		___fttol
;;		i1_PWM_DutyCycle2
;; This function is called by:
;;		_ISR
;; This function uses a non-reentrant model
;;
psect	text23,local,class=CODE,delta=2,merge=1
	file	"R:\Note\Sistema I\Ultimo C no MPLAB\main.c"
	line	165
global __ptext23
__ptext23:	;psect for function _Fuzzy
psect	text23
	file	"R:\Note\Sistema I\Ultimo C no MPLAB\main.c"
	line	165
	global	__size_of_Fuzzy
	__size_of_Fuzzy	equ	__end_of_Fuzzy-_Fuzzy
	
_Fuzzy:	
;incstack = 0
	opt	stack 3
; Regs used in _Fuzzy: [wreg+status,2+status,0+pclath+cstack]
	line	180
	
i1l1823:	
;main.c: 180: unsigned int freio = 0;
	bcf	status, 5	;RP0=0, select bank0
	bcf	status, 6	;RP1=0, select bank0
	clrf	(Fuzzy@freio)
	clrf	(Fuzzy@freio+1)
	line	186
	
i1l1825:	
;main.c: 186: float mantem = 0;
	movlw	0x0
	movwf	(Fuzzy@mantem)
	movlw	0x0
	movwf	(Fuzzy@mantem+1)
	movlw	0x0
	movwf	(Fuzzy@mantem+2)
	line	187
	
i1l1827:	
;main.c: 187: float reduz = 0;
	movlw	0x0
	movwf	(Fuzzy@reduz)
	movlw	0x0
	movwf	(Fuzzy@reduz+1)
	movlw	0x0
	movwf	(Fuzzy@reduz+2)
	line	188
	
i1l1829:	
;main.c: 188: float aumenta = 0;
	movlw	0x0
	movwf	(Fuzzy@aumenta)
	movlw	0x0
	movwf	(Fuzzy@aumenta+1)
	movlw	0x0
	movwf	(Fuzzy@aumenta+2)
	line	190
	
i1l1831:	
;main.c: 189: float tip;
;main.c: 190: fitemp = 0;
	movlw	0x0
	movwf	(_fitemp)
	movlw	0x0
	movwf	(_fitemp+1)
	movlw	0x0
	movwf	(_fitemp+2)
	line	193
	
i1l1833:	
;main.c: 193: if (setpointUI == antigoUI)
	movf	(_antigoUI+1),w
	xorwf	(_setpointUI+1),w
	skipz
	goto	u121_25
	movf	(_antigoUI),w
	xorwf	(_setpointUI),w
u121_25:

	skipz
	goto	u121_21
	goto	u121_20
u121_21:
	goto	i1l1837
u121_20:
	goto	i1l149
	line	195
	
i1l1835:	
;main.c: 194: {
;main.c: 195: return;
	goto	i1l149
	line	196
	
i1l148:	
	line	198
	
i1l1837:	
;main.c: 196: }
;main.c: 198: deltaV = (setpointUI - antigoUI);
	comf	(_antigoUI),w
	movwf	(??_Fuzzy+0)+0
	comf	(_antigoUI+1),w
	movwf	((??_Fuzzy+0)+0+1)
	incf	(??_Fuzzy+0)+0,f
	skipnz
	incf	((??_Fuzzy+0)+0+1),f
	movf	(_setpointUI),w
	addwf	0+(??_Fuzzy+0)+0,w
	movwf	(_deltaV)
	movf	(_setpointUI+1),w
	skipnc
	incf	(_setpointUI+1),w
	addwf	1+(??_Fuzzy+0)+0,w
	movwf	1+(_deltaV)
	line	199
	
i1l1839:	
;main.c: 199: antigoUI = antigo;
	movf	(_antigo),w
	movwf	(___fttol@f1)
	movf	(_antigo+1),w
	movwf	(___fttol@f1+1)
	movf	(_antigo+2),w
	movwf	(___fttol@f1+2)
	fcall	___fttol
	movf	1+(((0+(?___fttol)))),w
	bcf	status, 5	;RP0=0, select bank0
	bcf	status, 6	;RP1=0, select bank0
	clrf	(_antigoUI+1)
	addwf	(_antigoUI+1)
	movf	0+(((0+(?___fttol)))),w
	clrf	(_antigoUI)
	addwf	(_antigoUI)

	line	345
	
i1l1841:	
;main.c: 345: if (freio = 1)
	movlw	low(01h)
	movwf	(Fuzzy@freio)
	movlw	high(01h)
	movwf	((Fuzzy@freio))+1
	line	347
	
i1l1843:	
;main.c: 346: {
;main.c: 347: if (deltaV >0 && deltaV < 1020)
	movf	(_deltaV+1),w
	iorwf	(_deltaV),w
	skipnz
	goto	u122_21
	goto	u122_20
u122_21:
	goto	i1l149
u122_20:
	
i1l1845:	
	movlw	high(03FCh)
	subwf	(_deltaV+1),w
	movlw	low(03FCh)
	skipnz
	subwf	(_deltaV),w
	skipnc
	goto	u123_21
	goto	u123_20
u123_21:
	goto	i1l149
u123_20:
	line	349
	
i1l1847:	
;main.c: 348: {
;main.c: 349: PWM_DutyCycle2(deltaV);
	movf	(_deltaV+1),w
	clrf	(i1PWM_DutyCycle2@valor+1)
	addwf	(i1PWM_DutyCycle2@valor+1)
	movf	(_deltaV),w
	clrf	(i1PWM_DutyCycle2@valor)
	addwf	(i1PWM_DutyCycle2@valor)

	fcall	i1_PWM_DutyCycle2
	goto	i1l149
	line	350
	
i1l151:	
	line	351
;main.c: 350: }
;main.c: 351: }else
	goto	i1l149
	
i1l150:	
	line	353
	
i1l1849:	
;main.c: 352: {
;main.c: 353: if (deltaV > 0 && deltaV < 1020)
	bcf	status, 5	;RP0=0, select bank0
	bcf	status, 6	;RP1=0, select bank0
	movf	(_deltaV+1),w
	iorwf	(_deltaV),w
	skipnz
	goto	u124_21
	goto	u124_20
u124_21:
	goto	i1l149
u124_20:
	
i1l1851:	
	movlw	high(03FCh)
	subwf	(_deltaV+1),w
	movlw	low(03FCh)
	skipnz
	subwf	(_deltaV),w
	skipnc
	goto	u125_21
	goto	u125_20
u125_21:
	goto	i1l149
u125_20:
	line	355
	
i1l1853:	
;main.c: 354: {
;main.c: 355: PWM_DutyCycle2(deltaV);
	movf	(_deltaV+1),w
	clrf	(i1PWM_DutyCycle2@valor+1)
	addwf	(i1PWM_DutyCycle2@valor+1)
	movf	(_deltaV),w
	clrf	(i1PWM_DutyCycle2@valor)
	addwf	(i1PWM_DutyCycle2@valor)

	fcall	i1_PWM_DutyCycle2
	goto	i1l149
	line	356
	
i1l153:	
	goto	i1l149
	line	357
	
i1l152:	
	line	360
	
i1l149:	
	return
	opt stack 0
GLOBAL	__end_of_Fuzzy
	__end_of_Fuzzy:
	signat	_Fuzzy,88
	global	i1_PWM_DutyCycle2

;; *************** function i1_PWM_DutyCycle2 *****************
;; Defined at:
;;		line 96 in file "R:\Note\Sistema I\Ultimo C no MPLAB\pwm.c"
;; Parameters:    Size  Location     Type
;;  valor           2    0[COMMON] int 
;; Auto vars:     Size  Location     Type
;;		None
;; Return value:  Size  Location     Type
;;		None               void
;; Registers used:
;;		wreg, status,2, status,0
;; Tracked objects:
;;		On entry : 0/0
;;		On exit  : 0/0
;;		Unchanged: 0/0
;; Data sizes:     COMMON   BANK0   BANK1   BANK3   BANK2
;;      Params:         2       0       0       0       0
;;      Locals:         0       0       0       0       0
;;      Temps:          2       0       0       0       0
;;      Totals:         4       0       0       0       0
;;Total ram usage:        4 bytes
;; Hardware stack levels used:    1
;; This function calls:
;;		Nothing
;; This function is called by:
;;		_Fuzzy
;;		_ISR
;; This function uses a non-reentrant model
;;
psect	text24,local,class=CODE,delta=2,merge=1
	file	"R:\Note\Sistema I\Ultimo C no MPLAB\pwm.c"
	line	96
global __ptext24
__ptext24:	;psect for function i1_PWM_DutyCycle2
psect	text24
	file	"R:\Note\Sistema I\Ultimo C no MPLAB\pwm.c"
	line	96
	global	__size_ofi1_PWM_DutyCycle2
	__size_ofi1_PWM_DutyCycle2	equ	__end_ofi1_PWM_DutyCycle2-i1_PWM_DutyCycle2
	
i1_PWM_DutyCycle2:	
;incstack = 0
	opt	stack 4
; Regs used in i1_PWM_DutyCycle2: [wreg+status,2+status,0]
	line	98
	
i1l1771:	
;pwm.c: 98: CCPR2L = valor >> 2;
	movf	(i1PWM_DutyCycle2@valor+1),w
	movwf	(??i1_PWM_DutyCycle2+0)+0+1
	movf	(i1PWM_DutyCycle2@valor),w
	movwf	(??i1_PWM_DutyCycle2+0)+0
	rlf	(??i1_PWM_DutyCycle2+0)+1,w
	rrf	(??i1_PWM_DutyCycle2+0)+1,f
	rrf	(??i1_PWM_DutyCycle2+0)+0,f
	rlf	(??i1_PWM_DutyCycle2+0)+1,w
	rrf	(??i1_PWM_DutyCycle2+0)+1,f
	rrf	(??i1_PWM_DutyCycle2+0)+0,f
	movf	0+(??i1_PWM_DutyCycle2+0)+0,w
	bcf	status, 5	;RP0=0, select bank0
	bcf	status, 6	;RP1=0, select bank0
	movwf	(27)	;volatile
	line	99
	
i1l1773:	
;pwm.c: 99: CCP2CON = (valor << 4)|0X0C;
	movf	(i1PWM_DutyCycle2@valor),w
	movwf	(??i1_PWM_DutyCycle2+0)+0
	movlw	(04h)-1
u118_25:
	clrc
	rlf	(??i1_PWM_DutyCycle2+0)+0,f
	addlw	-1
	skipz
	goto	u118_25
	clrc
	rlf	(??i1_PWM_DutyCycle2+0)+0,w
	iorlw	0Ch
	movwf	(29)	;volatile
	line	100
	
i1l413:	
	return
	opt stack 0
GLOBAL	__end_ofi1_PWM_DutyCycle2
	__end_ofi1_PWM_DutyCycle2:
	signat	i1_PWM_DutyCycle2,88
	global	___fttol

;; *************** function ___fttol *****************
;; Defined at:
;;		line 44 in file "C:\Program Files (x86)\Microchip\xc8\v1.33\sources\common\fttol.c"
;; Parameters:    Size  Location     Type
;;  f1              3    0[COMMON] float 
;; Auto vars:     Size  Location     Type
;;  lval            4    9[COMMON] unsigned long 
;;  exp1            1   13[COMMON] unsigned char 
;;  sign1           1    8[COMMON] unsigned char 
;; Return value:  Size  Location     Type
;;                  4    0[COMMON] long 
;; Registers used:
;;		wreg, status,2, status,0
;; Tracked objects:
;;		On entry : 0/0
;;		On exit  : 0/0
;;		Unchanged: 0/0
;; Data sizes:     COMMON   BANK0   BANK1   BANK3   BANK2
;;      Params:         4       0       0       0       0
;;      Locals:         6       0       0       0       0
;;      Temps:          4       0       0       0       0
;;      Totals:        14       0       0       0       0
;;Total ram usage:       14 bytes
;; Hardware stack levels used:    1
;; This function calls:
;;		Nothing
;; This function is called by:
;;		_Fuzzy
;; This function uses a non-reentrant model
;;
psect	text25,local,class=CODE,delta=2,merge=1
	file	"C:\Program Files (x86)\Microchip\xc8\v1.33\sources\common\fttol.c"
	line	44
global __ptext25
__ptext25:	;psect for function ___fttol
psect	text25
	file	"C:\Program Files (x86)\Microchip\xc8\v1.33\sources\common\fttol.c"
	line	44
	global	__size_of___fttol
	__size_of___fttol	equ	__end_of___fttol-___fttol
	
___fttol:	
;incstack = 0
	opt	stack 3
; Regs used in ___fttol: [wreg+status,2+status,0]
	line	49
	
i1l1727:	
	movf	(___fttol@f1),w
	movwf	((??___fttol+0)+0)
	movf	(___fttol@f1+1),w
	movwf	((??___fttol+0)+0+1)
	movf	(___fttol@f1+2),w
	movwf	((??___fttol+0)+0+2)
	clrc
	rlf	(??___fttol+0)+1,w
	rlf	(??___fttol+0)+2,w
	movwf	(??___fttol+3)+0
	movf	(??___fttol+3)+0,w
	movwf	(___fttol@exp1)
	movf	((___fttol@exp1)),f
	skipz
	goto	u108_21
	goto	u108_20
u108_21:
	goto	i1l1733
u108_20:
	line	50
	
i1l1729:	
	movlw	0
	movwf	(?___fttol+3)
	movlw	0
	movwf	(?___fttol+2)
	movlw	0
	movwf	(?___fttol+1)
	movlw	0
	movwf	(?___fttol)

	goto	i1l764
	
i1l1731:	
	goto	i1l764
	
i1l763:	
	line	51
	
i1l1733:	
	movf	(___fttol@f1),w
	movwf	((??___fttol+0)+0)
	movf	(___fttol@f1+1),w
	movwf	((??___fttol+0)+0+1)
	movf	(___fttol@f1+2),w
	movwf	((??___fttol+0)+0+2)
	movlw	017h
u109_25:
	clrc
	rrf	(??___fttol+0)+2,f
	rrf	(??___fttol+0)+1,f
	rrf	(??___fttol+0)+0,f
u109_20:
	addlw	-1
	skipz
	goto	u109_25
	movf	0+(??___fttol+0)+0,w
	movwf	(??___fttol+3)+0
	movf	(??___fttol+3)+0,w
	movwf	(___fttol@sign1)
	line	52
	
i1l1735:	
	bsf	(___fttol@f1)+(15/8),(15)&7
	line	53
	
i1l1737:	
	movlw	0FFh
	andwf	(___fttol@f1),f
	movlw	0FFh
	andwf	(___fttol@f1+1),f
	movlw	0
	andwf	(___fttol@f1+2),f
	line	54
	
i1l1739:	
	movf	(___fttol@f1),w
	movwf	(___fttol@lval)
	movf	(___fttol@f1+1),w
	movwf	((___fttol@lval))+1
	movf	(___fttol@f1+2),w
	movwf	((___fttol@lval))+2
	clrf	((___fttol@lval))+3
	line	55
	
i1l1741:	
	movlw	low(08Eh)
	subwf	(___fttol@exp1),f
	line	56
	
i1l1743:	
	btfss	(___fttol@exp1),7
	goto	u110_21
	goto	u110_20
u110_21:
	goto	i1l1753
u110_20:
	line	57
	
i1l1745:	
	movf	(___fttol@exp1),w
	xorlw	80h
	addlw	-((-15)^80h)
	skipnc
	goto	u111_21
	goto	u111_20
u111_21:
	goto	i1l1751
u111_20:
	line	58
	
i1l1747:	
	movlw	0
	movwf	(?___fttol+3)
	movlw	0
	movwf	(?___fttol+2)
	movlw	0
	movwf	(?___fttol+1)
	movlw	0
	movwf	(?___fttol)

	goto	i1l764
	
i1l1749:	
	goto	i1l764
	
i1l766:	
	goto	i1l1751
	line	59
	
i1l767:	
	line	60
	
i1l1751:	
	movlw	01h
u112_25:
	clrc
	rrf	(___fttol@lval+3),f
	rrf	(___fttol@lval+2),f
	rrf	(___fttol@lval+1),f
	rrf	(___fttol@lval),f
	addlw	-1
	skipz
	goto	u112_25

	line	61
	movlw	(01h)
	movwf	(??___fttol+0)+0
	movf	(??___fttol+0)+0,w
	addwf	(___fttol@exp1),f
	btfss	status,2
	goto	u113_21
	goto	u113_20
u113_21:
	goto	i1l1751
u113_20:
	goto	i1l1763
	
i1l768:	
	line	62
	goto	i1l1763
	
i1l765:	
	line	63
	
i1l1753:	
	movlw	(018h)
	subwf	(___fttol@exp1),w
	skipc
	goto	u114_21
	goto	u114_20
u114_21:
	goto	i1l1761
u114_20:
	line	64
	
i1l1755:	
	movlw	0
	movwf	(?___fttol+3)
	movlw	0
	movwf	(?___fttol+2)
	movlw	0
	movwf	(?___fttol+1)
	movlw	0
	movwf	(?___fttol)

	goto	i1l764
	
i1l1757:	
	goto	i1l764
	
i1l770:	
	line	65
	goto	i1l1761
	
i1l772:	
	line	66
	
i1l1759:	
	movlw	01h
	movwf	(??___fttol+0)+0
u115_25:
	clrc
	rlf	(___fttol@lval),f
	rlf	(___fttol@lval+1),f
	rlf	(___fttol@lval+2),f
	rlf	(___fttol@lval+3),f
	decfsz	(??___fttol+0)+0
	goto	u115_25
	line	67
	movlw	low(01h)
	subwf	(___fttol@exp1),f
	goto	i1l1761
	line	68
	
i1l771:	
	line	65
	
i1l1761:	
	movf	(___fttol@exp1),f
	skipz
	goto	u116_21
	goto	u116_20
u116_21:
	goto	i1l1759
u116_20:
	goto	i1l1763
	
i1l773:	
	goto	i1l1763
	line	69
	
i1l769:	
	line	70
	
i1l1763:	
	movf	(___fttol@sign1),w
	skipz
	goto	u117_20
	goto	i1l1767
u117_20:
	line	71
	
i1l1765:	
	comf	(___fttol@lval),f
	comf	(___fttol@lval+1),f
	comf	(___fttol@lval+2),f
	comf	(___fttol@lval+3),f
	incf	(___fttol@lval),f
	skipnz
	incf	(___fttol@lval+1),f
	skipnz
	incf	(___fttol@lval+2),f
	skipnz
	incf	(___fttol@lval+3),f
	goto	i1l1767
	
i1l774:	
	line	72
	
i1l1767:	
	movf	(___fttol@lval+3),w
	movwf	(?___fttol+3)
	movf	(___fttol@lval+2),w
	movwf	(?___fttol+2)
	movf	(___fttol@lval+1),w
	movwf	(?___fttol+1)
	movf	(___fttol@lval),w
	movwf	(?___fttol)

	goto	i1l764
	
i1l1769:	
	line	73
	
i1l764:	
	return
	opt stack 0
GLOBAL	__end_of___fttol
	__end_of___fttol:
	signat	___fttol,4220
global	___latbits
___latbits	equ	2
	global	btemp
	btemp set 07Eh

	DABS	1,126,2	;btemp
	global	wtemp
	global	wtemp0
	wtemp set btemp
	wtemp0 set btemp
	global	wtemp1
	wtemp1 set btemp+2
	global	wtemp2
	wtemp2 set btemp+4
	global	wtemp3
	wtemp3 set btemp+6
	global	wtemp4
	wtemp4 set btemp+8
	global	wtemp5
	wtemp5 set btemp+10
	global	wtemp6
	wtemp6 set btemp+1
	global	ttemp
	global	ttemp0
	ttemp set btemp
	ttemp0 set btemp
	global	ttemp1
	ttemp1 set btemp+3
	global	ttemp2
	ttemp2 set btemp+6
	global	ttemp3
	ttemp3 set btemp+9
	global	ttemp4
	ttemp4 set btemp+1
	global	ltemp
	global	ltemp0
	ltemp set btemp
	ltemp0 set btemp
	global	ltemp1
	ltemp1 set btemp+4
	global	ltemp2
	ltemp2 set btemp+8
	global	ltemp3
	ltemp3 set btemp+2
	end
