opt subtitle "Microchip Technology Omniscient Code Generator (Lite mode) build 59893"

opt pagewidth 120

	opt lm

	processor	16F877A
clrc	macro
	bcf	3,0
	endm
clrz	macro
	bcf	3,2
	endm
setc	macro
	bsf	3,0
	endm
setz	macro
	bsf	3,2
	endm
skipc	macro
	btfss	3,0
	endm
skipz	macro
	btfss	3,2
	endm
skipnc	macro
	btfsc	3,0
	endm
skipnz	macro
	btfsc	3,2
	endm
indf	equ	0
indf0	equ	0
pc	equ	2
pcl	equ	2
status	equ	3
fsr	equ	4
fsr0	equ	4
c	equ	1
z	equ	0
pclath	equ	10
# 49 "C:\Program Files (x86)\Microchip\xc8\v1.33\include\pic16f877a.h"
INDF equ 00h ;# 
# 55 "C:\Program Files (x86)\Microchip\xc8\v1.33\include\pic16f877a.h"
TMR0 equ 01h ;# 
# 61 "C:\Program Files (x86)\Microchip\xc8\v1.33\include\pic16f877a.h"
PCL equ 02h ;# 
# 67 "C:\Program Files (x86)\Microchip\xc8\v1.33\include\pic16f877a.h"
STATUS equ 03h ;# 
# 154 "C:\Program Files (x86)\Microchip\xc8\v1.33\include\pic16f877a.h"
FSR equ 04h ;# 
# 160 "C:\Program Files (x86)\Microchip\xc8\v1.33\include\pic16f877a.h"
PORTA equ 05h ;# 
# 209 "C:\Program Files (x86)\Microchip\xc8\v1.33\include\pic16f877a.h"
PORTB equ 06h ;# 
# 270 "C:\Program Files (x86)\Microchip\xc8\v1.33\include\pic16f877a.h"
PORTC equ 07h ;# 
# 331 "C:\Program Files (x86)\Microchip\xc8\v1.33\include\pic16f877a.h"
PORTD equ 08h ;# 
# 392 "C:\Program Files (x86)\Microchip\xc8\v1.33\include\pic16f877a.h"
PORTE equ 09h ;# 
# 423 "C:\Program Files (x86)\Microchip\xc8\v1.33\include\pic16f877a.h"
PCLATH equ 0Ah ;# 
# 442 "C:\Program Files (x86)\Microchip\xc8\v1.33\include\pic16f877a.h"
INTCON equ 0Bh ;# 
# 519 "C:\Program Files (x86)\Microchip\xc8\v1.33\include\pic16f877a.h"
PIR1 equ 0Ch ;# 
# 580 "C:\Program Files (x86)\Microchip\xc8\v1.33\include\pic16f877a.h"
PIR2 equ 0Dh ;# 
# 619 "C:\Program Files (x86)\Microchip\xc8\v1.33\include\pic16f877a.h"
TMR1 equ 0Eh ;# 
# 625 "C:\Program Files (x86)\Microchip\xc8\v1.33\include\pic16f877a.h"
TMR1L equ 0Eh ;# 
# 631 "C:\Program Files (x86)\Microchip\xc8\v1.33\include\pic16f877a.h"
TMR1H equ 0Fh ;# 
# 637 "C:\Program Files (x86)\Microchip\xc8\v1.33\include\pic16f877a.h"
T1CON equ 010h ;# 
# 711 "C:\Program Files (x86)\Microchip\xc8\v1.33\include\pic16f877a.h"
TMR2 equ 011h ;# 
# 717 "C:\Program Files (x86)\Microchip\xc8\v1.33\include\pic16f877a.h"
T2CON equ 012h ;# 
# 787 "C:\Program Files (x86)\Microchip\xc8\v1.33\include\pic16f877a.h"
SSPBUF equ 013h ;# 
# 793 "C:\Program Files (x86)\Microchip\xc8\v1.33\include\pic16f877a.h"
SSPCON equ 014h ;# 
# 862 "C:\Program Files (x86)\Microchip\xc8\v1.33\include\pic16f877a.h"
CCPR1 equ 015h ;# 
# 868 "C:\Program Files (x86)\Microchip\xc8\v1.33\include\pic16f877a.h"
CCPR1L equ 015h ;# 
# 874 "C:\Program Files (x86)\Microchip\xc8\v1.33\include\pic16f877a.h"
CCPR1H equ 016h ;# 
# 880 "C:\Program Files (x86)\Microchip\xc8\v1.33\include\pic16f877a.h"
CCP1CON equ 017h ;# 
# 937 "C:\Program Files (x86)\Microchip\xc8\v1.33\include\pic16f877a.h"
RCSTA equ 018h ;# 
# 1031 "C:\Program Files (x86)\Microchip\xc8\v1.33\include\pic16f877a.h"
TXREG equ 019h ;# 
# 1037 "C:\Program Files (x86)\Microchip\xc8\v1.33\include\pic16f877a.h"
RCREG equ 01Ah ;# 
# 1043 "C:\Program Files (x86)\Microchip\xc8\v1.33\include\pic16f877a.h"
CCPR2 equ 01Bh ;# 
# 1049 "C:\Program Files (x86)\Microchip\xc8\v1.33\include\pic16f877a.h"
CCPR2L equ 01Bh ;# 
# 1055 "C:\Program Files (x86)\Microchip\xc8\v1.33\include\pic16f877a.h"
CCPR2H equ 01Ch ;# 
# 1061 "C:\Program Files (x86)\Microchip\xc8\v1.33\include\pic16f877a.h"
CCP2CON equ 01Dh ;# 
# 1118 "C:\Program Files (x86)\Microchip\xc8\v1.33\include\pic16f877a.h"
ADRESH equ 01Eh ;# 
# 1124 "C:\Program Files (x86)\Microchip\xc8\v1.33\include\pic16f877a.h"
ADCON0 equ 01Fh ;# 
# 1219 "C:\Program Files (x86)\Microchip\xc8\v1.33\include\pic16f877a.h"
OPTION_REG equ 081h ;# 
# 1288 "C:\Program Files (x86)\Microchip\xc8\v1.33\include\pic16f877a.h"
TRISA equ 085h ;# 
# 1337 "C:\Program Files (x86)\Microchip\xc8\v1.33\include\pic16f877a.h"
TRISB equ 086h ;# 
# 1398 "C:\Program Files (x86)\Microchip\xc8\v1.33\include\pic16f877a.h"
TRISC equ 087h ;# 
# 1459 "C:\Program Files (x86)\Microchip\xc8\v1.33\include\pic16f877a.h"
TRISD equ 088h ;# 
# 1520 "C:\Program Files (x86)\Microchip\xc8\v1.33\include\pic16f877a.h"
TRISE equ 089h ;# 
# 1576 "C:\Program Files (x86)\Microchip\xc8\v1.33\include\pic16f877a.h"
PIE1 equ 08Ch ;# 
# 1637 "C:\Program Files (x86)\Microchip\xc8\v1.33\include\pic16f877a.h"
PIE2 equ 08Dh ;# 
# 1676 "C:\Program Files (x86)\Microchip\xc8\v1.33\include\pic16f877a.h"
PCON equ 08Eh ;# 
# 1709 "C:\Program Files (x86)\Microchip\xc8\v1.33\include\pic16f877a.h"
SSPCON2 equ 091h ;# 
# 1770 "C:\Program Files (x86)\Microchip\xc8\v1.33\include\pic16f877a.h"
PR2 equ 092h ;# 
# 1776 "C:\Program Files (x86)\Microchip\xc8\v1.33\include\pic16f877a.h"
SSPADD equ 093h ;# 
# 1782 "C:\Program Files (x86)\Microchip\xc8\v1.33\include\pic16f877a.h"
SSPSTAT equ 094h ;# 
# 1950 "C:\Program Files (x86)\Microchip\xc8\v1.33\include\pic16f877a.h"
TXSTA equ 098h ;# 
# 2030 "C:\Program Files (x86)\Microchip\xc8\v1.33\include\pic16f877a.h"
SPBRG equ 099h ;# 
# 2036 "C:\Program Files (x86)\Microchip\xc8\v1.33\include\pic16f877a.h"
CMCON equ 09Ch ;# 
# 2105 "C:\Program Files (x86)\Microchip\xc8\v1.33\include\pic16f877a.h"
CVRCON equ 09Dh ;# 
# 2169 "C:\Program Files (x86)\Microchip\xc8\v1.33\include\pic16f877a.h"
ADRESL equ 09Eh ;# 
# 2175 "C:\Program Files (x86)\Microchip\xc8\v1.33\include\pic16f877a.h"
ADCON1 equ 09Fh ;# 
# 2233 "C:\Program Files (x86)\Microchip\xc8\v1.33\include\pic16f877a.h"
EEDATA equ 010Ch ;# 
# 2239 "C:\Program Files (x86)\Microchip\xc8\v1.33\include\pic16f877a.h"
EEADR equ 010Dh ;# 
# 2245 "C:\Program Files (x86)\Microchip\xc8\v1.33\include\pic16f877a.h"
EEDATH equ 010Eh ;# 
# 2251 "C:\Program Files (x86)\Microchip\xc8\v1.33\include\pic16f877a.h"
EEADRH equ 010Fh ;# 
# 2257 "C:\Program Files (x86)\Microchip\xc8\v1.33\include\pic16f877a.h"
EECON1 equ 018Ch ;# 
# 2301 "C:\Program Files (x86)\Microchip\xc8\v1.33\include\pic16f877a.h"
EECON2 equ 018Dh ;# 
# 49 "C:\Program Files (x86)\Microchip\xc8\v1.33\include\pic16f877a.h"
INDF equ 00h ;# 
# 55 "C:\Program Files (x86)\Microchip\xc8\v1.33\include\pic16f877a.h"
TMR0 equ 01h ;# 
# 61 "C:\Program Files (x86)\Microchip\xc8\v1.33\include\pic16f877a.h"
PCL equ 02h ;# 
# 67 "C:\Program Files (x86)\Microchip\xc8\v1.33\include\pic16f877a.h"
STATUS equ 03h ;# 
# 154 "C:\Program Files (x86)\Microchip\xc8\v1.33\include\pic16f877a.h"
FSR equ 04h ;# 
# 160 "C:\Program Files (x86)\Microchip\xc8\v1.33\include\pic16f877a.h"
PORTA equ 05h ;# 
# 209 "C:\Program Files (x86)\Microchip\xc8\v1.33\include\pic16f877a.h"
PORTB equ 06h ;# 
# 270 "C:\Program Files (x86)\Microchip\xc8\v1.33\include\pic16f877a.h"
PORTC equ 07h ;# 
# 331 "C:\Program Files (x86)\Microchip\xc8\v1.33\include\pic16f877a.h"
PORTD equ 08h ;# 
# 392 "C:\Program Files (x86)\Microchip\xc8\v1.33\include\pic16f877a.h"
PORTE equ 09h ;# 
# 423 "C:\Program Files (x86)\Microchip\xc8\v1.33\include\pic16f877a.h"
PCLATH equ 0Ah ;# 
# 442 "C:\Program Files (x86)\Microchip\xc8\v1.33\include\pic16f877a.h"
INTCON equ 0Bh ;# 
# 519 "C:\Program Files (x86)\Microchip\xc8\v1.33\include\pic16f877a.h"
PIR1 equ 0Ch ;# 
# 580 "C:\Program Files (x86)\Microchip\xc8\v1.33\include\pic16f877a.h"
PIR2 equ 0Dh ;# 
# 619 "C:\Program Files (x86)\Microchip\xc8\v1.33\include\pic16f877a.h"
TMR1 equ 0Eh ;# 
# 625 "C:\Program Files (x86)\Microchip\xc8\v1.33\include\pic16f877a.h"
TMR1L equ 0Eh ;# 
# 631 "C:\Program Files (x86)\Microchip\xc8\v1.33\include\pic16f877a.h"
TMR1H equ 0Fh ;# 
# 637 "C:\Program Files (x86)\Microchip\xc8\v1.33\include\pic16f877a.h"
T1CON equ 010h ;# 
# 711 "C:\Program Files (x86)\Microchip\xc8\v1.33\include\pic16f877a.h"
TMR2 equ 011h ;# 
# 717 "C:\Program Files (x86)\Microchip\xc8\v1.33\include\pic16f877a.h"
T2CON equ 012h ;# 
# 787 "C:\Program Files (x86)\Microchip\xc8\v1.33\include\pic16f877a.h"
SSPBUF equ 013h ;# 
# 793 "C:\Program Files (x86)\Microchip\xc8\v1.33\include\pic16f877a.h"
SSPCON equ 014h ;# 
# 862 "C:\Program Files (x86)\Microchip\xc8\v1.33\include\pic16f877a.h"
CCPR1 equ 015h ;# 
# 868 "C:\Program Files (x86)\Microchip\xc8\v1.33\include\pic16f877a.h"
CCPR1L equ 015h ;# 
# 874 "C:\Program Files (x86)\Microchip\xc8\v1.33\include\pic16f877a.h"
CCPR1H equ 016h ;# 
# 880 "C:\Program Files (x86)\Microchip\xc8\v1.33\include\pic16f877a.h"
CCP1CON equ 017h ;# 
# 937 "C:\Program Files (x86)\Microchip\xc8\v1.33\include\pic16f877a.h"
RCSTA equ 018h ;# 
# 1031 "C:\Program Files (x86)\Microchip\xc8\v1.33\include\pic16f877a.h"
TXREG equ 019h ;# 
# 1037 "C:\Program Files (x86)\Microchip\xc8\v1.33\include\pic16f877a.h"
RCREG equ 01Ah ;# 
# 1043 "C:\Program Files (x86)\Microchip\xc8\v1.33\include\pic16f877a.h"
CCPR2 equ 01Bh ;# 
# 1049 "C:\Program Files (x86)\Microchip\xc8\v1.33\include\pic16f877a.h"
CCPR2L equ 01Bh ;# 
# 1055 "C:\Program Files (x86)\Microchip\xc8\v1.33\include\pic16f877a.h"
CCPR2H equ 01Ch ;# 
# 1061 "C:\Program Files (x86)\Microchip\xc8\v1.33\include\pic16f877a.h"
CCP2CON equ 01Dh ;# 
# 1118 "C:\Program Files (x86)\Microchip\xc8\v1.33\include\pic16f877a.h"
ADRESH equ 01Eh ;# 
# 1124 "C:\Program Files (x86)\Microchip\xc8\v1.33\include\pic16f877a.h"
ADCON0 equ 01Fh ;# 
# 1219 "C:\Program Files (x86)\Microchip\xc8\v1.33\include\pic16f877a.h"
OPTION_REG equ 081h ;# 
# 1288 "C:\Program Files (x86)\Microchip\xc8\v1.33\include\pic16f877a.h"
TRISA equ 085h ;# 
# 1337 "C:\Program Files (x86)\Microchip\xc8\v1.33\include\pic16f877a.h"
TRISB equ 086h ;# 
# 1398 "C:\Program Files (x86)\Microchip\xc8\v1.33\include\pic16f877a.h"
TRISC equ 087h ;# 
# 1459 "C:\Program Files (x86)\Microchip\xc8\v1.33\include\pic16f877a.h"
TRISD equ 088h ;# 
# 1520 "C:\Program Files (x86)\Microchip\xc8\v1.33\include\pic16f877a.h"
TRISE equ 089h ;# 
# 1576 "C:\Program Files (x86)\Microchip\xc8\v1.33\include\pic16f877a.h"
PIE1 equ 08Ch ;# 
# 1637 "C:\Program Files (x86)\Microchip\xc8\v1.33\include\pic16f877a.h"
PIE2 equ 08Dh ;# 
# 1676 "C:\Program Files (x86)\Microchip\xc8\v1.33\include\pic16f877a.h"
PCON equ 08Eh ;# 
# 1709 "C:\Program Files (x86)\Microchip\xc8\v1.33\include\pic16f877a.h"
SSPCON2 equ 091h ;# 
# 1770 "C:\Program Files (x86)\Microchip\xc8\v1.33\include\pic16f877a.h"
PR2 equ 092h ;# 
# 1776 "C:\Program Files (x86)\Microchip\xc8\v1.33\include\pic16f877a.h"
SSPADD equ 093h ;# 
# 1782 "C:\Program Files (x86)\Microchip\xc8\v1.33\include\pic16f877a.h"
SSPSTAT equ 094h ;# 
# 1950 "C:\Program Files (x86)\Microchip\xc8\v1.33\include\pic16f877a.h"
TXSTA equ 098h ;# 
# 2030 "C:\Program Files (x86)\Microchip\xc8\v1.33\include\pic16f877a.h"
SPBRG equ 099h ;# 
# 2036 "C:\Program Files (x86)\Microchip\xc8\v1.33\include\pic16f877a.h"
CMCON equ 09Ch ;# 
# 2105 "C:\Program Files (x86)\Microchip\xc8\v1.33\include\pic16f877a.h"
CVRCON equ 09Dh ;# 
# 2169 "C:\Program Files (x86)\Microchip\xc8\v1.33\include\pic16f877a.h"
ADRESL equ 09Eh ;# 
# 2175 "C:\Program Files (x86)\Microchip\xc8\v1.33\include\pic16f877a.h"
ADCON1 equ 09Fh ;# 
# 2233 "C:\Program Files (x86)\Microchip\xc8\v1.33\include\pic16f877a.h"
EEDATA equ 010Ch ;# 
# 2239 "C:\Program Files (x86)\Microchip\xc8\v1.33\include\pic16f877a.h"
EEADR equ 010Dh ;# 
# 2245 "C:\Program Files (x86)\Microchip\xc8\v1.33\include\pic16f877a.h"
EEDATH equ 010Eh ;# 
# 2251 "C:\Program Files (x86)\Microchip\xc8\v1.33\include\pic16f877a.h"
EEADRH equ 010Fh ;# 
# 2257 "C:\Program Files (x86)\Microchip\xc8\v1.33\include\pic16f877a.h"
EECON1 equ 018Ch ;# 
# 2301 "C:\Program Files (x86)\Microchip\xc8\v1.33\include\pic16f877a.h"
EECON2 equ 018Dh ;# 
# 49 "C:\Program Files (x86)\Microchip\xc8\v1.33\include\pic16f877a.h"
INDF equ 00h ;# 
# 55 "C:\Program Files (x86)\Microchip\xc8\v1.33\include\pic16f877a.h"
TMR0 equ 01h ;# 
# 61 "C:\Program Files (x86)\Microchip\xc8\v1.33\include\pic16f877a.h"
PCL equ 02h ;# 
# 67 "C:\Program Files (x86)\Microchip\xc8\v1.33\include\pic16f877a.h"
STATUS equ 03h ;# 
# 154 "C:\Program Files (x86)\Microchip\xc8\v1.33\include\pic16f877a.h"
FSR equ 04h ;# 
# 160 "C:\Program Files (x86)\Microchip\xc8\v1.33\include\pic16f877a.h"
PORTA equ 05h ;# 
# 209 "C:\Program Files (x86)\Microchip\xc8\v1.33\include\pic16f877a.h"
PORTB equ 06h ;# 
# 270 "C:\Program Files (x86)\Microchip\xc8\v1.33\include\pic16f877a.h"
PORTC equ 07h ;# 
# 331 "C:\Program Files (x86)\Microchip\xc8\v1.33\include\pic16f877a.h"
PORTD equ 08h ;# 
# 392 "C:\Program Files (x86)\Microchip\xc8\v1.33\include\pic16f877a.h"
PORTE equ 09h ;# 
# 423 "C:\Program Files (x86)\Microchip\xc8\v1.33\include\pic16f877a.h"
PCLATH equ 0Ah ;# 
# 442 "C:\Program Files (x86)\Microchip\xc8\v1.33\include\pic16f877a.h"
INTCON equ 0Bh ;# 
# 519 "C:\Program Files (x86)\Microchip\xc8\v1.33\include\pic16f877a.h"
PIR1 equ 0Ch ;# 
# 580 "C:\Program Files (x86)\Microchip\xc8\v1.33\include\pic16f877a.h"
PIR2 equ 0Dh ;# 
# 619 "C:\Program Files (x86)\Microchip\xc8\v1.33\include\pic16f877a.h"
TMR1 equ 0Eh ;# 
# 625 "C:\Program Files (x86)\Microchip\xc8\v1.33\include\pic16f877a.h"
TMR1L equ 0Eh ;# 
# 631 "C:\Program Files (x86)\Microchip\xc8\v1.33\include\pic16f877a.h"
TMR1H equ 0Fh ;# 
# 637 "C:\Program Files (x86)\Microchip\xc8\v1.33\include\pic16f877a.h"
T1CON equ 010h ;# 
# 711 "C:\Program Files (x86)\Microchip\xc8\v1.33\include\pic16f877a.h"
TMR2 equ 011h ;# 
# 717 "C:\Program Files (x86)\Microchip\xc8\v1.33\include\pic16f877a.h"
T2CON equ 012h ;# 
# 787 "C:\Program Files (x86)\Microchip\xc8\v1.33\include\pic16f877a.h"
SSPBUF equ 013h ;# 
# 793 "C:\Program Files (x86)\Microchip\xc8\v1.33\include\pic16f877a.h"
SSPCON equ 014h ;# 
# 862 "C:\Program Files (x86)\Microchip\xc8\v1.33\include\pic16f877a.h"
CCPR1 equ 015h ;# 
# 868 "C:\Program Files (x86)\Microchip\xc8\v1.33\include\pic16f877a.h"
CCPR1L equ 015h ;# 
# 874 "C:\Program Files (x86)\Microchip\xc8\v1.33\include\pic16f877a.h"
CCPR1H equ 016h ;# 
# 880 "C:\Program Files (x86)\Microchip\xc8\v1.33\include\pic16f877a.h"
CCP1CON equ 017h ;# 
# 937 "C:\Program Files (x86)\Microchip\xc8\v1.33\include\pic16f877a.h"
RCSTA equ 018h ;# 
# 1031 "C:\Program Files (x86)\Microchip\xc8\v1.33\include\pic16f877a.h"
TXREG equ 019h ;# 
# 1037 "C:\Program Files (x86)\Microchip\xc8\v1.33\include\pic16f877a.h"
RCREG equ 01Ah ;# 
# 1043 "C:\Program Files (x86)\Microchip\xc8\v1.33\include\pic16f877a.h"
CCPR2 equ 01Bh ;# 
# 1049 "C:\Program Files (x86)\Microchip\xc8\v1.33\include\pic16f877a.h"
CCPR2L equ 01Bh ;# 
# 1055 "C:\Program Files (x86)\Microchip\xc8\v1.33\include\pic16f877a.h"
CCPR2H equ 01Ch ;# 
# 1061 "C:\Program Files (x86)\Microchip\xc8\v1.33\include\pic16f877a.h"
CCP2CON equ 01Dh ;# 
# 1118 "C:\Program Files (x86)\Microchip\xc8\v1.33\include\pic16f877a.h"
ADRESH equ 01Eh ;# 
# 1124 "C:\Program Files (x86)\Microchip\xc8\v1.33\include\pic16f877a.h"
ADCON0 equ 01Fh ;# 
# 1219 "C:\Program Files (x86)\Microchip\xc8\v1.33\include\pic16f877a.h"
OPTION_REG equ 081h ;# 
# 1288 "C:\Program Files (x86)\Microchip\xc8\v1.33\include\pic16f877a.h"
TRISA equ 085h ;# 
# 1337 "C:\Program Files (x86)\Microchip\xc8\v1.33\include\pic16f877a.h"
TRISB equ 086h ;# 
# 1398 "C:\Program Files (x86)\Microchip\xc8\v1.33\include\pic16f877a.h"
TRISC equ 087h ;# 
# 1459 "C:\Program Files (x86)\Microchip\xc8\v1.33\include\pic16f877a.h"
TRISD equ 088h ;# 
# 1520 "C:\Program Files (x86)\Microchip\xc8\v1.33\include\pic16f877a.h"
TRISE equ 089h ;# 
# 1576 "C:\Program Files (x86)\Microchip\xc8\v1.33\include\pic16f877a.h"
PIE1 equ 08Ch ;# 
# 1637 "C:\Program Files (x86)\Microchip\xc8\v1.33\include\pic16f877a.h"
PIE2 equ 08Dh ;# 
# 1676 "C:\Program Files (x86)\Microchip\xc8\v1.33\include\pic16f877a.h"
PCON equ 08Eh ;# 
# 1709 "C:\Program Files (x86)\Microchip\xc8\v1.33\include\pic16f877a.h"
SSPCON2 equ 091h ;# 
# 1770 "C:\Program Files (x86)\Microchip\xc8\v1.33\include\pic16f877a.h"
PR2 equ 092h ;# 
# 1776 "C:\Program Files (x86)\Microchip\xc8\v1.33\include\pic16f877a.h"
SSPADD equ 093h ;# 
# 1782 "C:\Program Files (x86)\Microchip\xc8\v1.33\include\pic16f877a.h"
SSPSTAT equ 094h ;# 
# 1950 "C:\Program Files (x86)\Microchip\xc8\v1.33\include\pic16f877a.h"
TXSTA equ 098h ;# 
# 2030 "C:\Program Files (x86)\Microchip\xc8\v1.33\include\pic16f877a.h"
SPBRG equ 099h ;# 
# 2036 "C:\Program Files (x86)\Microchip\xc8\v1.33\include\pic16f877a.h"
CMCON equ 09Ch ;# 
# 2105 "C:\Program Files (x86)\Microchip\xc8\v1.33\include\pic16f877a.h"
CVRCON equ 09Dh ;# 
# 2169 "C:\Program Files (x86)\Microchip\xc8\v1.33\include\pic16f877a.h"
ADRESL equ 09Eh ;# 
# 2175 "C:\Program Files (x86)\Microchip\xc8\v1.33\include\pic16f877a.h"
ADCON1 equ 09Fh ;# 
# 2233 "C:\Program Files (x86)\Microchip\xc8\v1.33\include\pic16f877a.h"
EEDATA equ 010Ch ;# 
# 2239 "C:\Program Files (x86)\Microchip\xc8\v1.33\include\pic16f877a.h"
EEADR equ 010Dh ;# 
# 2245 "C:\Program Files (x86)\Microchip\xc8\v1.33\include\pic16f877a.h"
EEDATH equ 010Eh ;# 
# 2251 "C:\Program Files (x86)\Microchip\xc8\v1.33\include\pic16f877a.h"
EEADRH equ 010Fh ;# 
# 2257 "C:\Program Files (x86)\Microchip\xc8\v1.33\include\pic16f877a.h"
EECON1 equ 018Ch ;# 
# 2301 "C:\Program Files (x86)\Microchip\xc8\v1.33\include\pic16f877a.h"
EECON2 equ 018Dh ;# 
# 49 "C:\Program Files (x86)\Microchip\xc8\v1.33\include\pic16f877a.h"
INDF equ 00h ;# 
# 55 "C:\Program Files (x86)\Microchip\xc8\v1.33\include\pic16f877a.h"
TMR0 equ 01h ;# 
# 61 "C:\Program Files (x86)\Microchip\xc8\v1.33\include\pic16f877a.h"
PCL equ 02h ;# 
# 67 "C:\Program Files (x86)\Microchip\xc8\v1.33\include\pic16f877a.h"
STATUS equ 03h ;# 
# 154 "C:\Program Files (x86)\Microchip\xc8\v1.33\include\pic16f877a.h"
FSR equ 04h ;# 
# 160 "C:\Program Files (x86)\Microchip\xc8\v1.33\include\pic16f877a.h"
PORTA equ 05h ;# 
# 209 "C:\Program Files (x86)\Microchip\xc8\v1.33\include\pic16f877a.h"
PORTB equ 06h ;# 
# 270 "C:\Program Files (x86)\Microchip\xc8\v1.33\include\pic16f877a.h"
PORTC equ 07h ;# 
# 331 "C:\Program Files (x86)\Microchip\xc8\v1.33\include\pic16f877a.h"
PORTD equ 08h ;# 
# 392 "C:\Program Files (x86)\Microchip\xc8\v1.33\include\pic16f877a.h"
PORTE equ 09h ;# 
# 423 "C:\Program Files (x86)\Microchip\xc8\v1.33\include\pic16f877a.h"
PCLATH equ 0Ah ;# 
# 442 "C:\Program Files (x86)\Microchip\xc8\v1.33\include\pic16f877a.h"
INTCON equ 0Bh ;# 
# 519 "C:\Program Files (x86)\Microchip\xc8\v1.33\include\pic16f877a.h"
PIR1 equ 0Ch ;# 
# 580 "C:\Program Files (x86)\Microchip\xc8\v1.33\include\pic16f877a.h"
PIR2 equ 0Dh ;# 
# 619 "C:\Program Files (x86)\Microchip\xc8\v1.33\include\pic16f877a.h"
TMR1 equ 0Eh ;# 
# 625 "C:\Program Files (x86)\Microchip\xc8\v1.33\include\pic16f877a.h"
TMR1L equ 0Eh ;# 
# 631 "C:\Program Files (x86)\Microchip\xc8\v1.33\include\pic16f877a.h"
TMR1H equ 0Fh ;# 
# 637 "C:\Program Files (x86)\Microchip\xc8\v1.33\include\pic16f877a.h"
T1CON equ 010h ;# 
# 711 "C:\Program Files (x86)\Microchip\xc8\v1.33\include\pic16f877a.h"
TMR2 equ 011h ;# 
# 717 "C:\Program Files (x86)\Microchip\xc8\v1.33\include\pic16f877a.h"
T2CON equ 012h ;# 
# 787 "C:\Program Files (x86)\Microchip\xc8\v1.33\include\pic16f877a.h"
SSPBUF equ 013h ;# 
# 793 "C:\Program Files (x86)\Microchip\xc8\v1.33\include\pic16f877a.h"
SSPCON equ 014h ;# 
# 862 "C:\Program Files (x86)\Microchip\xc8\v1.33\include\pic16f877a.h"
CCPR1 equ 015h ;# 
# 868 "C:\Program Files (x86)\Microchip\xc8\v1.33\include\pic16f877a.h"
CCPR1L equ 015h ;# 
# 874 "C:\Program Files (x86)\Microchip\xc8\v1.33\include\pic16f877a.h"
CCPR1H equ 016h ;# 
# 880 "C:\Program Files (x86)\Microchip\xc8\v1.33\include\pic16f877a.h"
CCP1CON equ 017h ;# 
# 937 "C:\Program Files (x86)\Microchip\xc8\v1.33\include\pic16f877a.h"
RCSTA equ 018h ;# 
# 1031 "C:\Program Files (x86)\Microchip\xc8\v1.33\include\pic16f877a.h"
TXREG equ 019h ;# 
# 1037 "C:\Program Files (x86)\Microchip\xc8\v1.33\include\pic16f877a.h"
RCREG equ 01Ah ;# 
# 1043 "C:\Program Files (x86)\Microchip\xc8\v1.33\include\pic16f877a.h"
CCPR2 equ 01Bh ;# 
# 1049 "C:\Program Files (x86)\Microchip\xc8\v1.33\include\pic16f877a.h"
CCPR2L equ 01Bh ;# 
# 1055 "C:\Program Files (x86)\Microchip\xc8\v1.33\include\pic16f877a.h"
CCPR2H equ 01Ch ;# 
# 1061 "C:\Program Files (x86)\Microchip\xc8\v1.33\include\pic16f877a.h"
CCP2CON equ 01Dh ;# 
# 1118 "C:\Program Files (x86)\Microchip\xc8\v1.33\include\pic16f877a.h"
ADRESH equ 01Eh ;# 
# 1124 "C:\Program Files (x86)\Microchip\xc8\v1.33\include\pic16f877a.h"
ADCON0 equ 01Fh ;# 
# 1219 "C:\Program Files (x86)\Microchip\xc8\v1.33\include\pic16f877a.h"
OPTION_REG equ 081h ;# 
# 1288 "C:\Program Files (x86)\Microchip\xc8\v1.33\include\pic16f877a.h"
TRISA equ 085h ;# 
# 1337 "C:\Program Files (x86)\Microchip\xc8\v1.33\include\pic16f877a.h"
TRISB equ 086h ;# 
# 1398 "C:\Program Files (x86)\Microchip\xc8\v1.33\include\pic16f877a.h"
TRISC equ 087h ;# 
# 1459 "C:\Program Files (x86)\Microchip\xc8\v1.33\include\pic16f877a.h"
TRISD equ 088h ;# 
# 1520 "C:\Program Files (x86)\Microchip\xc8\v1.33\include\pic16f877a.h"
TRISE equ 089h ;# 
# 1576 "C:\Program Files (x86)\Microchip\xc8\v1.33\include\pic16f877a.h"
PIE1 equ 08Ch ;# 
# 1637 "C:\Program Files (x86)\Microchip\xc8\v1.33\include\pic16f877a.h"
PIE2 equ 08Dh ;# 
# 1676 "C:\Program Files (x86)\Microchip\xc8\v1.33\include\pic16f877a.h"
PCON equ 08Eh ;# 
# 1709 "C:\Program Files (x86)\Microchip\xc8\v1.33\include\pic16f877a.h"
SSPCON2 equ 091h ;# 
# 1770 "C:\Program Files (x86)\Microchip\xc8\v1.33\include\pic16f877a.h"
PR2 equ 092h ;# 
# 1776 "C:\Program Files (x86)\Microchip\xc8\v1.33\include\pic16f877a.h"
SSPADD equ 093h ;# 
# 1782 "C:\Program Files (x86)\Microchip\xc8\v1.33\include\pic16f877a.h"
SSPSTAT equ 094h ;# 
# 1950 "C:\Program Files (x86)\Microchip\xc8\v1.33\include\pic16f877a.h"
TXSTA equ 098h ;# 
# 2030 "C:\Program Files (x86)\Microchip\xc8\v1.33\include\pic16f877a.h"
SPBRG equ 099h ;# 
# 2036 "C:\Program Files (x86)\Microchip\xc8\v1.33\include\pic16f877a.h"
CMCON equ 09Ch ;# 
# 2105 "C:\Program Files (x86)\Microchip\xc8\v1.33\include\pic16f877a.h"
CVRCON equ 09Dh ;# 
# 2169 "C:\Program Files (x86)\Microchip\xc8\v1.33\include\pic16f877a.h"
ADRESL equ 09Eh ;# 
# 2175 "C:\Program Files (x86)\Microchip\xc8\v1.33\include\pic16f877a.h"
ADCON1 equ 09Fh ;# 
# 2233 "C:\Program Files (x86)\Microchip\xc8\v1.33\include\pic16f877a.h"
EEDATA equ 010Ch ;# 
# 2239 "C:\Program Files (x86)\Microchip\xc8\v1.33\include\pic16f877a.h"
EEADR equ 010Dh ;# 
# 2245 "C:\Program Files (x86)\Microchip\xc8\v1.33\include\pic16f877a.h"
EEDATH equ 010Eh ;# 
# 2251 "C:\Program Files (x86)\Microchip\xc8\v1.33\include\pic16f877a.h"
EEADRH equ 010Fh ;# 
# 2257 "C:\Program Files (x86)\Microchip\xc8\v1.33\include\pic16f877a.h"
EECON1 equ 018Ch ;# 
# 2301 "C:\Program Files (x86)\Microchip\xc8\v1.33\include\pic16f877a.h"
EECON2 equ 018Dh ;# 
# 49 "C:\Program Files (x86)\Microchip\xc8\v1.33\include\pic16f877a.h"
INDF equ 00h ;# 
# 55 "C:\Program Files (x86)\Microchip\xc8\v1.33\include\pic16f877a.h"
TMR0 equ 01h ;# 
# 61 "C:\Program Files (x86)\Microchip\xc8\v1.33\include\pic16f877a.h"
PCL equ 02h ;# 
# 67 "C:\Program Files (x86)\Microchip\xc8\v1.33\include\pic16f877a.h"
STATUS equ 03h ;# 
# 154 "C:\Program Files (x86)\Microchip\xc8\v1.33\include\pic16f877a.h"
FSR equ 04h ;# 
# 160 "C:\Program Files (x86)\Microchip\xc8\v1.33\include\pic16f877a.h"
PORTA equ 05h ;# 
# 209 "C:\Program Files (x86)\Microchip\xc8\v1.33\include\pic16f877a.h"
PORTB equ 06h ;# 
# 270 "C:\Program Files (x86)\Microchip\xc8\v1.33\include\pic16f877a.h"
PORTC equ 07h ;# 
# 331 "C:\Program Files (x86)\Microchip\xc8\v1.33\include\pic16f877a.h"
PORTD equ 08h ;# 
# 392 "C:\Program Files (x86)\Microchip\xc8\v1.33\include\pic16f877a.h"
PORTE equ 09h ;# 
# 423 "C:\Program Files (x86)\Microchip\xc8\v1.33\include\pic16f877a.h"
PCLATH equ 0Ah ;# 
# 442 "C:\Program Files (x86)\Microchip\xc8\v1.33\include\pic16f877a.h"
INTCON equ 0Bh ;# 
# 519 "C:\Program Files (x86)\Microchip\xc8\v1.33\include\pic16f877a.h"
PIR1 equ 0Ch ;# 
# 580 "C:\Program Files (x86)\Microchip\xc8\v1.33\include\pic16f877a.h"
PIR2 equ 0Dh ;# 
# 619 "C:\Program Files (x86)\Microchip\xc8\v1.33\include\pic16f877a.h"
TMR1 equ 0Eh ;# 
# 625 "C:\Program Files (x86)\Microchip\xc8\v1.33\include\pic16f877a.h"
TMR1L equ 0Eh ;# 
# 631 "C:\Program Files (x86)\Microchip\xc8\v1.33\include\pic16f877a.h"
TMR1H equ 0Fh ;# 
# 637 "C:\Program Files (x86)\Microchip\xc8\v1.33\include\pic16f877a.h"
T1CON equ 010h ;# 
# 711 "C:\Program Files (x86)\Microchip\xc8\v1.33\include\pic16f877a.h"
TMR2 equ 011h ;# 
# 717 "C:\Program Files (x86)\Microchip\xc8\v1.33\include\pic16f877a.h"
T2CON equ 012h ;# 
# 787 "C:\Program Files (x86)\Microchip\xc8\v1.33\include\pic16f877a.h"
SSPBUF equ 013h ;# 
# 793 "C:\Program Files (x86)\Microchip\xc8\v1.33\include\pic16f877a.h"
SSPCON equ 014h ;# 
# 862 "C:\Program Files (x86)\Microchip\xc8\v1.33\include\pic16f877a.h"
CCPR1 equ 015h ;# 
# 868 "C:\Program Files (x86)\Microchip\xc8\v1.33\include\pic16f877a.h"
CCPR1L equ 015h ;# 
# 874 "C:\Program Files (x86)\Microchip\xc8\v1.33\include\pic16f877a.h"
CCPR1H equ 016h ;# 
# 880 "C:\Program Files (x86)\Microchip\xc8\v1.33\include\pic16f877a.h"
CCP1CON equ 017h ;# 
# 937 "C:\Program Files (x86)\Microchip\xc8\v1.33\include\pic16f877a.h"
RCSTA equ 018h ;# 
# 1031 "C:\Program Files (x86)\Microchip\xc8\v1.33\include\pic16f877a.h"
TXREG equ 019h ;# 
# 1037 "C:\Program Files (x86)\Microchip\xc8\v1.33\include\pic16f877a.h"
RCREG equ 01Ah ;# 
# 1043 "C:\Program Files (x86)\Microchip\xc8\v1.33\include\pic16f877a.h"
CCPR2 equ 01Bh ;# 
# 1049 "C:\Program Files (x86)\Microchip\xc8\v1.33\include\pic16f877a.h"
CCPR2L equ 01Bh ;# 
# 1055 "C:\Program Files (x86)\Microchip\xc8\v1.33\include\pic16f877a.h"
CCPR2H equ 01Ch ;# 
# 1061 "C:\Program Files (x86)\Microchip\xc8\v1.33\include\pic16f877a.h"
CCP2CON equ 01Dh ;# 
# 1118 "C:\Program Files (x86)\Microchip\xc8\v1.33\include\pic16f877a.h"
ADRESH equ 01Eh ;# 
# 1124 "C:\Program Files (x86)\Microchip\xc8\v1.33\include\pic16f877a.h"
ADCON0 equ 01Fh ;# 
# 1219 "C:\Program Files (x86)\Microchip\xc8\v1.33\include\pic16f877a.h"
OPTION_REG equ 081h ;# 
# 1288 "C:\Program Files (x86)\Microchip\xc8\v1.33\include\pic16f877a.h"
TRISA equ 085h ;# 
# 1337 "C:\Program Files (x86)\Microchip\xc8\v1.33\include\pic16f877a.h"
TRISB equ 086h ;# 
# 1398 "C:\Program Files (x86)\Microchip\xc8\v1.33\include\pic16f877a.h"
TRISC equ 087h ;# 
# 1459 "C:\Program Files (x86)\Microchip\xc8\v1.33\include\pic16f877a.h"
TRISD equ 088h ;# 
# 1520 "C:\Program Files (x86)\Microchip\xc8\v1.33\include\pic16f877a.h"
TRISE equ 089h ;# 
# 1576 "C:\Program Files (x86)\Microchip\xc8\v1.33\include\pic16f877a.h"
PIE1 equ 08Ch ;# 
# 1637 "C:\Program Files (x86)\Microchip\xc8\v1.33\include\pic16f877a.h"
PIE2 equ 08Dh ;# 
# 1676 "C:\Program Files (x86)\Microchip\xc8\v1.33\include\pic16f877a.h"
PCON equ 08Eh ;# 
# 1709 "C:\Program Files (x86)\Microchip\xc8\v1.33\include\pic16f877a.h"
SSPCON2 equ 091h ;# 
# 1770 "C:\Program Files (x86)\Microchip\xc8\v1.33\include\pic16f877a.h"
PR2 equ 092h ;# 
# 1776 "C:\Program Files (x86)\Microchip\xc8\v1.33\include\pic16f877a.h"
SSPADD equ 093h ;# 
# 1782 "C:\Program Files (x86)\Microchip\xc8\v1.33\include\pic16f877a.h"
SSPSTAT equ 094h ;# 
# 1950 "C:\Program Files (x86)\Microchip\xc8\v1.33\include\pic16f877a.h"
TXSTA equ 098h ;# 
# 2030 "C:\Program Files (x86)\Microchip\xc8\v1.33\include\pic16f877a.h"
SPBRG equ 099h ;# 
# 2036 "C:\Program Files (x86)\Microchip\xc8\v1.33\include\pic16f877a.h"
CMCON equ 09Ch ;# 
# 2105 "C:\Program Files (x86)\Microchip\xc8\v1.33\include\pic16f877a.h"
CVRCON equ 09Dh ;# 
# 2169 "C:\Program Files (x86)\Microchip\xc8\v1.33\include\pic16f877a.h"
ADRESL equ 09Eh ;# 
# 2175 "C:\Program Files (x86)\Microchip\xc8\v1.33\include\pic16f877a.h"
ADCON1 equ 09Fh ;# 
# 2233 "C:\Program Files (x86)\Microchip\xc8\v1.33\include\pic16f877a.h"
EEDATA equ 010Ch ;# 
# 2239 "C:\Program Files (x86)\Microchip\xc8\v1.33\include\pic16f877a.h"
EEADR equ 010Dh ;# 
# 2245 "C:\Program Files (x86)\Microchip\xc8\v1.33\include\pic16f877a.h"
EEDATH equ 010Eh ;# 
# 2251 "C:\Program Files (x86)\Microchip\xc8\v1.33\include\pic16f877a.h"
EEADRH equ 010Fh ;# 
# 2257 "C:\Program Files (x86)\Microchip\xc8\v1.33\include\pic16f877a.h"
EECON1 equ 018Ch ;# 
# 2301 "C:\Program Files (x86)\Microchip\xc8\v1.33\include\pic16f877a.h"
EECON2 equ 018Dh ;# 
# 49 "C:\Program Files (x86)\Microchip\xc8\v1.33\include\pic16f877a.h"
INDF equ 00h ;# 
# 55 "C:\Program Files (x86)\Microchip\xc8\v1.33\include\pic16f877a.h"
TMR0 equ 01h ;# 
# 61 "C:\Program Files (x86)\Microchip\xc8\v1.33\include\pic16f877a.h"
PCL equ 02h ;# 
# 67 "C:\Program Files (x86)\Microchip\xc8\v1.33\include\pic16f877a.h"
STATUS equ 03h ;# 
# 154 "C:\Program Files (x86)\Microchip\xc8\v1.33\include\pic16f877a.h"
FSR equ 04h ;# 
# 160 "C:\Program Files (x86)\Microchip\xc8\v1.33\include\pic16f877a.h"
PORTA equ 05h ;# 
# 209 "C:\Program Files (x86)\Microchip\xc8\v1.33\include\pic16f877a.h"
PORTB equ 06h ;# 
# 270 "C:\Program Files (x86)\Microchip\xc8\v1.33\include\pic16f877a.h"
PORTC equ 07h ;# 
# 331 "C:\Program Files (x86)\Microchip\xc8\v1.33\include\pic16f877a.h"
PORTD equ 08h ;# 
# 392 "C:\Program Files (x86)\Microchip\xc8\v1.33\include\pic16f877a.h"
PORTE equ 09h ;# 
# 423 "C:\Program Files (x86)\Microchip\xc8\v1.33\include\pic16f877a.h"
PCLATH equ 0Ah ;# 
# 442 "C:\Program Files (x86)\Microchip\xc8\v1.33\include\pic16f877a.h"
INTCON equ 0Bh ;# 
# 519 "C:\Program Files (x86)\Microchip\xc8\v1.33\include\pic16f877a.h"
PIR1 equ 0Ch ;# 
# 580 "C:\Program Files (x86)\Microchip\xc8\v1.33\include\pic16f877a.h"
PIR2 equ 0Dh ;# 
# 619 "C:\Program Files (x86)\Microchip\xc8\v1.33\include\pic16f877a.h"
TMR1 equ 0Eh ;# 
# 625 "C:\Program Files (x86)\Microchip\xc8\v1.33\include\pic16f877a.h"
TMR1L equ 0Eh ;# 
# 631 "C:\Program Files (x86)\Microchip\xc8\v1.33\include\pic16f877a.h"
TMR1H equ 0Fh ;# 
# 637 "C:\Program Files (x86)\Microchip\xc8\v1.33\include\pic16f877a.h"
T1CON equ 010h ;# 
# 711 "C:\Program Files (x86)\Microchip\xc8\v1.33\include\pic16f877a.h"
TMR2 equ 011h ;# 
# 717 "C:\Program Files (x86)\Microchip\xc8\v1.33\include\pic16f877a.h"
T2CON equ 012h ;# 
# 787 "C:\Program Files (x86)\Microchip\xc8\v1.33\include\pic16f877a.h"
SSPBUF equ 013h ;# 
# 793 "C:\Program Files (x86)\Microchip\xc8\v1.33\include\pic16f877a.h"
SSPCON equ 014h ;# 
# 862 "C:\Program Files (x86)\Microchip\xc8\v1.33\include\pic16f877a.h"
CCPR1 equ 015h ;# 
# 868 "C:\Program Files (x86)\Microchip\xc8\v1.33\include\pic16f877a.h"
CCPR1L equ 015h ;# 
# 874 "C:\Program Files (x86)\Microchip\xc8\v1.33\include\pic16f877a.h"
CCPR1H equ 016h ;# 
# 880 "C:\Program Files (x86)\Microchip\xc8\v1.33\include\pic16f877a.h"
CCP1CON equ 017h ;# 
# 937 "C:\Program Files (x86)\Microchip\xc8\v1.33\include\pic16f877a.h"
RCSTA equ 018h ;# 
# 1031 "C:\Program Files (x86)\Microchip\xc8\v1.33\include\pic16f877a.h"
TXREG equ 019h ;# 
# 1037 "C:\Program Files (x86)\Microchip\xc8\v1.33\include\pic16f877a.h"
RCREG equ 01Ah ;# 
# 1043 "C:\Program Files (x86)\Microchip\xc8\v1.33\include\pic16f877a.h"
CCPR2 equ 01Bh ;# 
# 1049 "C:\Program Files (x86)\Microchip\xc8\v1.33\include\pic16f877a.h"
CCPR2L equ 01Bh ;# 
# 1055 "C:\Program Files (x86)\Microchip\xc8\v1.33\include\pic16f877a.h"
CCPR2H equ 01Ch ;# 
# 1061 "C:\Program Files (x86)\Microchip\xc8\v1.33\include\pic16f877a.h"
CCP2CON equ 01Dh ;# 
# 1118 "C:\Program Files (x86)\Microchip\xc8\v1.33\include\pic16f877a.h"
ADRESH equ 01Eh ;# 
# 1124 "C:\Program Files (x86)\Microchip\xc8\v1.33\include\pic16f877a.h"
ADCON0 equ 01Fh ;# 
# 1219 "C:\Program Files (x86)\Microchip\xc8\v1.33\include\pic16f877a.h"
OPTION_REG equ 081h ;# 
# 1288 "C:\Program Files (x86)\Microchip\xc8\v1.33\include\pic16f877a.h"
TRISA equ 085h ;# 
# 1337 "C:\Program Files (x86)\Microchip\xc8\v1.33\include\pic16f877a.h"
TRISB equ 086h ;# 
# 1398 "C:\Program Files (x86)\Microchip\xc8\v1.33\include\pic16f877a.h"
TRISC equ 087h ;# 
# 1459 "C:\Program Files (x86)\Microchip\xc8\v1.33\include\pic16f877a.h"
TRISD equ 088h ;# 
# 1520 "C:\Program Files (x86)\Microchip\xc8\v1.33\include\pic16f877a.h"
TRISE equ 089h ;# 
# 1576 "C:\Program Files (x86)\Microchip\xc8\v1.33\include\pic16f877a.h"
PIE1 equ 08Ch ;# 
# 1637 "C:\Program Files (x86)\Microchip\xc8\v1.33\include\pic16f877a.h"
PIE2 equ 08Dh ;# 
# 1676 "C:\Program Files (x86)\Microchip\xc8\v1.33\include\pic16f877a.h"
PCON equ 08Eh ;# 
# 1709 "C:\Program Files (x86)\Microchip\xc8\v1.33\include\pic16f877a.h"
SSPCON2 equ 091h ;# 
# 1770 "C:\Program Files (x86)\Microchip\xc8\v1.33\include\pic16f877a.h"
PR2 equ 092h ;# 
# 1776 "C:\Program Files (x86)\Microchip\xc8\v1.33\include\pic16f877a.h"
SSPADD equ 093h ;# 
# 1782 "C:\Program Files (x86)\Microchip\xc8\v1.33\include\pic16f877a.h"
SSPSTAT equ 094h ;# 
# 1950 "C:\Program Files (x86)\Microchip\xc8\v1.33\include\pic16f877a.h"
TXSTA equ 098h ;# 
# 2030 "C:\Program Files (x86)\Microchip\xc8\v1.33\include\pic16f877a.h"
SPBRG equ 099h ;# 
# 2036 "C:\Program Files (x86)\Microchip\xc8\v1.33\include\pic16f877a.h"
CMCON equ 09Ch ;# 
# 2105 "C:\Program Files (x86)\Microchip\xc8\v1.33\include\pic16f877a.h"
CVRCON equ 09Dh ;# 
# 2169 "C:\Program Files (x86)\Microchip\xc8\v1.33\include\pic16f877a.h"
ADRESL equ 09Eh ;# 
# 2175 "C:\Program Files (x86)\Microchip\xc8\v1.33\include\pic16f877a.h"
ADCON1 equ 09Fh ;# 
# 2233 "C:\Program Files (x86)\Microchip\xc8\v1.33\include\pic16f877a.h"
EEDATA equ 010Ch ;# 
# 2239 "C:\Program Files (x86)\Microchip\xc8\v1.33\include\pic16f877a.h"
EEADR equ 010Dh ;# 
# 2245 "C:\Program Files (x86)\Microchip\xc8\v1.33\include\pic16f877a.h"
EEDATH equ 010Eh ;# 
# 2251 "C:\Program Files (x86)\Microchip\xc8\v1.33\include\pic16f877a.h"
EEADRH equ 010Fh ;# 
# 2257 "C:\Program Files (x86)\Microchip\xc8\v1.33\include\pic16f877a.h"
EECON1 equ 018Ch ;# 
# 2301 "C:\Program Files (x86)\Microchip\xc8\v1.33\include\pic16f877a.h"
EECON2 equ 018Dh ;# 
# 49 "C:\Program Files (x86)\Microchip\xc8\v1.33\include\pic16f877a.h"
INDF equ 00h ;# 
# 55 "C:\Program Files (x86)\Microchip\xc8\v1.33\include\pic16f877a.h"
TMR0 equ 01h ;# 
# 61 "C:\Program Files (x86)\Microchip\xc8\v1.33\include\pic16f877a.h"
PCL equ 02h ;# 
# 67 "C:\Program Files (x86)\Microchip\xc8\v1.33\include\pic16f877a.h"
STATUS equ 03h ;# 
# 154 "C:\Program Files (x86)\Microchip\xc8\v1.33\include\pic16f877a.h"
FSR equ 04h ;# 
# 160 "C:\Program Files (x86)\Microchip\xc8\v1.33\include\pic16f877a.h"
PORTA equ 05h ;# 
# 209 "C:\Program Files (x86)\Microchip\xc8\v1.33\include\pic16f877a.h"
PORTB equ 06h ;# 
# 270 "C:\Program Files (x86)\Microchip\xc8\v1.33\include\pic16f877a.h"
PORTC equ 07h ;# 
# 331 "C:\Program Files (x86)\Microchip\xc8\v1.33\include\pic16f877a.h"
PORTD equ 08h ;# 
# 392 "C:\Program Files (x86)\Microchip\xc8\v1.33\include\pic16f877a.h"
PORTE equ 09h ;# 
# 423 "C:\Program Files (x86)\Microchip\xc8\v1.33\include\pic16f877a.h"
PCLATH equ 0Ah ;# 
# 442 "C:\Program Files (x86)\Microchip\xc8\v1.33\include\pic16f877a.h"
INTCON equ 0Bh ;# 
# 519 "C:\Program Files (x86)\Microchip\xc8\v1.33\include\pic16f877a.h"
PIR1 equ 0Ch ;# 
# 580 "C:\Program Files (x86)\Microchip\xc8\v1.33\include\pic16f877a.h"
PIR2 equ 0Dh ;# 
# 619 "C:\Program Files (x86)\Microchip\xc8\v1.33\include\pic16f877a.h"
TMR1 equ 0Eh ;# 
# 625 "C:\Program Files (x86)\Microchip\xc8\v1.33\include\pic16f877a.h"
TMR1L equ 0Eh ;# 
# 631 "C:\Program Files (x86)\Microchip\xc8\v1.33\include\pic16f877a.h"
TMR1H equ 0Fh ;# 
# 637 "C:\Program Files (x86)\Microchip\xc8\v1.33\include\pic16f877a.h"
T1CON equ 010h ;# 
# 711 "C:\Program Files (x86)\Microchip\xc8\v1.33\include\pic16f877a.h"
TMR2 equ 011h ;# 
# 717 "C:\Program Files (x86)\Microchip\xc8\v1.33\include\pic16f877a.h"
T2CON equ 012h ;# 
# 787 "C:\Program Files (x86)\Microchip\xc8\v1.33\include\pic16f877a.h"
SSPBUF equ 013h ;# 
# 793 "C:\Program Files (x86)\Microchip\xc8\v1.33\include\pic16f877a.h"
SSPCON equ 014h ;# 
# 862 "C:\Program Files (x86)\Microchip\xc8\v1.33\include\pic16f877a.h"
CCPR1 equ 015h ;# 
# 868 "C:\Program Files (x86)\Microchip\xc8\v1.33\include\pic16f877a.h"
CCPR1L equ 015h ;# 
# 874 "C:\Program Files (x86)\Microchip\xc8\v1.33\include\pic16f877a.h"
CCPR1H equ 016h ;# 
# 880 "C:\Program Files (x86)\Microchip\xc8\v1.33\include\pic16f877a.h"
CCP1CON equ 017h ;# 
# 937 "C:\Program Files (x86)\Microchip\xc8\v1.33\include\pic16f877a.h"
RCSTA equ 018h ;# 
# 1031 "C:\Program Files (x86)\Microchip\xc8\v1.33\include\pic16f877a.h"
TXREG equ 019h ;# 
# 1037 "C:\Program Files (x86)\Microchip\xc8\v1.33\include\pic16f877a.h"
RCREG equ 01Ah ;# 
# 1043 "C:\Program Files (x86)\Microchip\xc8\v1.33\include\pic16f877a.h"
CCPR2 equ 01Bh ;# 
# 1049 "C:\Program Files (x86)\Microchip\xc8\v1.33\include\pic16f877a.h"
CCPR2L equ 01Bh ;# 
# 1055 "C:\Program Files (x86)\Microchip\xc8\v1.33\include\pic16f877a.h"
CCPR2H equ 01Ch ;# 
# 1061 "C:\Program Files (x86)\Microchip\xc8\v1.33\include\pic16f877a.h"
CCP2CON equ 01Dh ;# 
# 1118 "C:\Program Files (x86)\Microchip\xc8\v1.33\include\pic16f877a.h"
ADRESH equ 01Eh ;# 
# 1124 "C:\Program Files (x86)\Microchip\xc8\v1.33\include\pic16f877a.h"
ADCON0 equ 01Fh ;# 
# 1219 "C:\Program Files (x86)\Microchip\xc8\v1.33\include\pic16f877a.h"
OPTION_REG equ 081h ;# 
# 1288 "C:\Program Files (x86)\Microchip\xc8\v1.33\include\pic16f877a.h"
TRISA equ 085h ;# 
# 1337 "C:\Program Files (x86)\Microchip\xc8\v1.33\include\pic16f877a.h"
TRISB equ 086h ;# 
# 1398 "C:\Program Files (x86)\Microchip\xc8\v1.33\include\pic16f877a.h"
TRISC equ 087h ;# 
# 1459 "C:\Program Files (x86)\Microchip\xc8\v1.33\include\pic16f877a.h"
TRISD equ 088h ;# 
# 1520 "C:\Program Files (x86)\Microchip\xc8\v1.33\include\pic16f877a.h"
TRISE equ 089h ;# 
# 1576 "C:\Program Files (x86)\Microchip\xc8\v1.33\include\pic16f877a.h"
PIE1 equ 08Ch ;# 
# 1637 "C:\Program Files (x86)\Microchip\xc8\v1.33\include\pic16f877a.h"
PIE2 equ 08Dh ;# 
# 1676 "C:\Program Files (x86)\Microchip\xc8\v1.33\include\pic16f877a.h"
PCON equ 08Eh ;# 
# 1709 "C:\Program Files (x86)\Microchip\xc8\v1.33\include\pic16f877a.h"
SSPCON2 equ 091h ;# 
# 1770 "C:\Program Files (x86)\Microchip\xc8\v1.33\include\pic16f877a.h"
PR2 equ 092h ;# 
# 1776 "C:\Program Files (x86)\Microchip\xc8\v1.33\include\pic16f877a.h"
SSPADD equ 093h ;# 
# 1782 "C:\Program Files (x86)\Microchip\xc8\v1.33\include\pic16f877a.h"
SSPSTAT equ 094h ;# 
# 1950 "C:\Program Files (x86)\Microchip\xc8\v1.33\include\pic16f877a.h"
TXSTA equ 098h ;# 
# 2030 "C:\Program Files (x86)\Microchip\xc8\v1.33\include\pic16f877a.h"
SPBRG equ 099h ;# 
# 2036 "C:\Program Files (x86)\Microchip\xc8\v1.33\include\pic16f877a.h"
CMCON equ 09Ch ;# 
# 2105 "C:\Program Files (x86)\Microchip\xc8\v1.33\include\pic16f877a.h"
CVRCON equ 09Dh ;# 
# 2169 "C:\Program Files (x86)\Microchip\xc8\v1.33\include\pic16f877a.h"
ADRESL equ 09Eh ;# 
# 2175 "C:\Program Files (x86)\Microchip\xc8\v1.33\include\pic16f877a.h"
ADCON1 equ 09Fh ;# 
# 2233 "C:\Program Files (x86)\Microchip\xc8\v1.33\include\pic16f877a.h"
EEDATA equ 010Ch ;# 
# 2239 "C:\Program Files (x86)\Microchip\xc8\v1.33\include\pic16f877a.h"
EEADR equ 010Dh ;# 
# 2245 "C:\Program Files (x86)\Microchip\xc8\v1.33\include\pic16f877a.h"
EEDATH equ 010Eh ;# 
# 2251 "C:\Program Files (x86)\Microchip\xc8\v1.33\include\pic16f877a.h"
EEADRH equ 010Fh ;# 
# 2257 "C:\Program Files (x86)\Microchip\xc8\v1.33\include\pic16f877a.h"
EECON1 equ 018Ch ;# 
# 2301 "C:\Program Files (x86)\Microchip\xc8\v1.33\include\pic16f877a.h"
EECON2 equ 018Dh ;# 
# 49 "C:\Program Files (x86)\Microchip\xc8\v1.33\include\pic16f877a.h"
INDF equ 00h ;# 
# 55 "C:\Program Files (x86)\Microchip\xc8\v1.33\include\pic16f877a.h"
TMR0 equ 01h ;# 
# 61 "C:\Program Files (x86)\Microchip\xc8\v1.33\include\pic16f877a.h"
PCL equ 02h ;# 
# 67 "C:\Program Files (x86)\Microchip\xc8\v1.33\include\pic16f877a.h"
STATUS equ 03h ;# 
# 154 "C:\Program Files (x86)\Microchip\xc8\v1.33\include\pic16f877a.h"
FSR equ 04h ;# 
# 160 "C:\Program Files (x86)\Microchip\xc8\v1.33\include\pic16f877a.h"
PORTA equ 05h ;# 
# 209 "C:\Program Files (x86)\Microchip\xc8\v1.33\include\pic16f877a.h"
PORTB equ 06h ;# 
# 270 "C:\Program Files (x86)\Microchip\xc8\v1.33\include\pic16f877a.h"
PORTC equ 07h ;# 
# 331 "C:\Program Files (x86)\Microchip\xc8\v1.33\include\pic16f877a.h"
PORTD equ 08h ;# 
# 392 "C:\Program Files (x86)\Microchip\xc8\v1.33\include\pic16f877a.h"
PORTE equ 09h ;# 
# 423 "C:\Program Files (x86)\Microchip\xc8\v1.33\include\pic16f877a.h"
PCLATH equ 0Ah ;# 
# 442 "C:\Program Files (x86)\Microchip\xc8\v1.33\include\pic16f877a.h"
INTCON equ 0Bh ;# 
# 519 "C:\Program Files (x86)\Microchip\xc8\v1.33\include\pic16f877a.h"
PIR1 equ 0Ch ;# 
# 580 "C:\Program Files (x86)\Microchip\xc8\v1.33\include\pic16f877a.h"
PIR2 equ 0Dh ;# 
# 619 "C:\Program Files (x86)\Microchip\xc8\v1.33\include\pic16f877a.h"
TMR1 equ 0Eh ;# 
# 625 "C:\Program Files (x86)\Microchip\xc8\v1.33\include\pic16f877a.h"
TMR1L equ 0Eh ;# 
# 631 "C:\Program Files (x86)\Microchip\xc8\v1.33\include\pic16f877a.h"
TMR1H equ 0Fh ;# 
# 637 "C:\Program Files (x86)\Microchip\xc8\v1.33\include\pic16f877a.h"
T1CON equ 010h ;# 
# 711 "C:\Program Files (x86)\Microchip\xc8\v1.33\include\pic16f877a.h"
TMR2 equ 011h ;# 
# 717 "C:\Program Files (x86)\Microchip\xc8\v1.33\include\pic16f877a.h"
T2CON equ 012h ;# 
# 787 "C:\Program Files (x86)\Microchip\xc8\v1.33\include\pic16f877a.h"
SSPBUF equ 013h ;# 
# 793 "C:\Program Files (x86)\Microchip\xc8\v1.33\include\pic16f877a.h"
SSPCON equ 014h ;# 
# 862 "C:\Program Files (x86)\Microchip\xc8\v1.33\include\pic16f877a.h"
CCPR1 equ 015h ;# 
# 868 "C:\Program Files (x86)\Microchip\xc8\v1.33\include\pic16f877a.h"
CCPR1L equ 015h ;# 
# 874 "C:\Program Files (x86)\Microchip\xc8\v1.33\include\pic16f877a.h"
CCPR1H equ 016h ;# 
# 880 "C:\Program Files (x86)\Microchip\xc8\v1.33\include\pic16f877a.h"
CCP1CON equ 017h ;# 
# 937 "C:\Program Files (x86)\Microchip\xc8\v1.33\include\pic16f877a.h"
RCSTA equ 018h ;# 
# 1031 "C:\Program Files (x86)\Microchip\xc8\v1.33\include\pic16f877a.h"
TXREG equ 019h ;# 
# 1037 "C:\Program Files (x86)\Microchip\xc8\v1.33\include\pic16f877a.h"
RCREG equ 01Ah ;# 
# 1043 "C:\Program Files (x86)\Microchip\xc8\v1.33\include\pic16f877a.h"
CCPR2 equ 01Bh ;# 
# 1049 "C:\Program Files (x86)\Microchip\xc8\v1.33\include\pic16f877a.h"
CCPR2L equ 01Bh ;# 
# 1055 "C:\Program Files (x86)\Microchip\xc8\v1.33\include\pic16f877a.h"
CCPR2H equ 01Ch ;# 
# 1061 "C:\Program Files (x86)\Microchip\xc8\v1.33\include\pic16f877a.h"
CCP2CON equ 01Dh ;# 
# 1118 "C:\Program Files (x86)\Microchip\xc8\v1.33\include\pic16f877a.h"
ADRESH equ 01Eh ;# 
# 1124 "C:\Program Files (x86)\Microchip\xc8\v1.33\include\pic16f877a.h"
ADCON0 equ 01Fh ;# 
# 1219 "C:\Program Files (x86)\Microchip\xc8\v1.33\include\pic16f877a.h"
OPTION_REG equ 081h ;# 
# 1288 "C:\Program Files (x86)\Microchip\xc8\v1.33\include\pic16f877a.h"
TRISA equ 085h ;# 
# 1337 "C:\Program Files (x86)\Microchip\xc8\v1.33\include\pic16f877a.h"
TRISB equ 086h ;# 
# 1398 "C:\Program Files (x86)\Microchip\xc8\v1.33\include\pic16f877a.h"
TRISC equ 087h ;# 
# 1459 "C:\Program Files (x86)\Microchip\xc8\v1.33\include\pic16f877a.h"
TRISD equ 088h ;# 
# 1520 "C:\Program Files (x86)\Microchip\xc8\v1.33\include\pic16f877a.h"
TRISE equ 089h ;# 
# 1576 "C:\Program Files (x86)\Microchip\xc8\v1.33\include\pic16f877a.h"
PIE1 equ 08Ch ;# 
# 1637 "C:\Program Files (x86)\Microchip\xc8\v1.33\include\pic16f877a.h"
PIE2 equ 08Dh ;# 
# 1676 "C:\Program Files (x86)\Microchip\xc8\v1.33\include\pic16f877a.h"
PCON equ 08Eh ;# 
# 1709 "C:\Program Files (x86)\Microchip\xc8\v1.33\include\pic16f877a.h"
SSPCON2 equ 091h ;# 
# 1770 "C:\Program Files (x86)\Microchip\xc8\v1.33\include\pic16f877a.h"
PR2 equ 092h ;# 
# 1776 "C:\Program Files (x86)\Microchip\xc8\v1.33\include\pic16f877a.h"
SSPADD equ 093h ;# 
# 1782 "C:\Program Files (x86)\Microchip\xc8\v1.33\include\pic16f877a.h"
SSPSTAT equ 094h ;# 
# 1950 "C:\Program Files (x86)\Microchip\xc8\v1.33\include\pic16f877a.h"
TXSTA equ 098h ;# 
# 2030 "C:\Program Files (x86)\Microchip\xc8\v1.33\include\pic16f877a.h"
SPBRG equ 099h ;# 
# 2036 "C:\Program Files (x86)\Microchip\xc8\v1.33\include\pic16f877a.h"
CMCON equ 09Ch ;# 
# 2105 "C:\Program Files (x86)\Microchip\xc8\v1.33\include\pic16f877a.h"
CVRCON equ 09Dh ;# 
# 2169 "C:\Program Files (x86)\Microchip\xc8\v1.33\include\pic16f877a.h"
ADRESL equ 09Eh ;# 
# 2175 "C:\Program Files (x86)\Microchip\xc8\v1.33\include\pic16f877a.h"
ADCON1 equ 09Fh ;# 
# 2233 "C:\Program Files (x86)\Microchip\xc8\v1.33\include\pic16f877a.h"
EEDATA equ 010Ch ;# 
# 2239 "C:\Program Files (x86)\Microchip\xc8\v1.33\include\pic16f877a.h"
EEADR equ 010Dh ;# 
# 2245 "C:\Program Files (x86)\Microchip\xc8\v1.33\include\pic16f877a.h"
EEDATH equ 010Eh ;# 
# 2251 "C:\Program Files (x86)\Microchip\xc8\v1.33\include\pic16f877a.h"
EEADRH equ 010Fh ;# 
# 2257 "C:\Program Files (x86)\Microchip\xc8\v1.33\include\pic16f877a.h"
EECON1 equ 018Ch ;# 
# 2301 "C:\Program Files (x86)\Microchip\xc8\v1.33\include\pic16f877a.h"
EECON2 equ 018Dh ;# 
# 49 "C:\Program Files (x86)\Microchip\xc8\v1.33\include\pic16f877a.h"
INDF equ 00h ;# 
# 55 "C:\Program Files (x86)\Microchip\xc8\v1.33\include\pic16f877a.h"
TMR0 equ 01h ;# 
# 61 "C:\Program Files (x86)\Microchip\xc8\v1.33\include\pic16f877a.h"
PCL equ 02h ;# 
# 67 "C:\Program Files (x86)\Microchip\xc8\v1.33\include\pic16f877a.h"
STATUS equ 03h ;# 
# 154 "C:\Program Files (x86)\Microchip\xc8\v1.33\include\pic16f877a.h"
FSR equ 04h ;# 
# 160 "C:\Program Files (x86)\Microchip\xc8\v1.33\include\pic16f877a.h"
PORTA equ 05h ;# 
# 209 "C:\Program Files (x86)\Microchip\xc8\v1.33\include\pic16f877a.h"
PORTB equ 06h ;# 
# 270 "C:\Program Files (x86)\Microchip\xc8\v1.33\include\pic16f877a.h"
PORTC equ 07h ;# 
# 331 "C:\Program Files (x86)\Microchip\xc8\v1.33\include\pic16f877a.h"
PORTD equ 08h ;# 
# 392 "C:\Program Files (x86)\Microchip\xc8\v1.33\include\pic16f877a.h"
PORTE equ 09h ;# 
# 423 "C:\Program Files (x86)\Microchip\xc8\v1.33\include\pic16f877a.h"
PCLATH equ 0Ah ;# 
# 442 "C:\Program Files (x86)\Microchip\xc8\v1.33\include\pic16f877a.h"
INTCON equ 0Bh ;# 
# 519 "C:\Program Files (x86)\Microchip\xc8\v1.33\include\pic16f877a.h"
PIR1 equ 0Ch ;# 
# 580 "C:\Program Files (x86)\Microchip\xc8\v1.33\include\pic16f877a.h"
PIR2 equ 0Dh ;# 
# 619 "C:\Program Files (x86)\Microchip\xc8\v1.33\include\pic16f877a.h"
TMR1 equ 0Eh ;# 
# 625 "C:\Program Files (x86)\Microchip\xc8\v1.33\include\pic16f877a.h"
TMR1L equ 0Eh ;# 
# 631 "C:\Program Files (x86)\Microchip\xc8\v1.33\include\pic16f877a.h"
TMR1H equ 0Fh ;# 
# 637 "C:\Program Files (x86)\Microchip\xc8\v1.33\include\pic16f877a.h"
T1CON equ 010h ;# 
# 711 "C:\Program Files (x86)\Microchip\xc8\v1.33\include\pic16f877a.h"
TMR2 equ 011h ;# 
# 717 "C:\Program Files (x86)\Microchip\xc8\v1.33\include\pic16f877a.h"
T2CON equ 012h ;# 
# 787 "C:\Program Files (x86)\Microchip\xc8\v1.33\include\pic16f877a.h"
SSPBUF equ 013h ;# 
# 793 "C:\Program Files (x86)\Microchip\xc8\v1.33\include\pic16f877a.h"
SSPCON equ 014h ;# 
# 862 "C:\Program Files (x86)\Microchip\xc8\v1.33\include\pic16f877a.h"
CCPR1 equ 015h ;# 
# 868 "C:\Program Files (x86)\Microchip\xc8\v1.33\include\pic16f877a.h"
CCPR1L equ 015h ;# 
# 874 "C:\Program Files (x86)\Microchip\xc8\v1.33\include\pic16f877a.h"
CCPR1H equ 016h ;# 
# 880 "C:\Program Files (x86)\Microchip\xc8\v1.33\include\pic16f877a.h"
CCP1CON equ 017h ;# 
# 937 "C:\Program Files (x86)\Microchip\xc8\v1.33\include\pic16f877a.h"
RCSTA equ 018h ;# 
# 1031 "C:\Program Files (x86)\Microchip\xc8\v1.33\include\pic16f877a.h"
TXREG equ 019h ;# 
# 1037 "C:\Program Files (x86)\Microchip\xc8\v1.33\include\pic16f877a.h"
RCREG equ 01Ah ;# 
# 1043 "C:\Program Files (x86)\Microchip\xc8\v1.33\include\pic16f877a.h"
CCPR2 equ 01Bh ;# 
# 1049 "C:\Program Files (x86)\Microchip\xc8\v1.33\include\pic16f877a.h"
CCPR2L equ 01Bh ;# 
# 1055 "C:\Program Files (x86)\Microchip\xc8\v1.33\include\pic16f877a.h"
CCPR2H equ 01Ch ;# 
# 1061 "C:\Program Files (x86)\Microchip\xc8\v1.33\include\pic16f877a.h"
CCP2CON equ 01Dh ;# 
# 1118 "C:\Program Files (x86)\Microchip\xc8\v1.33\include\pic16f877a.h"
ADRESH equ 01Eh ;# 
# 1124 "C:\Program Files (x86)\Microchip\xc8\v1.33\include\pic16f877a.h"
ADCON0 equ 01Fh ;# 
# 1219 "C:\Program Files (x86)\Microchip\xc8\v1.33\include\pic16f877a.h"
OPTION_REG equ 081h ;# 
# 1288 "C:\Program Files (x86)\Microchip\xc8\v1.33\include\pic16f877a.h"
TRISA equ 085h ;# 
# 1337 "C:\Program Files (x86)\Microchip\xc8\v1.33\include\pic16f877a.h"
TRISB equ 086h ;# 
# 1398 "C:\Program Files (x86)\Microchip\xc8\v1.33\include\pic16f877a.h"
TRISC equ 087h ;# 
# 1459 "C:\Program Files (x86)\Microchip\xc8\v1.33\include\pic16f877a.h"
TRISD equ 088h ;# 
# 1520 "C:\Program Files (x86)\Microchip\xc8\v1.33\include\pic16f877a.h"
TRISE equ 089h ;# 
# 1576 "C:\Program Files (x86)\Microchip\xc8\v1.33\include\pic16f877a.h"
PIE1 equ 08Ch ;# 
# 1637 "C:\Program Files (x86)\Microchip\xc8\v1.33\include\pic16f877a.h"
PIE2 equ 08Dh ;# 
# 1676 "C:\Program Files (x86)\Microchip\xc8\v1.33\include\pic16f877a.h"
PCON equ 08Eh ;# 
# 1709 "C:\Program Files (x86)\Microchip\xc8\v1.33\include\pic16f877a.h"
SSPCON2 equ 091h ;# 
# 1770 "C:\Program Files (x86)\Microchip\xc8\v1.33\include\pic16f877a.h"
PR2 equ 092h ;# 
# 1776 "C:\Program Files (x86)\Microchip\xc8\v1.33\include\pic16f877a.h"
SSPADD equ 093h ;# 
# 1782 "C:\Program Files (x86)\Microchip\xc8\v1.33\include\pic16f877a.h"
SSPSTAT equ 094h ;# 
# 1950 "C:\Program Files (x86)\Microchip\xc8\v1.33\include\pic16f877a.h"
TXSTA equ 098h ;# 
# 2030 "C:\Program Files (x86)\Microchip\xc8\v1.33\include\pic16f877a.h"
SPBRG equ 099h ;# 
# 2036 "C:\Program Files (x86)\Microchip\xc8\v1.33\include\pic16f877a.h"
CMCON equ 09Ch ;# 
# 2105 "C:\Program Files (x86)\Microchip\xc8\v1.33\include\pic16f877a.h"
CVRCON equ 09Dh ;# 
# 2169 "C:\Program Files (x86)\Microchip\xc8\v1.33\include\pic16f877a.h"
ADRESL equ 09Eh ;# 
# 2175 "C:\Program Files (x86)\Microchip\xc8\v1.33\include\pic16f877a.h"
ADCON1 equ 09Fh ;# 
# 2233 "C:\Program Files (x86)\Microchip\xc8\v1.33\include\pic16f877a.h"
EEDATA equ 010Ch ;# 
# 2239 "C:\Program Files (x86)\Microchip\xc8\v1.33\include\pic16f877a.h"
EEADR equ 010Dh ;# 
# 2245 "C:\Program Files (x86)\Microchip\xc8\v1.33\include\pic16f877a.h"
EEDATH equ 010Eh ;# 
# 2251 "C:\Program Files (x86)\Microchip\xc8\v1.33\include\pic16f877a.h"
EEADRH equ 010Fh ;# 
# 2257 "C:\Program Files (x86)\Microchip\xc8\v1.33\include\pic16f877a.h"
EECON1 equ 018Ch ;# 
# 2301 "C:\Program Files (x86)\Microchip\xc8\v1.33\include\pic16f877a.h"
EECON2 equ 018Dh ;# 
	FNCALL	_main,_ADC_Init
	FNCALL	_main,_LCD_Clear
	FNCALL	_main,_LCD_Cursor
	FNCALL	_main,_LCD_Init
	FNCALL	_main,_LCD_WriteString
	FNCALL	_main,_PWM_DutyCycle1
	FNCALL	_main,_PWM_DutyCycle2
	FNCALL	_main,_PWM_Init
	FNCALL	_main,_TIMER0_Init
	FNCALL	_main,_TIMER0_Set
	FNCALL	_main,_USART_Init
	FNCALL	_main,_USART_WriteString
	FNCALL	_main,_sprintf
	FNCALL	_sprintf,___lwdiv
	FNCALL	_sprintf,___lwmod
	FNCALL	_sprintf,___wmul
	FNCALL	_sprintf,_isdigit
	FNCALL	_USART_WriteString,_USART_WriteChar
	FNCALL	_USART_Init,___aldiv
	FNCALL	_LCD_WriteString,_LCD_WriteData
	FNCALL	_LCD_Init,_LCD_WriteCmd
	FNCALL	_LCD_Clear,_LCD_WriteCmd
	FNROOT	_main
	FNCALL	_ISR,_USART_ReceiveChar
	FNCALL	_ISR,i1_PWM_DutyCycle2
	FNCALL	_ISR,i1_TIMER0_Set
	FNCALL	_ISR,i1_USART_WriteString
	FNCALL	_ISR,i1___lwdiv
	FNCALL	_ISR,i1___wmul
	FNCALL	_USART_ReceiveChar,i1_USART_WriteString
	FNCALL	i1_USART_WriteString,i1_USART_WriteChar
	FNCALL	intlevel1,_ISR
	global	intlevel1
	FNROOT	intlevel1
	global	_pas_cooler
	global	_setpoint
	global	_tf
psect	idataBANK0,class=CODE,space=0,delta=2,noexec
global __pidataBANK0
__pidataBANK0:
	file	"C:\Users\Ninguem\Desktop\Trabalho Sistemas Inteligentes Cruzeiro\Retrab C no MPLAB\main.c"
	line	26

;initializer for _pas_cooler
	retlw	07h
	retlw	0

psect	idataBANK1,class=CODE,space=0,delta=2,noexec
global __pidataBANK1
__pidataBANK1:
	line	75

;initializer for _setpoint
	retlw	0x0
	retlw	0xa0
	retlw	0x41

	line	73

;initializer for _tf
	retlw	0x0
	retlw	0xa0
	retlw	0x41

	global	_dpowers
psect	stringtext,class=STRCODE,delta=2,reloc=256,noexec
global __pstringtext
__pstringtext:
stringtab:
	global    __stringtab
__stringtab:
;	String table - string pointers are 2 bytes each
	btfsc	(btemp+1),7
	ljmp	stringcode
	bcf	status,7
	btfsc	(btemp+1),0
	bsf	status,7
	movf	indf,w
	incf fsr
skipnz
incf btemp+1
	return
stringcode:
	movf btemp+1,w
andlw 7Fh
movwf	pclath
	movf	fsr,w
incf fsr
skipnz
incf btemp+1
	movwf pc
	global __stringbase
__stringbase:
	global    __end_of__stringtab
__end_of__stringtab:
	file	"C:\Program Files (x86)\Microchip\xc8\v1.33\sources\common\doprnt.c"
	line	354
_dpowers:
	retlw	01h
	retlw	0

	retlw	0Ah
	retlw	0

	retlw	064h
	retlw	0

	retlw	0E8h
	retlw	03h

	retlw	010h
	retlw	027h

	global __end_of_dpowers
__end_of_dpowers:
	global	_dpowers
	global	_ativa_fan
	global	_fitemp
	global	_fop_rule1
	global	_fop_rule2
	global	_fop_rule3
	global	_sum
	global	_temp
	global	_total_area
	global	_x
	global	_y
	global	_contagens_tm0
	global	_deltaV
	global	_pulsos
	global	_pwm
	global	_derro
	global	_fisetpoint
	global	_foTip
	global	_posicao_do_grafico
	global	_posicao_do_grafico_food
	global	_posicao_do_grafico_service
	global	_ADCResult
	global	_contador_rb6
	global	_rpm
	global	_status
	global	_temp_lida
	global	_tempo_rb6
	global	_display_pwm
	global	_display_rpm
	global	_TMR1
_TMR1	set	0xE
	global	_ADCON0bits
_ADCON0bits	set	0x1F
	global	_ADRESH
_ADRESH	set	0x1E
	global	_CCP1CON
_CCP1CON	set	0x17
	global	_CCP1CONbits
_CCP1CONbits	set	0x17
	global	_CCP2CON
_CCP2CON	set	0x1D
	global	_CCP2CONbits
_CCP2CONbits	set	0x1D
	global	_CCPR1L
_CCPR1L	set	0x15
	global	_CCPR2L
_CCPR2L	set	0x1B
	global	_INTCONbits
_INTCONbits	set	0xB
	global	_PIR1bits
_PIR1bits	set	0xC
	global	_PIR2bits
_PIR2bits	set	0xD
	global	_PORTA
_PORTA	set	0x5
	global	_PORTB
_PORTB	set	0x6
	global	_PORTBbits
_PORTBbits	set	0x6
	global	_PORTC
_PORTC	set	0x7
	global	_PORTD
_PORTD	set	0x8
	global	_PORTE
_PORTE	set	0x9
	global	_PORTEbits
_PORTEbits	set	0x9
	global	_RCREG
_RCREG	set	0x1A
	global	_RCSTAbits
_RCSTAbits	set	0x18
	global	_SSPBUF
_SSPBUF	set	0x13
	global	_SSPCONbits
_SSPCONbits	set	0x14
	global	_T1CON
_T1CON	set	0x10
	global	_T1CONbits
_T1CONbits	set	0x10
	global	_T2CONbits
_T2CONbits	set	0x12
	global	_TMR0
_TMR0	set	0x1
	global	_TMR1H
_TMR1H	set	0xF
	global	_TMR1L
_TMR1L	set	0xE
	global	_TXREG
_TXREG	set	0x19
	global	_OERR
_OERR	set	0xC1
	global	_ADCON1bits
_ADCON1bits	set	0x9F
	global	_ADRESL
_ADRESL	set	0x9E
	global	_OPTION_REGbits
_OPTION_REGbits	set	0x81
	global	_PIE1bits
_PIE1bits	set	0x8C
	global	_PIE2bits
_PIE2bits	set	0x8D
	global	_PR2
_PR2	set	0x92
	global	_SPBRG
_SPBRG	set	0x99
	global	_SSPADD
_SSPADD	set	0x93
	global	_SSPCON2
_SSPCON2	set	0x91
	global	_SSPCON2bits
_SSPCON2bits	set	0x91
	global	_SSPSTATbits
_SSPSTATbits	set	0x94
	global	_TRISA
_TRISA	set	0x85
	global	_TRISB
_TRISB	set	0x86
	global	_TRISC
_TRISC	set	0x87
	global	_TRISD
_TRISD	set	0x88
	global	_TRISE
_TRISE	set	0x89
	global	_TXSTAbits
_TXSTAbits	set	0x98
	global	_EEADR
_EEADR	set	0x10D
	global	_EEDATA
_EEDATA	set	0x10C
	global	_EECON1bits
_EECON1bits	set	0x18C
	global	_EECON2
_EECON2	set	0x18D
	global __stringdata
__stringdata:
	
STR_19:	
	retlw	10
	retlw	13
	retlw	32	;' '
	retlw	45	;'-'
	retlw	45	;'-'
	retlw	45	;'-'
	retlw	45	;'-'
	retlw	45	;'-'
	retlw	45	;'-'
	retlw	45	;'-'
	retlw	32	;' '
	retlw	69	;'E'
	retlw	83	;'S'
	retlw	84	;'T'
	retlw	79	;'O'
	retlw	85	;'U'
	retlw	82	;'R'
	retlw	79	;'O'
	retlw	32	;' '
	retlw	68	;'D'
	retlw	69	;'E'
	retlw	32	;' '
	retlw	80	;'P'
	retlw	73	;'I'
	retlw	76	;'L'
	retlw	72	;'H'
	retlw	65	;'A'
	retlw	32	;' '
	retlw	45	;'-'
	retlw	45	;'-'
	retlw	45	;'-'
	retlw	45	;'-'
	retlw	45	;'-'
	retlw	45	;'-'
	retlw	45	;'-'
	retlw	32	;' '
	retlw	10
	retlw	13
	retlw	32	;' '
	retlw	0
psect	stringtext
	
STR_11:	
	retlw	73	;'I'
	retlw	110	;'n'
	retlw	105	;'i'
	retlw	99	;'c'
	retlw	105	;'i'
	retlw	97	;'a'
	retlw	108	;'l'
	retlw	105	;'i'
	retlw	122	;'z'
	retlw	97	;'a'
	retlw	110	;'n'
	retlw	100	;'d'
	retlw	111	;'o'
	retlw	32	;' '
	retlw	111	;'o'
	retlw	32	;' '
	retlw	80	;'P'
	retlw	73	;'I'
	retlw	67	;'C'
	retlw	49	;'1'
	retlw	54	;'6'
	retlw	70	;'F'
	retlw	56	;'8'
	retlw	55	;'7'
	retlw	55	;'7'
	retlw	65	;'A'
	retlw	10
	retlw	13
	retlw	0
psect	stringtext
	
STR_12:	
	retlw	85	;'U'
	retlw	83	;'S'
	retlw	65	;'A'
	retlw	82	;'R'
	retlw	84	;'T'
	retlw	58	;':'
	retlw	32	;' '
	retlw	49	;'1'
	retlw	49	;'1'
	retlw	53	;'5'
	retlw	46	;'.'
	retlw	50	;'2'
	retlw	48	;'0'
	retlw	48	;'0'
	retlw	98	;'b'
	retlw	112	;'p'
	retlw	115	;'s'
	retlw	10
	retlw	13
	retlw	0
psect	stringtext
	
STR_13:	
	retlw	73	;'I'
	retlw	110	;'n'
	retlw	105	;'i'
	retlw	99	;'c'
	retlw	105	;'i'
	retlw	97	;'a'
	retlw	108	;'l'
	retlw	105	;'i'
	retlw	122	;'z'
	retlw	97	;'a'
	retlw	110	;'n'
	retlw	100	;'d'
	retlw	111	;'o'
	retlw	46	;'.'
	retlw	46	;'.'
	retlw	46	;'.'
	retlw	0
psect	stringtext
	
STR_9:	
	retlw	10
	retlw	13
	retlw	112	;'p'
	retlw	119	;'w'
	retlw	109	;'m'
	retlw	32	;' '
	retlw	61	;'='
	retlw	32	;' '
	retlw	49	;'1'
	retlw	48	;'0'
	retlw	48	;'0'
	retlw	48	;'0'
	retlw	10
	retlw	13
	retlw	0
psect	stringtext
	
STR_10:	
	retlw	10
	retlw	13
	retlw	112	;'p'
	retlw	119	;'w'
	retlw	109	;'m'
	retlw	32	;' '
	retlw	61	;'='
	retlw	32	;' '
	retlw	49	;'1'
	retlw	48	;'0'
	retlw	50	;'2'
	retlw	51	;'3'
	retlw	10
	retlw	13
	retlw	0
psect	stringtext
	
STR_6:	
	retlw	10
	retlw	13
	retlw	112	;'p'
	retlw	119	;'w'
	retlw	109	;'m'
	retlw	32	;' '
	retlw	61	;'='
	retlw	32	;' '
	retlw	53	;'5'
	retlw	49	;'1'
	retlw	50	;'2'
	retlw	10
	retlw	13
	retlw	0
psect	stringtext
	
STR_5:	
	retlw	10
	retlw	13
	retlw	112	;'p'
	retlw	119	;'w'
	retlw	109	;'m'
	retlw	32	;' '
	retlw	61	;'='
	retlw	32	;' '
	retlw	50	;'2'
	retlw	53	;'5'
	retlw	54	;'6'
	retlw	10
	retlw	13
	retlw	0
psect	stringtext
	
STR_8:	
	retlw	10
	retlw	13
	retlw	112	;'p'
	retlw	119	;'w'
	retlw	109	;'m'
	retlw	32	;' '
	retlw	61	;'='
	retlw	32	;' '
	retlw	56	;'8'
	retlw	57	;'9'
	retlw	54	;'6'
	retlw	10
	retlw	13
	retlw	0
psect	stringtext
	
STR_4:	
	retlw	10
	retlw	13
	retlw	112	;'p'
	retlw	119	;'w'
	retlw	109	;'m'
	retlw	32	;' '
	retlw	61	;'='
	retlw	32	;' '
	retlw	49	;'1'
	retlw	50	;'2'
	retlw	56	;'8'
	retlw	10
	retlw	13
	retlw	0
psect	stringtext
	
STR_7:	
	retlw	10
	retlw	13
	retlw	112	;'p'
	retlw	119	;'w'
	retlw	109	;'m'
	retlw	32	;' '
	retlw	61	;'='
	retlw	32	;' '
	retlw	55	;'7'
	retlw	54	;'6'
	retlw	56	;'8'
	retlw	10
	retlw	13
	retlw	0
psect	stringtext
	
STR_1:	
	retlw	10
	retlw	13
	retlw	100	;'d'
	retlw	101	;'e'
	retlw	115	;'s'
	retlw	108	;'l'
	retlw	105	;'i'
	retlw	103	;'g'
	retlw	97	;'a'
	retlw	100	;'d'
	retlw	111	;'o'
	retlw	10
	retlw	13
	retlw	0
psect	stringtext
	
STR_2:	
	retlw	10
	retlw	13
	retlw	112	;'p'
	retlw	119	;'w'
	retlw	109	;'m'
	retlw	32	;' '
	retlw	61	;'='
	retlw	32	;' '
	retlw	51	;'3'
	retlw	50	;'2'
	retlw	10
	retlw	13
	retlw	0
psect	stringtext
	
STR_3:	
	retlw	10
	retlw	13
	retlw	112	;'p'
	retlw	119	;'w'
	retlw	109	;'m'
	retlw	32	;' '
	retlw	61	;'='
	retlw	32	;' '
	retlw	54	;'6'
	retlw	52	;'4'
	retlw	10
	retlw	13
	retlw	0
psect	stringtext
	
STR_18:	
	retlw	80	;'P'
	retlw	87	;'W'
	retlw	77	;'M'
	retlw	58	;':'
	retlw	32	;' '
	retlw	0
psect	stringtext
	
STR_17:	
	retlw	68	;'D'
	retlw	108	;'l'
	retlw	86	;'V'
	retlw	58	;':'
	retlw	32	;' '
	retlw	0
psect	stringtext
	
STR_14:	
	retlw	37	;'%'
	retlw	48	;'0'
	retlw	52	;'4'
	retlw	100	;'d'
	retlw	0
psect	stringtext
STR_15	equ	STR_14+0
STR_16	equ	STR_9+12
	global __end_of__stringdata
__end_of__stringdata:
; #config settings
global __CFG_WDTE$OFF
__CFG_WDTE$OFF equ 0x0
global __CFG_PWRTE$ON
__CFG_PWRTE$ON equ 0x0
global __CFG_CP$OFF
__CFG_CP$OFF equ 0x0
global __CFG_BOREN$OFF
__CFG_BOREN$OFF equ 0x0
global __CFG_LVP$OFF
__CFG_LVP$OFF equ 0x0
global __CFG_CPD$OFF
__CFG_CPD$OFF equ 0x0
global __CFG_FOSC$HS
__CFG_FOSC$HS equ 0x0
	file	"PIC16F877A.as"
	line	#
psect cinit,class=CODE,delta=2
global start_initialization
start_initialization:

global __initialization
__initialization:
psect	bssBANK0,class=BANK0,space=1,noexec
global __pbssBANK0
__pbssBANK0:
_ativa_fan:
       ds      3

_fitemp:
       ds      3

_fop_rule1:
       ds      3

_fop_rule2:
       ds      3

_fop_rule3:
       ds      3

_sum:
       ds      3

_temp:
       ds      3

_total_area:
       ds      3

_x:
       ds      3

_y:
       ds      3

_contagens_tm0:
       ds      2

_deltaV:
       ds      2

_pulsos:
       ds      2

_pwm:
       ds      2

psect	dataBANK0,class=BANK0,space=1,noexec
global __pdataBANK0
__pdataBANK0:
	file	"C:\Users\Ninguem\Desktop\Trabalho Sistemas Inteligentes Cruzeiro\Retrab C no MPLAB\main.c"
	line	26
_pas_cooler:
       ds      2

psect	bssBANK1,class=BANK1,space=1,noexec
global __pbssBANK1
__pbssBANK1:
_derro:
       ds      3

_fisetpoint:
       ds      3

_foTip:
       ds      3

_posicao_do_grafico:
       ds      3

_posicao_do_grafico_food:
       ds      3

_posicao_do_grafico_service:
       ds      3

_ADCResult:
       ds      2

_contador_rb6:
       ds      2

_rpm:
       ds      2

_status:
       ds      2

_temp_lida:
       ds      2

_tempo_rb6:
       ds      2

_display_pwm:
       ds      10

_display_rpm:
       ds      10

psect	dataBANK1,class=BANK1,space=1,noexec
global __pdataBANK1
__pdataBANK1:
	file	"C:\Users\Ninguem\Desktop\Trabalho Sistemas Inteligentes Cruzeiro\Retrab C no MPLAB\main.c"
	line	75
_setpoint:
       ds      3

psect	dataBANK1
	file	"C:\Users\Ninguem\Desktop\Trabalho Sistemas Inteligentes Cruzeiro\Retrab C no MPLAB\main.c"
	line	73
_tf:
       ds      3

	file	"PIC16F877A.as"
	line	#
psect clrtext,class=CODE,delta=2
global clear_ram0
;	Called with FSR containing the base address, and
;	W with the last address+1
clear_ram0:
	clrwdt			;clear the watchdog before getting into this loop
clrloop0:
	clrf	indf		;clear RAM location pointed to by FSR
	incf	fsr,f		;increment pointer
	xorwf	fsr,w		;XOR with final address
	btfsc	status,2	;have we reached the end yet?
	retlw	0		;all done for this memory range, return
	xorwf	fsr,w		;XOR again to restore value
	goto	clrloop0		;do the next byte

; Clear objects allocated to BANK0
psect cinit,class=CODE,delta=2,merge=1
	bcf	status, 7	;select IRP bank0
	movlw	low(__pbssBANK0)
	movwf	fsr
	movlw	low((__pbssBANK0)+026h)
	fcall	clear_ram0
; Clear objects allocated to BANK1
psect cinit,class=CODE,delta=2,merge=1
	movlw	low(__pbssBANK1)
	movwf	fsr
	movlw	low((__pbssBANK1)+032h)
	fcall	clear_ram0
	line	#
; Initialize objects allocated to BANK1
	global __pidataBANK1
psect cinit,class=CODE,delta=2,merge=1
	bsf	status, 5	;RP0=1, select bank1
	bcf	status, 6	;RP1=0, select bank1
	fcall	__pidataBANK1+0		;fetch initializer
	movwf	__pdataBANK1+0&07fh		
	fcall	__pidataBANK1+1		;fetch initializer
	movwf	__pdataBANK1+1&07fh		
	fcall	__pidataBANK1+2		;fetch initializer
	movwf	__pdataBANK1+2&07fh		
	fcall	__pidataBANK1+3		;fetch initializer
	movwf	__pdataBANK1+3&07fh		
	fcall	__pidataBANK1+4		;fetch initializer
	movwf	__pdataBANK1+4&07fh		
	fcall	__pidataBANK1+5		;fetch initializer
	movwf	__pdataBANK1+5&07fh		
; Initialize objects allocated to BANK0
	global __pidataBANK0
psect cinit,class=CODE,delta=2,merge=1
	bcf	status, 5	;RP0=0, select bank0
	bcf	status, 6	;RP1=0, select bank0
	fcall	__pidataBANK0+0		;fetch initializer
	movwf	__pdataBANK0+0&07fh		
	fcall	__pidataBANK0+1		;fetch initializer
	movwf	__pdataBANK0+1&07fh		
psect cinit,class=CODE,delta=2,merge=1
global end_of_initialization,__end_of__initialization

;End of C runtime variable initialization code

end_of_initialization:
__end_of__initialization:clrf status
ljmp _main	;jump to C main() function
psect	cstackBANK1,class=BANK1,space=1,noexec
global __pcstackBANK1
__pcstackBANK1:
??_main:	; 0 bytes @ 0x0
	ds	3
psect	cstackCOMMON,class=COMMON,space=1,noexec
global __pcstackCOMMON
__pcstackCOMMON:
?_TIMER0_Set:	; 0 bytes @ 0x0
?_TIMER0_Init:	; 0 bytes @ 0x0
?_ADC_Init:	; 0 bytes @ 0x0
?_PWM_Init:	; 0 bytes @ 0x0
?_LCD_Init:	; 0 bytes @ 0x0
?_LCD_Clear:	; 0 bytes @ 0x0
?_isdigit:	; 1 bit 
?_ISR:	; 0 bytes @ 0x0
?_main:	; 0 bytes @ 0x0
?_USART_WriteChar:	; 0 bytes @ 0x0
?_LCD_WriteCmd:	; 0 bytes @ 0x0
?_LCD_WriteData:	; 0 bytes @ 0x0
?i1_USART_WriteChar:	; 0 bytes @ 0x0
??i1_USART_WriteChar:	; 0 bytes @ 0x0
?i1_TIMER0_Set:	; 0 bytes @ 0x0
??i1_TIMER0_Set:	; 0 bytes @ 0x0
?i1_PWM_DutyCycle2:	; 0 bytes @ 0x0
?_USART_ReceiveChar:	; 1 bytes @ 0x0
	global	?i1___lwdiv
?i1___lwdiv:	; 2 bytes @ 0x0
	global	i1USART_WriteChar@byte
i1USART_WriteChar@byte:	; 1 bytes @ 0x0
	global	i1TIMER0_Set@contagens
i1TIMER0_Set@contagens:	; 1 bytes @ 0x0
	global	i1PWM_DutyCycle2@valor
i1PWM_DutyCycle2@valor:	; 2 bytes @ 0x0
	global	i1___lwdiv@divisor
i1___lwdiv@divisor:	; 2 bytes @ 0x0
	ds	1
?i1_USART_WriteString:	; 0 bytes @ 0x1
	global	i1USART_WriteString@str
i1USART_WriteString@str:	; 2 bytes @ 0x1
	ds	1
??i1_PWM_DutyCycle2:	; 0 bytes @ 0x2
	global	i1___lwdiv@dividend
i1___lwdiv@dividend:	; 2 bytes @ 0x2
	ds	1
??_USART_ReceiveChar:	; 0 bytes @ 0x3
??i1_USART_WriteString:	; 0 bytes @ 0x3
	ds	1
??i1___lwdiv:	; 0 bytes @ 0x4
	global	USART_ReceiveChar@byte
USART_ReceiveChar@byte:	; 1 bytes @ 0x4
	ds	1
	global	i1___lwdiv@quotient
i1___lwdiv@quotient:	; 2 bytes @ 0x5
	ds	2
	global	i1___lwdiv@counter
i1___lwdiv@counter:	; 1 bytes @ 0x7
	ds	1
	global	?i1___wmul
?i1___wmul:	; 2 bytes @ 0x8
	global	i1___wmul@multiplier
i1___wmul@multiplier:	; 2 bytes @ 0x8
	ds	2
	global	i1___wmul@multiplicand
i1___wmul@multiplicand:	; 2 bytes @ 0xA
	ds	2
??i1___wmul:	; 0 bytes @ 0xC
	global	i1___wmul@product
i1___wmul@product:	; 2 bytes @ 0xC
	ds	2
psect	cstackBANK0,class=BANK0,space=1,noexec
global __pcstackBANK0
__pcstackBANK0:
??_ISR:	; 0 bytes @ 0x0
	ds	4
?_PWM_DutyCycle2:	; 0 bytes @ 0x4
??_TIMER0_Set:	; 0 bytes @ 0x4
??_TIMER0_Init:	; 0 bytes @ 0x4
??_ADC_Init:	; 0 bytes @ 0x4
??_PWM_Init:	; 0 bytes @ 0x4
?_LCD_Cursor:	; 0 bytes @ 0x4
?_PWM_DutyCycle1:	; 0 bytes @ 0x4
??_isdigit:	; 0 bytes @ 0x4
??_USART_WriteChar:	; 0 bytes @ 0x4
??_LCD_WriteCmd:	; 0 bytes @ 0x4
??_LCD_WriteData:	; 0 bytes @ 0x4
	global	?___wmul
?___wmul:	; 2 bytes @ 0x4
	global	?___lwdiv
?___lwdiv:	; 2 bytes @ 0x4
	global	?___aldiv
?___aldiv:	; 4 bytes @ 0x4
	global	USART_WriteChar@byte
USART_WriteChar@byte:	; 1 bytes @ 0x4
	global	TIMER0_Set@contagens
TIMER0_Set@contagens:	; 1 bytes @ 0x4
	global	LCD_Cursor@Col
LCD_Cursor@Col:	; 1 bytes @ 0x4
	global	_isdigit$1455
_isdigit$1455:	; 1 bytes @ 0x4
	global	PWM_DutyCycle1@valor
PWM_DutyCycle1@valor:	; 2 bytes @ 0x4
	global	PWM_DutyCycle2@valor
PWM_DutyCycle2@valor:	; 2 bytes @ 0x4
	global	___wmul@multiplier
___wmul@multiplier:	; 2 bytes @ 0x4
	global	___lwdiv@divisor
___lwdiv@divisor:	; 2 bytes @ 0x4
	global	___aldiv@divisor
___aldiv@divisor:	; 4 bytes @ 0x4
	ds	1
?_USART_WriteString:	; 0 bytes @ 0x5
??_LCD_Cursor:	; 0 bytes @ 0x5
	global	LCD_WriteCmd@Byte
LCD_WriteCmd@Byte:	; 1 bytes @ 0x5
	global	LCD_WriteData@Byte
LCD_WriteData@Byte:	; 1 bytes @ 0x5
	global	isdigit@c
isdigit@c:	; 1 bytes @ 0x5
	global	USART_WriteString@str
USART_WriteString@str:	; 2 bytes @ 0x5
	ds	1
??_PWM_DutyCycle2:	; 0 bytes @ 0x6
??_LCD_Init:	; 0 bytes @ 0x6
?_LCD_WriteString:	; 0 bytes @ 0x6
??_PWM_DutyCycle1:	; 0 bytes @ 0x6
??_LCD_Clear:	; 0 bytes @ 0x6
	global	LCD_Cursor@Row
LCD_Cursor@Row:	; 1 bytes @ 0x6
	global	LCD_WriteString@Str
LCD_WriteString@Str:	; 2 bytes @ 0x6
	global	___wmul@multiplicand
___wmul@multiplicand:	; 2 bytes @ 0x6
	global	___lwdiv@dividend
___lwdiv@dividend:	; 2 bytes @ 0x6
	ds	1
??_USART_WriteString:	; 0 bytes @ 0x7
	ds	1
??_LCD_WriteString:	; 0 bytes @ 0x8
??___wmul:	; 0 bytes @ 0x8
??___lwdiv:	; 0 bytes @ 0x8
	global	___wmul@product
___wmul@product:	; 2 bytes @ 0x8
	global	___aldiv@dividend
___aldiv@dividend:	; 4 bytes @ 0x8
	ds	1
	global	___lwdiv@quotient
___lwdiv@quotient:	; 2 bytes @ 0x9
	ds	2
	global	___lwdiv@counter
___lwdiv@counter:	; 1 bytes @ 0xB
	ds	1
??___aldiv:	; 0 bytes @ 0xC
	global	?___lwmod
?___lwmod:	; 2 bytes @ 0xC
	global	___lwmod@divisor
___lwmod@divisor:	; 2 bytes @ 0xC
	ds	1
	global	___aldiv@counter
___aldiv@counter:	; 1 bytes @ 0xD
	ds	1
	global	___aldiv@sign
___aldiv@sign:	; 1 bytes @ 0xE
	global	___lwmod@dividend
___lwmod@dividend:	; 2 bytes @ 0xE
	ds	1
	global	___aldiv@quotient
___aldiv@quotient:	; 4 bytes @ 0xF
	ds	1
??___lwmod:	; 0 bytes @ 0x10
	ds	1
	global	___lwmod@counter
___lwmod@counter:	; 1 bytes @ 0x11
	ds	1
	global	?_sprintf
?_sprintf:	; 2 bytes @ 0x12
	global	sprintf@f
sprintf@f:	; 2 bytes @ 0x12
	ds	1
?_USART_Init:	; 0 bytes @ 0x13
	global	USART_Init@BaudRate
USART_Init@BaudRate:	; 4 bytes @ 0x13
	ds	3
??_sprintf:	; 0 bytes @ 0x16
	ds	1
??_USART_Init:	; 0 bytes @ 0x17
	ds	2
	global	sprintf@ap
sprintf@ap:	; 1 bytes @ 0x19
	ds	1
	global	sprintf@prec
sprintf@prec:	; 1 bytes @ 0x1A
	ds	1
	global	sprintf@_val
sprintf@_val:	; 4 bytes @ 0x1B
	ds	4
	global	sprintf@flag
sprintf@flag:	; 1 bytes @ 0x1F
	ds	1
	global	sprintf@width
sprintf@width:	; 2 bytes @ 0x20
	ds	2
	global	sprintf@sp
sprintf@sp:	; 1 bytes @ 0x22
	ds	1
	global	sprintf@c
sprintf@c:	; 1 bytes @ 0x23
	ds	1
;!
;!Data Sizes:
;!    Strings     263
;!    Constant    10
;!    Data        8
;!    BSS         88
;!    Persistent  0
;!    Stack       0
;!
;!Auto Spaces:
;!    Space          Size  Autos    Used
;!    COMMON           14     14      14
;!    BANK0            80     36      76
;!    BANK1            80      3      59
;!    BANK3            96      0       0
;!    BANK2            96      0       0

;!
;!Pointer List with Targets:
;!
;!    sprintf@f	PTR const unsigned char  size(2) Largest target is 5
;!		 -> STR_15(CODE[5]), STR_14(CODE[5]), 
;!
;!    sprintf@sp	PTR unsigned char  size(1) Largest target is 10
;!		 -> display_pwm(BANK1[10]), display_rpm(BANK1[10]), 
;!
;!    sprintf@ap	PTR void [1] size(1) Largest target is 2
;!		 -> ?_sprintf(BANK0[2]), 
;!
;!    S1259$_cp	PTR const unsigned char  size(1) Largest target is 0
;!
;!    _val._str._cp	PTR const unsigned char  size(1) Largest target is 0
;!
;!    LCD_WriteString@Str	PTR const unsigned char  size(2) Largest target is 17
;!		 -> STR_18(CODE[6]), STR_17(CODE[6]), display_pwm(BANK1[10]), display_rpm(BANK1[10]), 
;!		 -> STR_13(CODE[17]), 
;!
;!    USART_WriteString@str	PTR const unsigned char  size(2) Largest target is 40
;!		 -> STR_19(CODE[40]), STR_16(CODE[3]), display_rpm(BANK1[10]), STR_12(CODE[20]), 
;!		 -> STR_11(CODE[29]), STR_10(CODE[15]), STR_9(CODE[15]), STR_8(CODE[14]), 
;!		 -> STR_7(CODE[14]), STR_6(CODE[14]), STR_5(CODE[14]), STR_4(CODE[14]), 
;!		 -> STR_3(CODE[13]), STR_2(CODE[13]), STR_1(CODE[14]), 
;!


;!
;!Critical Paths under _main in COMMON
;!
;!    None.
;!
;!Critical Paths under _ISR in COMMON
;!
;!    _ISR->i1___wmul
;!    i1___wmul->i1___lwdiv
;!    _USART_ReceiveChar->i1_USART_WriteString
;!    i1_USART_WriteString->i1_USART_WriteChar
;!
;!Critical Paths under _main in BANK0
;!
;!    _main->_sprintf
;!    _sprintf->___lwmod
;!    ___lwmod->___lwdiv
;!    _USART_WriteString->_USART_WriteChar
;!    _USART_Init->___aldiv
;!    _LCD_WriteString->_LCD_WriteData
;!    _LCD_Init->_LCD_WriteCmd
;!    _LCD_Clear->_LCD_WriteCmd
;!
;!Critical Paths under _ISR in BANK0
;!
;!    None.
;!
;!Critical Paths under _main in BANK1
;!
;!    None.
;!
;!Critical Paths under _ISR in BANK1
;!
;!    None.
;!
;!Critical Paths under _main in BANK3
;!
;!    None.
;!
;!Critical Paths under _ISR in BANK3
;!
;!    None.
;!
;!Critical Paths under _main in BANK2
;!
;!    None.
;!
;!Critical Paths under _ISR in BANK2
;!
;!    None.

;;
;;Main: autosize = 0, tempsize = 3, incstack = 0, save=0
;;

;!
;!Call Graph Tables:
;!
;! ---------------------------------------------------------------------------------
;! (Depth) Function   	        Calls       Base Space   Used Autos Params    Refs
;! ---------------------------------------------------------------------------------
;! (0) _main                                                 3     3      0    4579
;!                                              0 BANK1      3     3      0
;!                           _ADC_Init
;!                          _LCD_Clear
;!                         _LCD_Cursor
;!                           _LCD_Init
;!                    _LCD_WriteString
;!                     _PWM_DutyCycle1
;!                     _PWM_DutyCycle2
;!                           _PWM_Init
;!                        _TIMER0_Init
;!                         _TIMER0_Set
;!                         _USART_Init
;!                  _USART_WriteString
;!                            _sprintf
;! ---------------------------------------------------------------------------------
;! (1) _sprintf                                             18    14      4    2129
;!                                             18 BANK0     18    14      4
;!                            ___lwdiv
;!                            ___lwmod
;!                             ___wmul
;!                            _isdigit
;! ---------------------------------------------------------------------------------
;! (2) _isdigit                                              2     2      0      68
;!                                              4 BANK0      2     2      0
;! ---------------------------------------------------------------------------------
;! (2) ___wmul                                               6     2      4     296
;!                                              4 BANK0      6     2      4
;! ---------------------------------------------------------------------------------
;! (2) ___lwmod                                              6     2      4     287
;!                                             12 BANK0      6     2      4
;!                            ___lwdiv (ARG)
;! ---------------------------------------------------------------------------------
;! (2) ___lwdiv                                              8     4      4     366
;!                                              4 BANK0      8     4      4
;! ---------------------------------------------------------------------------------
;! (1) _USART_WriteString                                    2     0      2     741
;!                                              5 BANK0      2     0      2
;!                    _USART_WriteChar
;! ---------------------------------------------------------------------------------
;! (2) _USART_WriteChar                                      1     1      0      22
;!                                              4 BANK0      1     1      0
;! ---------------------------------------------------------------------------------
;! (1) _USART_Init                                           8     4      4     514
;!                                             19 BANK0      8     4      4
;!                            ___aldiv
;! ---------------------------------------------------------------------------------
;! (2) ___aldiv                                             15     7      8     428
;!                                              4 BANK0     15     7      8
;! ---------------------------------------------------------------------------------
;! (1) _TIMER0_Set                                           1     1      0      22
;!                                              4 BANK0      1     1      0
;! ---------------------------------------------------------------------------------
;! (1) _TIMER0_Init                                          0     0      0       0
;! ---------------------------------------------------------------------------------
;! (1) _PWM_Init                                             0     0      0       0
;! ---------------------------------------------------------------------------------
;! (1) _PWM_DutyCycle2                                       4     2      2     248
;!                                              4 BANK0      4     2      2
;! ---------------------------------------------------------------------------------
;! (1) _PWM_DutyCycle1                                       4     2      2     108
;!                                              4 BANK0      4     2      2
;! ---------------------------------------------------------------------------------
;! (1) _LCD_WriteString                                      2     0      2     387
;!                                              6 BANK0      2     0      2
;!                      _LCD_WriteData
;! ---------------------------------------------------------------------------------
;! (2) _LCD_WriteData                                        2     2      0      22
;!                                              4 BANK0      2     2      0
;! ---------------------------------------------------------------------------------
;! (1) _LCD_Init                                             2     2      0      22
;!                                              6 BANK0      2     2      0
;!                       _LCD_WriteCmd
;! ---------------------------------------------------------------------------------
;! (1) _LCD_Cursor                                           3     2      1     386
;!                                              4 BANK0      3     2      1
;! ---------------------------------------------------------------------------------
;! (1) _LCD_Clear                                            2     2      0      22
;!                                              6 BANK0      2     2      0
;!                       _LCD_WriteCmd
;! ---------------------------------------------------------------------------------
;! (2) _LCD_WriteCmd                                         2     2      0      22
;!                                              4 BANK0      2     2      0
;! ---------------------------------------------------------------------------------
;! (1) _ADC_Init                                             0     0      0       0
;! ---------------------------------------------------------------------------------
;! Estimated maximum stack depth 2
;! ---------------------------------------------------------------------------------
;! (Depth) Function   	        Calls       Base Space   Used Autos Params    Refs
;! ---------------------------------------------------------------------------------
;! (3) _ISR                                                  4     4      0    1206
;!                                              0 BANK0      4     4      0
;!                  _USART_ReceiveChar
;!                   i1_PWM_DutyCycle2
;!                       i1_TIMER0_Set
;!                i1_USART_WriteString
;!                          i1___lwdiv
;!                           i1___wmul
;! ---------------------------------------------------------------------------------
;! (4) i1___wmul                                             6     2      4     144
;!                                              8 COMMON     6     2      4
;!                          i1___lwdiv (ARG)
;! ---------------------------------------------------------------------------------
;! (4) i1___lwdiv                                            8     4      4     214
;!                                              0 COMMON     8     4      4
;! ---------------------------------------------------------------------------------
;! (4) i1_TIMER0_Set                                         1     1      0      22
;!                                              0 COMMON     1     1      0
;! ---------------------------------------------------------------------------------
;! (4) i1_PWM_DutyCycle2                                     4     2      2      96
;!                                              0 COMMON     4     2      2
;! ---------------------------------------------------------------------------------
;! (4) _USART_ReceiveChar                                    2     2      0     377
;!                                              3 COMMON     2     2      0
;!                i1_USART_WriteString
;! ---------------------------------------------------------------------------------
;! (4) i1_USART_WriteString                                  2     0      2     353
;!                                              1 COMMON     2     0      2
;!                  i1_USART_WriteChar
;! ---------------------------------------------------------------------------------
;! (5) i1_USART_WriteChar                                    1     1      0      22
;!                                              0 COMMON     1     1      0
;! ---------------------------------------------------------------------------------
;! Estimated maximum stack depth 5
;! ---------------------------------------------------------------------------------
;!
;! Call Graph Graphs:
;!
;! _main (ROOT)
;!   _ADC_Init
;!   _LCD_Clear
;!     _LCD_WriteCmd
;!   _LCD_Cursor
;!   _LCD_Init
;!     _LCD_WriteCmd
;!   _LCD_WriteString
;!     _LCD_WriteData
;!   _PWM_DutyCycle1
;!   _PWM_DutyCycle2
;!   _PWM_Init
;!   _TIMER0_Init
;!   _TIMER0_Set
;!   _USART_Init
;!     ___aldiv
;!   _USART_WriteString
;!     _USART_WriteChar
;!   _sprintf
;!     ___lwdiv
;!     ___lwmod
;!       ___lwdiv (ARG)
;!     ___wmul
;!     _isdigit
;!
;! _ISR (ROOT)
;!   _USART_ReceiveChar
;!     i1_USART_WriteString
;!       i1_USART_WriteChar
;!   i1_PWM_DutyCycle2
;!   i1_TIMER0_Set
;!   i1_USART_WriteString
;!     i1_USART_WriteChar
;!   i1___lwdiv
;!   i1___wmul
;!     i1___lwdiv (ARG)
;!

;! Address spaces:

;!Name               Size   Autos  Total    Cost      Usage
;!BANK3               60      0       0       9        0.0%
;!BITBANK3            60      0       0       8        0.0%
;!SFR3                 0      0       0       4        0.0%
;!BITSFR3              0      0       0       4        0.0%
;!BANK2               60      0       0      11        0.0%
;!BITBANK2            60      0       0      10        0.0%
;!SFR2                 0      0       0       5        0.0%
;!BITSFR2              0      0       0       5        0.0%
;!BANK1               50      3      3B       7       73.8%
;!BITBANK1            50      0       0       6        0.0%
;!SFR1                 0      0       0       2        0.0%
;!BITSFR1              0      0       0       2        0.0%
;!BANK0               50     24      4C       5       95.0%
;!BITBANK0            50      0       0       4        0.0%
;!SFR0                 0      0       0       1        0.0%
;!BITSFR0              0      0       0       1        0.0%
;!COMMON               E      E       E       1      100.0%
;!BITCOMMON            E      0       0       0        0.0%
;!CODE                 0      0       0       0        0.0%
;!DATA                 0      0      95      12        0.0%
;!ABS                  0      0      95       3        0.0%
;!NULL                 0      0       0       0        0.0%
;!STACK                0      0       0       2        0.0%
;!EEDATA             100      0       0       0        0.0%

	global	_main

;; *************** function _main *****************
;; Defined at:
;;		line 522 in file "C:\Users\Ninguem\Desktop\Trabalho Sistemas Inteligentes Cruzeiro\Retrab C no MPLAB\main.c"
;; Parameters:    Size  Location     Type
;;		None
;; Auto vars:     Size  Location     Type
;;		None
;; Return value:  Size  Location     Type
;;		None               void
;; Registers used:
;;		wreg, fsr0l, fsr0h, status,2, status,0, btemp+1, pclath, cstack
;; Tracked objects:
;;		On entry : 17F/0
;;		On exit  : 0/0
;;		Unchanged: 0/0
;; Data sizes:     COMMON   BANK0   BANK1   BANK3   BANK2
;;      Params:         0       0       0       0       0
;;      Locals:         0       0       0       0       0
;;      Temps:          0       0       3       0       0
;;      Totals:         0       0       3       0       0
;;Total ram usage:        3 bytes
;; Hardware stack levels required when called:    6
;; This function calls:
;;		_ADC_Init
;;		_LCD_Clear
;;		_LCD_Cursor
;;		_LCD_Init
;;		_LCD_WriteString
;;		_PWM_DutyCycle1
;;		_PWM_DutyCycle2
;;		_PWM_Init
;;		_TIMER0_Init
;;		_TIMER0_Set
;;		_USART_Init
;;		_USART_WriteString
;;		_sprintf
;; This function is called by:
;;		Startup code after reset
;; This function uses a non-reentrant model
;;
psect	maintext,global,class=CODE,delta=2,split=1
	file	"C:\Users\Ninguem\Desktop\Trabalho Sistemas Inteligentes Cruzeiro\Retrab C no MPLAB\main.c"
	line	522
global __pmaintext
__pmaintext:	;psect for function _main
psect	maintext
	file	"C:\Users\Ninguem\Desktop\Trabalho Sistemas Inteligentes Cruzeiro\Retrab C no MPLAB\main.c"
	line	522
	global	__size_of_main
	__size_of_main	equ	__end_of_main-_main
	
_main:	
;incstack = 0
	opt	stack 2
; Regs used in _main: [wreg-fsr0h+status,2+status,0+btemp+1+pclath+cstack]
	line	524
	
l3124:	
;main.c: 524: TRISA = 0b00000001;
	movlw	(01h)
	bsf	status, 5	;RP0=1, select bank1
	bcf	status, 6	;RP1=0, select bank1
	movwf	(133)^080h	;volatile
	line	525
;main.c: 525: PORTA = 0b00000001;
	movlw	(01h)
	bcf	status, 5	;RP0=0, select bank0
	bcf	status, 6	;RP1=0, select bank0
	movwf	(5)	;volatile
	line	526
	
l3126:	
;main.c: 526: TRISB = 0b00000000;
	bsf	status, 5	;RP0=1, select bank1
	bcf	status, 6	;RP1=0, select bank1
	clrf	(134)^080h	;volatile
	line	527
	
l3128:	
;main.c: 527: PORTB = 0b00000000;
	bcf	status, 5	;RP0=0, select bank0
	bcf	status, 6	;RP1=0, select bank0
	clrf	(6)	;volatile
	line	528
;main.c: 528: TRISC = 0b10000001;
	movlw	(081h)
	bsf	status, 5	;RP0=1, select bank1
	bcf	status, 6	;RP1=0, select bank1
	movwf	(135)^080h	;volatile
	line	529
;main.c: 529: PORTC = 0b11000000;
	movlw	(0C0h)
	bcf	status, 5	;RP0=0, select bank0
	bcf	status, 6	;RP1=0, select bank0
	movwf	(7)	;volatile
	line	530
	
l3130:	
;main.c: 530: TRISD = 0b00000000;
	bsf	status, 5	;RP0=1, select bank1
	bcf	status, 6	;RP1=0, select bank1
	clrf	(136)^080h	;volatile
	line	531
	
l3132:	
;main.c: 531: PORTD = 0b00000000;
	bcf	status, 5	;RP0=0, select bank0
	bcf	status, 6	;RP1=0, select bank0
	clrf	(8)	;volatile
	line	532
	
l3134:	
;main.c: 532: TRISE = 0b00000000;
	bsf	status, 5	;RP0=1, select bank1
	bcf	status, 6	;RP1=0, select bank1
	clrf	(137)^080h	;volatile
	line	533
	
l3136:	
;main.c: 533: PORTE = 0b00000000;
	bcf	status, 5	;RP0=0, select bank0
	bcf	status, 6	;RP1=0, select bank0
	clrf	(9)	;volatile
	line	536
;main.c: 536: T1CON = 0x03;
	movlw	(03h)
	movwf	(16)	;volatile
	line	537
	
l3138:	
;main.c: 537: TMR1L = 0x00;
	clrf	(14)	;volatile
	line	538
	
l3140:	
;main.c: 538: TMR1H = 0x00;
	clrf	(15)	;volatile
	line	541
	
l3142:	
;main.c: 541: USART_Init(115200);
	movlw	0
	movwf	(USART_Init@BaudRate+3)
	movlw	01h
	movwf	(USART_Init@BaudRate+2)
	movlw	0C2h
	movwf	(USART_Init@BaudRate+1)
	movlw	0
	movwf	(USART_Init@BaudRate)

	fcall	_USART_Init
	line	542
;main.c: 542: TIMER0_Init();
	fcall	_TIMER0_Init
	line	543
;main.c: 543: ADC_Init();
	fcall	_ADC_Init
	line	544
	
l3144:	
;main.c: 544: PWM_Init();
	fcall	_PWM_Init
	line	545
	
l3146:	
;main.c: 545: LCD_Init();
	fcall	_LCD_Init
	line	548
	
l3148:	
;main.c: 548: INTCONbits.PEIE = 1;
	bsf	(11),6	;volatile
	line	549
	
l3150:	
;main.c: 549: INTCONbits.GIE = 1;
	bsf	(11),7	;volatile
	line	552
	
l3152:	
;main.c: 552: USART_WriteString("Inicializando o PIC16F877A\n\r");
	movlw	low((STR_11)|8000h)
	bcf	status, 5	;RP0=0, select bank0
	bcf	status, 6	;RP1=0, select bank0
	movwf	(USART_WriteString@str)
	movlw	high((STR_11)|8000h)
	movwf	((USART_WriteString@str))+1
	fcall	_USART_WriteString
	line	553
	
l3154:	
;main.c: 553: USART_WriteString("USART: 115.200bps\n\r");
	movlw	low((STR_12)|8000h)
	bcf	status, 5	;RP0=0, select bank0
	bcf	status, 6	;RP1=0, select bank0
	movwf	(USART_WriteString@str)
	movlw	high((STR_12)|8000h)
	movwf	((USART_WriteString@str))+1
	fcall	_USART_WriteString
	line	556
	
l3156:	
;main.c: 556: LCD_Init();
	fcall	_LCD_Init
	line	557
	
l3158:	
;main.c: 557: LCD_Cursor(0,0);
	bcf	status, 5	;RP0=0, select bank0
	bcf	status, 6	;RP1=0, select bank0
	clrf	(LCD_Cursor@Col)
	movlw	(0)
	fcall	_LCD_Cursor
	line	558
	
l3160:	
;main.c: 558: LCD_WriteString("Inicializando...");
	movlw	low((STR_13)|8000h)
	bcf	status, 5	;RP0=0, select bank0
	bcf	status, 6	;RP1=0, select bank0
	movwf	(LCD_WriteString@Str)
	movlw	high((STR_13)|8000h)
	movwf	((LCD_WriteString@Str))+1
	fcall	_LCD_WriteString
	line	561
	
l3162:	
;main.c: 561: PWM_DutyCycle1(0);
	movlw	low(0)
	bcf	status, 5	;RP0=0, select bank0
	bcf	status, 6	;RP1=0, select bank0
	movwf	(PWM_DutyCycle1@valor)
	movlw	high(0)
	movwf	((PWM_DutyCycle1@valor))+1
	fcall	_PWM_DutyCycle1
	line	562
	
l3164:	
;main.c: 562: PWM_DutyCycle2(0);
	movlw	low(0)
	bcf	status, 5	;RP0=0, select bank0
	bcf	status, 6	;RP1=0, select bank0
	movwf	(PWM_DutyCycle2@valor)
	movlw	high(0)
	movwf	((PWM_DutyCycle2@valor))+1
	fcall	_PWM_DutyCycle2
	line	565
	
l3166:	
;main.c: 565: TIMER0_Set(238);
	movlw	(0EEh)
	fcall	_TIMER0_Set
	line	568
	
l3168:	
;main.c: 568: _delay((unsigned long)((1000)*(18432000/4000.0)));
	opt asmopt_off
movlw  24
	bsf	status, 5	;RP0=1, select bank1
	bcf	status, 6	;RP1=0, select bank1
movwf	((??_main+0)^080h+0+2),f
movlw	97
movwf	((??_main+0)^080h+0+1),f
	movlw	110
movwf	((??_main+0)^080h+0),f
u3537:
	decfsz	((??_main+0)^080h+0),f
	goto	u3537
	decfsz	((??_main+0)^080h+0+1),f
	goto	u3537
	decfsz	((??_main+0)^080h+0+2),f
	goto	u3537
	nop
opt asmopt_on

	line	571
;main.c: 571: while(1)
	
l214:	
	line	574
;main.c: 572: {
;main.c: 574: sprintf(display_rpm,"%04d", deltaV);
	movlw	low((STR_14)|8000h)
	bcf	status, 5	;RP0=0, select bank0
	bcf	status, 6	;RP1=0, select bank0
	movwf	(sprintf@f)
	movlw	high((STR_14)|8000h)
	movwf	((sprintf@f))+1
	movf	(_deltaV+1),w
	clrf	1+(?_sprintf)+02h
	addwf	1+(?_sprintf)+02h
	movf	(_deltaV),w
	clrf	0+(?_sprintf)+02h
	addwf	0+(?_sprintf)+02h

	movlw	(_display_rpm)&0ffh
	fcall	_sprintf
	line	575
;main.c: 575: sprintf(display_pwm,"%04d", pwm);
	movlw	low((STR_15)|8000h)
	bcf	status, 5	;RP0=0, select bank0
	bcf	status, 6	;RP1=0, select bank0
	movwf	(sprintf@f)
	movlw	high((STR_15)|8000h)
	movwf	((sprintf@f))+1
	movf	(_pwm+1),w
	clrf	1+(?_sprintf)+02h
	addwf	1+(?_sprintf)+02h
	movf	(_pwm),w
	clrf	0+(?_sprintf)+02h
	addwf	0+(?_sprintf)+02h

	movlw	(_display_pwm)&0ffh
	fcall	_sprintf
	line	579
;main.c: 579: USART_WriteString(display_rpm);
	movlw	(_display_rpm&0ffh)
	bcf	status, 5	;RP0=0, select bank0
	bcf	status, 6	;RP1=0, select bank0
	movwf	(USART_WriteString@str)
	movlw	(0x0)
	movwf	(USART_WriteString@str+1)
	fcall	_USART_WriteString
	line	580
;main.c: 580: USART_WriteString("\n\r");
	movlw	low((STR_16)|8000h)
	bcf	status, 5	;RP0=0, select bank0
	bcf	status, 6	;RP1=0, select bank0
	movwf	(USART_WriteString@str)
	movlw	high((STR_16)|8000h)
	movwf	((USART_WriteString@str))+1
	fcall	_USART_WriteString
	line	583
	
l3170:	
;main.c: 583: LCD_Clear();
	fcall	_LCD_Clear
	line	584
	
l3172:	
;main.c: 584: LCD_Cursor(0,0);
	bcf	status, 5	;RP0=0, select bank0
	bcf	status, 6	;RP1=0, select bank0
	clrf	(LCD_Cursor@Col)
	movlw	(0)
	fcall	_LCD_Cursor
	line	585
;main.c: 585: LCD_WriteString("DlV: ");
	movlw	low((STR_17)|8000h)
	bcf	status, 5	;RP0=0, select bank0
	bcf	status, 6	;RP1=0, select bank0
	movwf	(LCD_WriteString@Str)
	movlw	high((STR_17)|8000h)
	movwf	((LCD_WriteString@Str))+1
	fcall	_LCD_WriteString
	line	586
	
l3174:	
;main.c: 586: LCD_Cursor(0,6);
	movlw	(06h)
	bsf	status, 5	;RP0=1, select bank1
	bcf	status, 6	;RP1=0, select bank1
	movwf	(??_main+0)^080h+0
	movf	(??_main+0)^080h+0,w
	bcf	status, 5	;RP0=0, select bank0
	bcf	status, 6	;RP1=0, select bank0
	movwf	(LCD_Cursor@Col)
	movlw	(0)
	fcall	_LCD_Cursor
	line	587
	
l3176:	
;main.c: 587: LCD_WriteString(display_rpm);
	movlw	(_display_rpm&0ffh)
	bcf	status, 5	;RP0=0, select bank0
	bcf	status, 6	;RP1=0, select bank0
	movwf	(LCD_WriteString@Str)
	movlw	(0x0)
	movwf	(LCD_WriteString@Str+1)
	fcall	_LCD_WriteString
	line	588
;main.c: 588: LCD_Cursor(1,0);
	bcf	status, 5	;RP0=0, select bank0
	bcf	status, 6	;RP1=0, select bank0
	clrf	(LCD_Cursor@Col)
	movlw	(01h)
	fcall	_LCD_Cursor
	line	589
	
l3178:	
;main.c: 589: LCD_WriteString("PWM: ");
	movlw	low((STR_18)|8000h)
	bcf	status, 5	;RP0=0, select bank0
	bcf	status, 6	;RP1=0, select bank0
	movwf	(LCD_WriteString@Str)
	movlw	high((STR_18)|8000h)
	movwf	((LCD_WriteString@Str))+1
	fcall	_LCD_WriteString
	line	590
	
l3180:	
;main.c: 590: LCD_Cursor(1,6);
	movlw	(06h)
	bsf	status, 5	;RP0=1, select bank1
	bcf	status, 6	;RP1=0, select bank1
	movwf	(??_main+0)^080h+0
	movf	(??_main+0)^080h+0,w
	bcf	status, 5	;RP0=0, select bank0
	bcf	status, 6	;RP1=0, select bank0
	movwf	(LCD_Cursor@Col)
	movlw	(01h)
	fcall	_LCD_Cursor
	line	591
;main.c: 591: LCD_WriteString(display_pwm);
	movlw	(_display_pwm&0ffh)
	bcf	status, 5	;RP0=0, select bank0
	bcf	status, 6	;RP1=0, select bank0
	movwf	(LCD_WriteString@Str)
	movlw	(0x0)
	movwf	(LCD_WriteString@Str+1)
	fcall	_LCD_WriteString
	line	593
	
l3182:	
;main.c: 593: _delay((unsigned long)((200)*(18432000/4000.0)));
	opt asmopt_off
movlw  5
	bsf	status, 5	;RP0=1, select bank1
	bcf	status, 6	;RP1=0, select bank1
movwf	((??_main+0)^080h+0+2),f
movlw	173
movwf	((??_main+0)^080h+0+1),f
	movlw	224
movwf	((??_main+0)^080h+0),f
u3547:
	decfsz	((??_main+0)^080h+0),f
	goto	u3547
	decfsz	((??_main+0)^080h+0+1),f
	goto	u3547
	decfsz	((??_main+0)^080h+0+2),f
	goto	u3547
opt asmopt_on

	goto	l214
	line	594
	
l215:	
	line	571
	goto	l214
	
l216:	
	line	595
	
l217:	
	global	start
	ljmp	start
	opt stack 0
GLOBAL	__end_of_main
	__end_of_main:
	signat	_main,88
	global	_sprintf

;; *************** function _sprintf *****************
;; Defined at:
;;		line 492 in file "C:\Program Files (x86)\Microchip\xc8\v1.33\sources\common\doprnt.c"
;; Parameters:    Size  Location     Type
;;  sp              1    wreg     PTR unsigned char 
;;		 -> display_pwm(10), display_rpm(10), 
;;  f               2   18[BANK0 ] PTR const unsigned char 
;;		 -> STR_15(5), STR_14(5), 
;; Auto vars:     Size  Location     Type
;;  sp              1   34[BANK0 ] PTR unsigned char 
;;		 -> display_pwm(10), display_rpm(10), 
;;  _val            4   27[BANK0 ] struct .
;;  width           2   32[BANK0 ] int 
;;  c               1   35[BANK0 ] char 
;;  flag            1   31[BANK0 ] unsigned char 
;;  prec            1   26[BANK0 ] char 
;;  ap              1   25[BANK0 ] PTR void [1]
;;		 -> ?_sprintf(2), 
;; Return value:  Size  Location     Type
;;                  2   18[BANK0 ] int 
;; Registers used:
;;		wreg, fsr0l, fsr0h, status,2, status,0, btemp+1, pclath, cstack
;; Tracked objects:
;;		On entry : 0/0
;;		On exit  : 0/0
;;		Unchanged: 0/0
;; Data sizes:     COMMON   BANK0   BANK1   BANK3   BANK2
;;      Params:         0       4       0       0       0
;;      Locals:         0      11       0       0       0
;;      Temps:          0       3       0       0       0
;;      Totals:         0      18       0       0       0
;;Total ram usage:       18 bytes
;; Hardware stack levels used:    1
;; Hardware stack levels required when called:    5
;; This function calls:
;;		___lwdiv
;;		___lwmod
;;		___wmul
;;		_isdigit
;; This function is called by:
;;		_main
;; This function uses a non-reentrant model
;;
psect	text1,local,class=CODE,delta=2,merge=1
	file	"C:\Program Files (x86)\Microchip\xc8\v1.33\sources\common\doprnt.c"
	line	492
global __ptext1
__ptext1:	;psect for function _sprintf
psect	text1
	file	"C:\Program Files (x86)\Microchip\xc8\v1.33\sources\common\doprnt.c"
	line	492
	global	__size_of_sprintf
	__size_of_sprintf	equ	__end_of_sprintf-_sprintf
	
_sprintf:	
;incstack = 0
	opt	stack 2
; Regs used in _sprintf: [wreg-fsr0h+status,2+status,0+btemp+1+pclath+cstack]
;sprintf@sp stored from wreg
	bcf	status, 5	;RP0=0, select bank0
	bcf	status, 6	;RP1=0, select bank0
	movwf	(sprintf@sp)
	line	542
	
l2360:	
;doprnt.c: 494: va_list ap;
;doprnt.c: 499: signed char c;
;doprnt.c: 501: int width;
;doprnt.c: 506: signed char prec;
;doprnt.c: 508: unsigned char flag;
;doprnt.c: 527: union {
;doprnt.c: 528: unsigned int _val;
;doprnt.c: 529: struct {
;doprnt.c: 530: const char * _cp;
;doprnt.c: 531: unsigned _len;
;doprnt.c: 532: } _str;
;doprnt.c: 533: } _val;
;doprnt.c: 542: *ap = __va_start();
	movlw	(?_sprintf+02h)&0ffh
	movwf	(??_sprintf+0)+0
	movf	(??_sprintf+0)+0,w
	movwf	(sprintf@ap)
	line	545
;doprnt.c: 545: while(c = *f++) {
	goto	l2462
	
l487:	
	line	547
	
l2362:	
;doprnt.c: 547: if(c != '%')
	movf	(sprintf@c),w
	xorlw	025h
	skipnz
	goto	u2011
	goto	u2010
u2011:
	goto	l2368
u2010:
	line	550
	
l2364:	
;doprnt.c: 549: {
;doprnt.c: 550: ((*sp++ = (c)));
	movf	(sprintf@c),w
	movwf	(??_sprintf+0)+0
	movf	(sprintf@sp),w
	movwf	fsr0
	movf	(??_sprintf+0)+0,w
	bcf	status, 7	;select IRP bank0
	movwf	indf
	
l2366:	
	movlw	(01h)
	movwf	(??_sprintf+0)+0
	movf	(??_sprintf+0)+0,w
	addwf	(sprintf@sp),f
	line	551
;doprnt.c: 551: continue;
	goto	l2462
	line	552
	
l488:	
	line	555
	
l2368:	
;doprnt.c: 552: }
;doprnt.c: 555: width = 0;
	clrf	(sprintf@width)
	clrf	(sprintf@width+1)
	line	557
;doprnt.c: 557: flag = 0;
	clrf	(sprintf@flag)
	goto	l2372
	line	559
;doprnt.c: 559: for(;;) {
	
l489:	
	line	560
;doprnt.c: 560: switch(*f) {
	goto	l2372
	line	588
;doprnt.c: 588: case '0':
	
l491:	
	line	589
;doprnt.c: 589: flag |= 0x04;
	bsf	(sprintf@flag)+(2/8),(2)&7
	line	590
;doprnt.c: 590: f++;
	movlw	01h
	addwf	(sprintf@f),f
	skipnc
	incf	(sprintf@f+1),f
	line	591
;doprnt.c: 591: continue;
	goto	l2372
	line	593
	
l2370:	
;doprnt.c: 593: }
	goto	l2374
	line	560
	
l490:	
	
l2372:	
	movf	(sprintf@f+1),w
	movwf	btemp+1
	movf	(sprintf@f),w
	movwf	fsr0
	fcall	stringtab
	; Switch size 1, requested type "space"
; Number of cases is 1, Range of values is 48 to 48
; switch strategies available:
; Name         Instructions Cycles
; simple_byte            4     3 (average)
; direct_byte           14    11 (fixed)
; jumptable            263     9 (fixed)
;	Chosen strategy is simple_byte

	opt asmopt_off
	xorlw	48^0	; case 48
	skipnz
	goto	l491
	goto	l2374
	opt asmopt_on

	line	593
	
l493:	
	line	594
;doprnt.c: 594: break;
	goto	l2374
	line	595
	
l492:	
;doprnt.c: 595: }
	goto	l2372
	
l494:	
	line	606
	
l2374:	
;doprnt.c: 606: if(isdigit((unsigned)*f)) {
	movf	(sprintf@f+1),w
	movwf	btemp+1
	movf	(sprintf@f),w
	movwf	fsr0
	fcall	stringtab
	fcall	_isdigit
	btfss	status,0
	goto	u2021
	goto	u2020
u2021:
	goto	l2388
u2020:
	line	607
	
l2376:	
;doprnt.c: 607: width = 0;
	bcf	status, 5	;RP0=0, select bank0
	bcf	status, 6	;RP1=0, select bank0
	clrf	(sprintf@width)
	clrf	(sprintf@width+1)
	goto	l2378
	line	608
;doprnt.c: 608: do {
	
l496:	
	line	609
	
l2378:	
;doprnt.c: 609: width *= 10;
	movlw	low(0Ah)
	bcf	status, 5	;RP0=0, select bank0
	bcf	status, 6	;RP1=0, select bank0
	movwf	(___wmul@multiplier)
	movlw	high(0Ah)
	movwf	((___wmul@multiplier))+1
	movf	(sprintf@width+1),w
	clrf	(___wmul@multiplicand+1)
	addwf	(___wmul@multiplicand+1)
	movf	(sprintf@width),w
	clrf	(___wmul@multiplicand)
	addwf	(___wmul@multiplicand)

	fcall	___wmul
	bcf	status, 5	;RP0=0, select bank0
	bcf	status, 6	;RP1=0, select bank0
	movf	(1+(?___wmul)),w
	clrf	(sprintf@width+1)
	addwf	(sprintf@width+1)
	movf	(0+(?___wmul)),w
	clrf	(sprintf@width)
	addwf	(sprintf@width)

	line	610
	
l2380:	
;doprnt.c: 610: width += *f++ - '0';
	movf	(sprintf@f+1),w
	movwf	btemp+1
	movf	(sprintf@f),w
	movwf	fsr0
	fcall	stringtab
	addlw	low(-48)
	movwf	(??_sprintf+0)+0
	movlw	high(-48)
	skipnc
	movlw	(high(-48)+1)&0ffh
	movwf	((??_sprintf+0)+0)+1
	movf	0+(??_sprintf+0)+0,w
	addwf	(sprintf@width),f
	skipnc
	incf	(sprintf@width+1),f
	movf	1+(??_sprintf+0)+0,w
	addwf	(sprintf@width+1),f
	
l2382:	
	movlw	01h
	addwf	(sprintf@f),f
	skipnc
	incf	(sprintf@f+1),f
	line	611
	
l2384:	
;doprnt.c: 611: } while(isdigit((unsigned)*f));
	movf	(sprintf@f+1),w
	movwf	btemp+1
	movf	(sprintf@f),w
	movwf	fsr0
	fcall	stringtab
	fcall	_isdigit
	btfsc	status,0
	goto	u2031
	goto	u2030
u2031:
	goto	l2378
u2030:
	goto	l2388
	
l497:	
	goto	l2388
	line	617
	
l495:	
	line	644
;doprnt.c: 617: }
;doprnt.c: 644: switch(c = *f++) {
	goto	l2388
	line	646
;doprnt.c: 646: case 0:
	
l499:	
	line	647
;doprnt.c: 647: goto alldone;
	goto	l2464
	line	706
;doprnt.c: 706: case 'd':
	
l501:	
	goto	l2390
	line	707
	
l502:	
	line	708
;doprnt.c: 707: case 'i':
;doprnt.c: 708: break;
	goto	l2390
	line	811
;doprnt.c: 811: default:
	
l504:	
	line	822
;doprnt.c: 822: continue;
	goto	l2462
	line	831
	
l2386:	
;doprnt.c: 831: }
	goto	l2390
	line	644
	
l498:	
	
l2388:	
	bcf	status, 5	;RP0=0, select bank0
	bcf	status, 6	;RP1=0, select bank0
	movf	(sprintf@f+1),w
	movwf	(??_sprintf+0)+0+1
	movf	(sprintf@f),w
	movwf	(??_sprintf+0)+0
	incf	(sprintf@f),f
	skipnz
	incf	(sprintf@f+1),f
	movf	1+(??_sprintf+0)+0,w
	movwf	btemp+1
	movf	0+(??_sprintf+0)+0,w
	movwf	fsr0
	fcall	stringtab
	movwf	(sprintf@c)
	; Switch size 1, requested type "space"
; Number of cases is 3, Range of values is 0 to 105
; switch strategies available:
; Name         Instructions Cycles
; simple_byte           10     6 (average)
; jumptable            260     6 (fixed)
;	Chosen strategy is simple_byte

	opt asmopt_off
	xorlw	0^0	; case 0
	skipnz
	goto	l2464
	xorlw	100^0	; case 100
	skipnz
	goto	l2390
	xorlw	105^100	; case 105
	skipnz
	goto	l2390
	goto	l2462
	opt asmopt_on

	line	831
	
l503:	
	line	1268
	
l2390:	
;doprnt.c: 1262: {
;doprnt.c: 1268: _val._val = (int)(*(int *)__va_arg((*(int **)ap), (int)0));
	bcf	status, 5	;RP0=0, select bank0
	bcf	status, 6	;RP1=0, select bank0
	movf	(sprintf@ap),w
	movwf	fsr0
	bcf	status, 7	;select IRP bank0
	movf	indf,w
	movwf	(sprintf@_val)
	incf	fsr0,f
	movf	indf,w
	movwf	(sprintf@_val+1)
	
l2392:	
	movlw	(02h)
	movwf	(??_sprintf+0)+0
	movf	(??_sprintf+0)+0,w
	addwf	(sprintf@ap),f
	line	1270
	
l2394:	
;doprnt.c: 1270: if((int)_val._val < 0) {
	btfss	(sprintf@_val+1),7
	goto	u2041
	goto	u2040
u2041:
	goto	l2400
u2040:
	line	1271
	
l2396:	
;doprnt.c: 1271: flag |= 0x03;
	movlw	(03h)
	movwf	(??_sprintf+0)+0
	movf	(??_sprintf+0)+0,w
	iorwf	(sprintf@flag),f
	line	1272
	
l2398:	
;doprnt.c: 1272: _val._val = -_val._val;
	comf	(sprintf@_val),f
	comf	(sprintf@_val+1),f
	incf	(sprintf@_val),f
	skipnz
	incf	(sprintf@_val+1),f
	goto	l2400
	line	1273
	
l505:	
	line	1314
	
l2400:	
;doprnt.c: 1273: }
;doprnt.c: 1275: }
;doprnt.c: 1314: for(c = 1 ; c != sizeof dpowers/sizeof dpowers[0] ; c++)
	clrf	(sprintf@c)
	incf	(sprintf@c),f
	movf	(sprintf@c),w
	xorlw	05h
	skipz
	goto	u2051
	goto	u2050
u2051:
	goto	l2404
u2050:
	goto	l2412
	
l2402:	
	goto	l2412
	line	1315
	
l506:	
	
l2404:	
;doprnt.c: 1315: if(_val._val < dpowers[c])
	movf	(sprintf@c),w
	movwf	(??_sprintf+0)+0
	addwf	(??_sprintf+0)+0,w
	addlw	low((_dpowers)|8000h)
	movwf	fsr0
	movlw	high((_dpowers)|8000h)
	skipnc
	addlw	1
	movwf	btemp+1
	fcall	stringtab
	movwf	(??_sprintf+1)+0
	fcall	stringtab
	movwf	(??_sprintf+1)+0+1
	movf	1+(??_sprintf+1)+0,w
	subwf	(sprintf@_val+1),w
	skipz
	goto	u2065
	movf	0+(??_sprintf+1)+0,w
	subwf	(sprintf@_val),w
u2065:
	skipnc
	goto	u2061
	goto	u2060
u2061:
	goto	l2408
u2060:
	goto	l2412
	line	1316
	
l2406:	
;doprnt.c: 1316: break;
	goto	l2412
	
l508:	
	line	1314
	
l2408:	
	movlw	(01h)
	movwf	(??_sprintf+0)+0
	movf	(??_sprintf+0)+0,w
	addwf	(sprintf@c),f
	
l2410:	
	movf	(sprintf@c),w
	xorlw	05h
	skipz
	goto	u2071
	goto	u2070
u2071:
	goto	l2404
u2070:
	goto	l2412
	
l507:	
	line	1354
	
l2412:	
;doprnt.c: 1354: if(width && flag & 0x03)
	movf	(sprintf@width+1),w
	iorwf	(sprintf@width),w
	skipnz
	goto	u2081
	goto	u2080
u2081:
	goto	l509
u2080:
	
l2414:	
	movf	(sprintf@flag),w
	andlw	03h
	btfsc	status,2
	goto	u2091
	goto	u2090
u2091:
	goto	l509
u2090:
	line	1355
	
l2416:	
;doprnt.c: 1355: width--;
	movlw	low(-1)
	addwf	(sprintf@width),f
	skipnc
	incf	(sprintf@width+1),f
	movlw	high(-1)
	addwf	(sprintf@width+1),f
	
l509:	
	line	1390
;doprnt.c: 1390: if(width > c)
	movf	(sprintf@c),w
	movwf	(??_sprintf+0)+0
	clrf	(??_sprintf+0)+0+1
	btfsc	(??_sprintf+0)+0,7
	decf	(??_sprintf+0)+0+1,f
	movf	1+(??_sprintf+0)+0,w
	xorlw	80h
	movwf	(??_sprintf+2)+0
	movf	(sprintf@width+1),w
	xorlw	80h
	subwf	(??_sprintf+2)+0,w
	skipz
	goto	u2105
	movf	(sprintf@width),w
	subwf	0+(??_sprintf+0)+0,w
u2105:

	skipnc
	goto	u2101
	goto	u2100
u2101:
	goto	l2420
u2100:
	line	1391
	
l2418:	
;doprnt.c: 1391: width -= c;
	bcf	status, 5	;RP0=0, select bank0
	bcf	status, 6	;RP1=0, select bank0
	movf	(sprintf@c),w
	movwf	(??_sprintf+0)+0
	clrf	(??_sprintf+0)+0+1
	btfsc	(??_sprintf+0)+0,7
	decf	(??_sprintf+0)+0+1,f
	movf	0+(??_sprintf+0)+0,w
	subwf	(sprintf@width),f
	movf	1+(??_sprintf+0)+0,w
	skipc
	decf	(sprintf@width+1),f
	subwf	(sprintf@width+1),f
	goto	l2422
	line	1392
	
l510:	
	line	1393
	
l2420:	
;doprnt.c: 1392: else
;doprnt.c: 1393: width = 0;
	bcf	status, 5	;RP0=0, select bank0
	bcf	status, 6	;RP1=0, select bank0
	clrf	(sprintf@width)
	clrf	(sprintf@width+1)
	goto	l2422
	
l511:	
	line	1396
	
l2422:	
;doprnt.c: 1396: if(flag & 0x04) {
	btfss	(sprintf@flag),(2)&7
	goto	u2111
	goto	u2110
u2111:
	goto	l2438
u2110:
	line	1401
	
l2424:	
;doprnt.c: 1401: if(flag & 0x03)
	movf	(sprintf@flag),w
	andlw	03h
	btfsc	status,2
	goto	u2121
	goto	u2120
u2121:
	goto	l2430
u2120:
	line	1402
	
l2426:	
;doprnt.c: 1402: ((*sp++ = ('-')));
	movlw	(02Dh)
	movwf	(??_sprintf+0)+0
	movf	(sprintf@sp),w
	movwf	fsr0
	movf	(??_sprintf+0)+0,w
	bcf	status, 7	;select IRP bank0
	movwf	indf
	
l2428:	
	movlw	(01h)
	movwf	(??_sprintf+0)+0
	movf	(??_sprintf+0)+0,w
	addwf	(sprintf@sp),f
	goto	l2430
	
l513:	
	line	1424
	
l2430:	
;doprnt.c: 1424: if(width)
	movf	(sprintf@width+1),w
	iorwf	(sprintf@width),w
	skipnz
	goto	u2131
	goto	u2130
u2131:
	goto	l2452
u2130:
	goto	l2432
	line	1425
;doprnt.c: 1425: do
	
l515:	
	line	1426
	
l2432:	
;doprnt.c: 1426: ((*sp++ = ('0')));
	movlw	(030h)
	movwf	(??_sprintf+0)+0
	movf	(sprintf@sp),w
	movwf	fsr0
	movf	(??_sprintf+0)+0,w
	bcf	status, 7	;select IRP bank0
	movwf	indf
	
l2434:	
	movlw	(01h)
	movwf	(??_sprintf+0)+0
	movf	(??_sprintf+0)+0,w
	addwf	(sprintf@sp),f
	line	1427
	
l2436:	
;doprnt.c: 1427: while(--width);
	movlw	low(-1)
	addwf	(sprintf@width),f
	skipnc
	incf	(sprintf@width+1),f
	movlw	high(-1)
	addwf	(sprintf@width+1),f
	movf	(((sprintf@width+1))),w
	iorwf	(((sprintf@width))),w
	skipz
	goto	u2141
	goto	u2140
u2141:
	goto	l2432
u2140:
	goto	l2452
	
l516:	
	goto	l2452
	
l514:	
	line	1429
;doprnt.c: 1429: } else
	goto	l2452
	
l512:	
	line	1437
	
l2438:	
;doprnt.c: 1431: {
;doprnt.c: 1433: if(width
;doprnt.c: 1437: )
	movf	(sprintf@width+1),w
	iorwf	(sprintf@width),w
	skipnz
	goto	u2151
	goto	u2150
u2151:
	goto	l2446
u2150:
	goto	l2440
	line	1438
;doprnt.c: 1438: do
	
l519:	
	line	1439
	
l2440:	
;doprnt.c: 1439: ((*sp++ = (' ')));
	movlw	(020h)
	movwf	(??_sprintf+0)+0
	movf	(sprintf@sp),w
	movwf	fsr0
	movf	(??_sprintf+0)+0,w
	bcf	status, 7	;select IRP bank0
	movwf	indf
	
l2442:	
	movlw	(01h)
	movwf	(??_sprintf+0)+0
	movf	(??_sprintf+0)+0,w
	addwf	(sprintf@sp),f
	line	1440
	
l2444:	
;doprnt.c: 1440: while(--width);
	movlw	low(-1)
	addwf	(sprintf@width),f
	skipnc
	incf	(sprintf@width+1),f
	movlw	high(-1)
	addwf	(sprintf@width+1),f
	movf	(((sprintf@width+1))),w
	iorwf	(((sprintf@width))),w
	skipz
	goto	u2161
	goto	u2160
u2161:
	goto	l2440
u2160:
	goto	l2446
	
l520:	
	goto	l2446
	
l518:	
	line	1447
	
l2446:	
;doprnt.c: 1447: if(flag & 0x03)
	movf	(sprintf@flag),w
	andlw	03h
	btfsc	status,2
	goto	u2171
	goto	u2170
u2171:
	goto	l2452
u2170:
	line	1448
	
l2448:	
;doprnt.c: 1448: ((*sp++ = ('-')));
	movlw	(02Dh)
	movwf	(??_sprintf+0)+0
	movf	(sprintf@sp),w
	movwf	fsr0
	movf	(??_sprintf+0)+0,w
	bcf	status, 7	;select IRP bank0
	movwf	indf
	
l2450:	
	movlw	(01h)
	movwf	(??_sprintf+0)+0
	movf	(??_sprintf+0)+0,w
	addwf	(sprintf@sp),f
	goto	l2452
	
l521:	
	goto	l2452
	line	1478
	
l517:	
	line	1481
	
l2452:	
;doprnt.c: 1478: }
;doprnt.c: 1481: prec = c;
	movf	(sprintf@c),w
	movwf	(??_sprintf+0)+0
	movf	(??_sprintf+0)+0,w
	movwf	(sprintf@prec)
	line	1483
;doprnt.c: 1483: while(prec--) {
	goto	l2460
	
l523:	
	line	1498
	
l2454:	
;doprnt.c: 1487: {
;doprnt.c: 1498: c = (_val._val / dpowers[prec]) % 10 + '0';
	movlw	low(0Ah)
	movwf	(___lwmod@divisor)
	movlw	high(0Ah)
	movwf	((___lwmod@divisor))+1
	movf	(sprintf@prec),w
	movwf	(??_sprintf+0)+0
	addwf	(??_sprintf+0)+0,w
	addlw	low((_dpowers)|8000h)
	movwf	fsr0
	movlw	high((_dpowers)|8000h)
	skipnc
	addlw	1
	movwf	btemp+1
	fcall	stringtab
	movwf	(___lwdiv@divisor)
	fcall	stringtab
	movwf	(___lwdiv@divisor+1)
	movf	(sprintf@_val+1),w
	clrf	(___lwdiv@dividend+1)
	addwf	(___lwdiv@dividend+1)
	movf	(sprintf@_val),w
	clrf	(___lwdiv@dividend)
	addwf	(___lwdiv@dividend)

	fcall	___lwdiv
	bcf	status, 5	;RP0=0, select bank0
	bcf	status, 6	;RP1=0, select bank0
	movf	(1+(?___lwdiv)),w
	clrf	(___lwmod@dividend+1)
	addwf	(___lwmod@dividend+1)
	movf	(0+(?___lwdiv)),w
	clrf	(___lwmod@dividend)
	addwf	(___lwmod@dividend)

	fcall	___lwmod
	bcf	status, 5	;RP0=0, select bank0
	bcf	status, 6	;RP1=0, select bank0
	movf	(0+(?___lwmod)),w
	addlw	030h
	movwf	(??_sprintf+1)+0
	movf	(??_sprintf+1)+0,w
	movwf	(sprintf@c)
	line	1533
	
l2456:	
;doprnt.c: 1532: }
;doprnt.c: 1533: ((*sp++ = (c)));
	movf	(sprintf@c),w
	movwf	(??_sprintf+0)+0
	movf	(sprintf@sp),w
	movwf	fsr0
	movf	(??_sprintf+0)+0,w
	bcf	status, 7	;select IRP bank0
	movwf	indf
	
l2458:	
	movlw	(01h)
	movwf	(??_sprintf+0)+0
	movf	(??_sprintf+0)+0,w
	addwf	(sprintf@sp),f
	goto	l2460
	line	1534
	
l522:	
	line	1483
	
l2460:	
	movlw	(-1)
	movwf	(??_sprintf+0)+0
	movf	(??_sprintf+0)+0,w
	addwf	(sprintf@prec),f
	movf	((sprintf@prec)),w
	xorlw	-1
	skipz
	goto	u2181
	goto	u2180
u2181:
	goto	l2454
u2180:
	goto	l2462
	
l524:	
	goto	l2462
	line	1542
	
l486:	
	line	545
	
l2462:	
	bcf	status, 5	;RP0=0, select bank0
	bcf	status, 6	;RP1=0, select bank0
	movf	(sprintf@f+1),w
	movwf	(??_sprintf+0)+0+1
	movf	(sprintf@f),w
	movwf	(??_sprintf+0)+0
	incf	(sprintf@f),f
	skipnz
	incf	(sprintf@f+1),f
	movf	1+(??_sprintf+0)+0,w
	movwf	btemp+1
	movf	0+(??_sprintf+0)+0,w
	movwf	fsr0
	fcall	stringtab
	movwf	(??_sprintf+2)+0
	movf	(??_sprintf+2)+0,w
	movwf	(sprintf@c)
	movf	((sprintf@c)),f
	skipz
	goto	u2191
	goto	u2190
u2191:
	goto	l2362
u2190:
	goto	l2464
	
l525:	
	goto	l2464
	line	1544
;doprnt.c: 1534: }
;doprnt.c: 1542: }
;doprnt.c: 1544: alldone:
	
l500:	
	line	1547
	
l2464:	
;doprnt.c: 1547: *sp = 0;
	bcf	status, 5	;RP0=0, select bank0
	bcf	status, 6	;RP1=0, select bank0
	movf	(sprintf@sp),w
	movwf	fsr0
	bcf	status, 7	;select IRP bank0
	clrf	indf
	goto	l526
	line	1549
	
l2466:	
	line	1550
;doprnt.c: 1549: return 0;
;	Return value of _sprintf is never used
	
l526:	
	return
	opt stack 0
GLOBAL	__end_of_sprintf
	__end_of_sprintf:
	signat	_sprintf,4698
	global	_isdigit

;; *************** function _isdigit *****************
;; Defined at:
;;		line 8 in file "C:\Program Files (x86)\Microchip\xc8\v1.33\sources\common\isdigit.c"
;; Parameters:    Size  Location     Type
;;  c               1    wreg     unsigned char 
;; Auto vars:     Size  Location     Type
;;  c               1    5[BANK0 ] unsigned char 
;; Return value:  Size  Location     Type
;;		None               void
;; Registers used:
;;		wreg, status,2, status,0
;; Tracked objects:
;;		On entry : 0/0
;;		On exit  : 0/0
;;		Unchanged: 0/0
;; Data sizes:     COMMON   BANK0   BANK1   BANK3   BANK2
;;      Params:         0       0       0       0       0
;;      Locals:         0       2       0       0       0
;;      Temps:          0       0       0       0       0
;;      Totals:         0       2       0       0       0
;;Total ram usage:        2 bytes
;; Hardware stack levels used:    1
;; Hardware stack levels required when called:    4
;; This function calls:
;;		Nothing
;; This function is called by:
;;		_sprintf
;; This function uses a non-reentrant model
;;
psect	text2,local,class=CODE,delta=2,merge=1
	file	"C:\Program Files (x86)\Microchip\xc8\v1.33\sources\common\isdigit.c"
	line	8
global __ptext2
__ptext2:	;psect for function _isdigit
psect	text2
	file	"C:\Program Files (x86)\Microchip\xc8\v1.33\sources\common\isdigit.c"
	line	8
	global	__size_of_isdigit
	__size_of_isdigit	equ	__end_of_isdigit-_isdigit
	
_isdigit:	
;incstack = 0
	opt	stack 2
; Regs used in _isdigit: [wreg+status,2+status,0]
;isdigit@c stored from wreg
	bcf	status, 5	;RP0=0, select bank0
	bcf	status, 6	;RP1=0, select bank0
	movwf	(isdigit@c)
	line	14
	
l2020:	
	clrf	(_isdigit$1455)
	
l2022:	
	movlw	(03Ah)
	subwf	(isdigit@c),w
	skipnc
	goto	u1491
	goto	u1490
u1491:
	goto	l2028
u1490:
	
l2024:	
	movlw	(030h)
	subwf	(isdigit@c),w
	skipc
	goto	u1501
	goto	u1500
u1501:
	goto	l2028
u1500:
	
l2026:	
	clrf	(_isdigit$1455)
	incf	(_isdigit$1455),f
	goto	l2028
	
l866:	
	
l2028:	
	rrf	(_isdigit$1455),w
	
	goto	l867
	
l2030:	
	line	15
	
l867:	
	return
	opt stack 0
GLOBAL	__end_of_isdigit
	__end_of_isdigit:
	signat	_isdigit,4216
	global	___wmul

;; *************** function ___wmul *****************
;; Defined at:
;;		line 15 in file "C:\Program Files (x86)\Microchip\xc8\v1.33\sources\common\Umul16.c"
;; Parameters:    Size  Location     Type
;;  multiplier      2    4[BANK0 ] unsigned int 
;;  multiplicand    2    6[BANK0 ] unsigned int 
;; Auto vars:     Size  Location     Type
;;  product         2    8[BANK0 ] unsigned int 
;; Return value:  Size  Location     Type
;;                  2    4[BANK0 ] unsigned int 
;; Registers used:
;;		wreg, status,2, status,0
;; Tracked objects:
;;		On entry : 0/0
;;		On exit  : 0/0
;;		Unchanged: 0/0
;; Data sizes:     COMMON   BANK0   BANK1   BANK3   BANK2
;;      Params:         0       4       0       0       0
;;      Locals:         0       2       0       0       0
;;      Temps:          0       0       0       0       0
;;      Totals:         0       6       0       0       0
;;Total ram usage:        6 bytes
;; Hardware stack levels used:    1
;; Hardware stack levels required when called:    4
;; This function calls:
;;		Nothing
;; This function is called by:
;;		_sprintf
;; This function uses a non-reentrant model
;;
psect	text3,local,class=CODE,delta=2,merge=1
	file	"C:\Program Files (x86)\Microchip\xc8\v1.33\sources\common\Umul16.c"
	line	15
global __ptext3
__ptext3:	;psect for function ___wmul
psect	text3
	file	"C:\Program Files (x86)\Microchip\xc8\v1.33\sources\common\Umul16.c"
	line	15
	global	__size_of___wmul
	__size_of___wmul	equ	__end_of___wmul-___wmul
	
___wmul:	
;incstack = 0
	opt	stack 2
; Regs used in ___wmul: [wreg+status,2+status,0]
	line	43
	
l2032:	
	bcf	status, 5	;RP0=0, select bank0
	bcf	status, 6	;RP1=0, select bank0
	clrf	(___wmul@product)
	clrf	(___wmul@product+1)
	goto	l2034
	line	44
	
l609:	
	line	45
	
l2034:	
	btfss	(___wmul@multiplier),(0)&7
	goto	u1511
	goto	u1510
u1511:
	goto	l610
u1510:
	line	46
	
l2036:	
	movf	(___wmul@multiplicand),w
	addwf	(___wmul@product),f
	skipnc
	incf	(___wmul@product+1),f
	movf	(___wmul@multiplicand+1),w
	addwf	(___wmul@product+1),f
	
l610:	
	line	47
	movlw	01h
	
u1525:
	clrc
	rlf	(___wmul@multiplicand),f
	rlf	(___wmul@multiplicand+1),f
	addlw	-1
	skipz
	goto	u1525
	line	48
	
l2038:	
	movlw	01h
	
u1535:
	clrc
	rrf	(___wmul@multiplier+1),f
	rrf	(___wmul@multiplier),f
	addlw	-1
	skipz
	goto	u1535
	line	49
	movf	((___wmul@multiplier+1)),w
	iorwf	((___wmul@multiplier)),w
	skipz
	goto	u1541
	goto	u1540
u1541:
	goto	l2034
u1540:
	goto	l2040
	
l611:	
	line	52
	
l2040:	
	movf	(___wmul@product+1),w
	clrf	(?___wmul+1)
	addwf	(?___wmul+1)
	movf	(___wmul@product),w
	clrf	(?___wmul)
	addwf	(?___wmul)

	goto	l612
	
l2042:	
	line	53
	
l612:	
	return
	opt stack 0
GLOBAL	__end_of___wmul
	__end_of___wmul:
	signat	___wmul,8314
	global	___lwmod

;; *************** function ___lwmod *****************
;; Defined at:
;;		line 6 in file "C:\Program Files (x86)\Microchip\xc8\v1.33\sources\common\lwmod.c"
;; Parameters:    Size  Location     Type
;;  divisor         2   12[BANK0 ] unsigned int 
;;  dividend        2   14[BANK0 ] unsigned int 
;; Auto vars:     Size  Location     Type
;;  counter         1   17[BANK0 ] unsigned char 
;; Return value:  Size  Location     Type
;;                  2   12[BANK0 ] unsigned int 
;; Registers used:
;;		wreg, status,2, status,0
;; Tracked objects:
;;		On entry : 0/0
;;		On exit  : 0/0
;;		Unchanged: 0/0
;; Data sizes:     COMMON   BANK0   BANK1   BANK3   BANK2
;;      Params:         0       4       0       0       0
;;      Locals:         0       1       0       0       0
;;      Temps:          0       1       0       0       0
;;      Totals:         0       6       0       0       0
;;Total ram usage:        6 bytes
;; Hardware stack levels used:    1
;; Hardware stack levels required when called:    4
;; This function calls:
;;		Nothing
;; This function is called by:
;;		_sprintf
;; This function uses a non-reentrant model
;;
psect	text4,local,class=CODE,delta=2,merge=1
	file	"C:\Program Files (x86)\Microchip\xc8\v1.33\sources\common\lwmod.c"
	line	6
global __ptext4
__ptext4:	;psect for function ___lwmod
psect	text4
	file	"C:\Program Files (x86)\Microchip\xc8\v1.33\sources\common\lwmod.c"
	line	6
	global	__size_of___lwmod
	__size_of___lwmod	equ	__end_of___lwmod-___lwmod
	
___lwmod:	
;incstack = 0
	opt	stack 2
; Regs used in ___lwmod: [wreg+status,2+status,0]
	line	13
	
l2110:	
	bcf	status, 5	;RP0=0, select bank0
	bcf	status, 6	;RP1=0, select bank0
	movf	(___lwmod@divisor+1),w
	iorwf	(___lwmod@divisor),w
	skipnz
	goto	u1721
	goto	u1720
u1721:
	goto	l2128
u1720:
	line	14
	
l2112:	
	clrf	(___lwmod@counter)
	incf	(___lwmod@counter),f
	line	15
	goto	l2118
	
l956:	
	line	16
	
l2114:	
	movlw	01h
	
u1735:
	clrc
	rlf	(___lwmod@divisor),f
	rlf	(___lwmod@divisor+1),f
	addlw	-1
	skipz
	goto	u1735
	line	17
	
l2116:	
	movlw	(01h)
	movwf	(??___lwmod+0)+0
	movf	(??___lwmod+0)+0,w
	addwf	(___lwmod@counter),f
	goto	l2118
	line	18
	
l955:	
	line	15
	
l2118:	
	btfss	(___lwmod@divisor+1),(15)&7
	goto	u1741
	goto	u1740
u1741:
	goto	l2114
u1740:
	goto	l2120
	
l957:	
	goto	l2120
	line	19
	
l958:	
	line	20
	
l2120:	
	movf	(___lwmod@divisor+1),w
	subwf	(___lwmod@dividend+1),w
	skipz
	goto	u1755
	movf	(___lwmod@divisor),w
	subwf	(___lwmod@dividend),w
u1755:
	skipc
	goto	u1751
	goto	u1750
u1751:
	goto	l2124
u1750:
	line	21
	
l2122:	
	movf	(___lwmod@divisor),w
	subwf	(___lwmod@dividend),f
	movf	(___lwmod@divisor+1),w
	skipc
	decf	(___lwmod@dividend+1),f
	subwf	(___lwmod@dividend+1),f
	goto	l2124
	
l959:	
	line	22
	
l2124:	
	movlw	01h
	
u1765:
	clrc
	rrf	(___lwmod@divisor+1),f
	rrf	(___lwmod@divisor),f
	addlw	-1
	skipz
	goto	u1765
	line	23
	
l2126:	
	movlw	low(01h)
	subwf	(___lwmod@counter),f
	btfss	status,2
	goto	u1771
	goto	u1770
u1771:
	goto	l2120
u1770:
	goto	l2128
	
l960:	
	goto	l2128
	line	24
	
l954:	
	line	25
	
l2128:	
	movf	(___lwmod@dividend+1),w
	clrf	(?___lwmod+1)
	addwf	(?___lwmod+1)
	movf	(___lwmod@dividend),w
	clrf	(?___lwmod)
	addwf	(?___lwmod)

	goto	l961
	
l2130:	
	line	26
	
l961:	
	return
	opt stack 0
GLOBAL	__end_of___lwmod
	__end_of___lwmod:
	signat	___lwmod,8314
	global	___lwdiv

;; *************** function ___lwdiv *****************
;; Defined at:
;;		line 6 in file "C:\Program Files (x86)\Microchip\xc8\v1.33\sources\common\lwdiv.c"
;; Parameters:    Size  Location     Type
;;  divisor         2    4[BANK0 ] unsigned int 
;;  dividend        2    6[BANK0 ] unsigned int 
;; Auto vars:     Size  Location     Type
;;  quotient        2    9[BANK0 ] unsigned int 
;;  counter         1   11[BANK0 ] unsigned char 
;; Return value:  Size  Location     Type
;;                  2    4[BANK0 ] unsigned int 
;; Registers used:
;;		wreg, status,2, status,0
;; Tracked objects:
;;		On entry : 0/0
;;		On exit  : 0/0
;;		Unchanged: 0/0
;; Data sizes:     COMMON   BANK0   BANK1   BANK3   BANK2
;;      Params:         0       4       0       0       0
;;      Locals:         0       3       0       0       0
;;      Temps:          0       1       0       0       0
;;      Totals:         0       8       0       0       0
;;Total ram usage:        8 bytes
;; Hardware stack levels used:    1
;; Hardware stack levels required when called:    4
;; This function calls:
;;		Nothing
;; This function is called by:
;;		_sprintf
;; This function uses a non-reentrant model
;;
psect	text5,local,class=CODE,delta=2,merge=1
	file	"C:\Program Files (x86)\Microchip\xc8\v1.33\sources\common\lwdiv.c"
	line	6
global __ptext5
__ptext5:	;psect for function ___lwdiv
psect	text5
	file	"C:\Program Files (x86)\Microchip\xc8\v1.33\sources\common\lwdiv.c"
	line	6
	global	__size_of___lwdiv
	__size_of___lwdiv	equ	__end_of___lwdiv-___lwdiv
	
___lwdiv:	
;incstack = 0
	opt	stack 2
; Regs used in ___lwdiv: [wreg+status,2+status,0]
	line	14
	
l2084:	
	bcf	status, 5	;RP0=0, select bank0
	bcf	status, 6	;RP1=0, select bank0
	clrf	(___lwdiv@quotient)
	clrf	(___lwdiv@quotient+1)
	line	15
	
l2086:	
	movf	(___lwdiv@divisor+1),w
	iorwf	(___lwdiv@divisor),w
	skipnz
	goto	u1651
	goto	u1650
u1651:
	goto	l2106
u1650:
	line	16
	
l2088:	
	clrf	(___lwdiv@counter)
	incf	(___lwdiv@counter),f
	line	17
	goto	l2094
	
l946:	
	line	18
	
l2090:	
	movlw	01h
	
u1665:
	clrc
	rlf	(___lwdiv@divisor),f
	rlf	(___lwdiv@divisor+1),f
	addlw	-1
	skipz
	goto	u1665
	line	19
	
l2092:	
	movlw	(01h)
	movwf	(??___lwdiv+0)+0
	movf	(??___lwdiv+0)+0,w
	addwf	(___lwdiv@counter),f
	goto	l2094
	line	20
	
l945:	
	line	17
	
l2094:	
	btfss	(___lwdiv@divisor+1),(15)&7
	goto	u1671
	goto	u1670
u1671:
	goto	l2090
u1670:
	goto	l2096
	
l947:	
	goto	l2096
	line	21
	
l948:	
	line	22
	
l2096:	
	movlw	01h
	
u1685:
	clrc
	rlf	(___lwdiv@quotient),f
	rlf	(___lwdiv@quotient+1),f
	addlw	-1
	skipz
	goto	u1685
	line	23
	movf	(___lwdiv@divisor+1),w
	subwf	(___lwdiv@dividend+1),w
	skipz
	goto	u1695
	movf	(___lwdiv@divisor),w
	subwf	(___lwdiv@dividend),w
u1695:
	skipc
	goto	u1691
	goto	u1690
u1691:
	goto	l2102
u1690:
	line	24
	
l2098:	
	movf	(___lwdiv@divisor),w
	subwf	(___lwdiv@dividend),f
	movf	(___lwdiv@divisor+1),w
	skipc
	decf	(___lwdiv@dividend+1),f
	subwf	(___lwdiv@dividend+1),f
	line	25
	
l2100:	
	bsf	(___lwdiv@quotient)+(0/8),(0)&7
	goto	l2102
	line	26
	
l949:	
	line	27
	
l2102:	
	movlw	01h
	
u1705:
	clrc
	rrf	(___lwdiv@divisor+1),f
	rrf	(___lwdiv@divisor),f
	addlw	-1
	skipz
	goto	u1705
	line	28
	
l2104:	
	movlw	low(01h)
	subwf	(___lwdiv@counter),f
	btfss	status,2
	goto	u1711
	goto	u1710
u1711:
	goto	l2096
u1710:
	goto	l2106
	
l950:	
	goto	l2106
	line	29
	
l944:	
	line	30
	
l2106:	
	movf	(___lwdiv@quotient+1),w
	clrf	(?___lwdiv+1)
	addwf	(?___lwdiv+1)
	movf	(___lwdiv@quotient),w
	clrf	(?___lwdiv)
	addwf	(?___lwdiv)

	goto	l951
	
l2108:	
	line	31
	
l951:	
	return
	opt stack 0
GLOBAL	__end_of___lwdiv
	__end_of___lwdiv:
	signat	___lwdiv,8314
	global	_USART_WriteString

;; *************** function _USART_WriteString *****************
;; Defined at:
;;		line 52 in file "C:\Users\Ninguem\Desktop\Trabalho Sistemas Inteligentes Cruzeiro\Retrab C no MPLAB\usart.c"
;; Parameters:    Size  Location     Type
;;  str             2    5[BANK0 ] PTR const unsigned char 
;;		 -> STR_19(40), STR_16(3), display_rpm(10), STR_12(20), 
;;		 -> STR_11(29), STR_10(15), STR_9(15), STR_8(14), 
;;		 -> STR_7(14), STR_6(14), STR_5(14), STR_4(14), 
;;		 -> STR_3(13), STR_2(13), STR_1(14), 
;; Auto vars:     Size  Location     Type
;;		None
;; Return value:  Size  Location     Type
;;		None               void
;; Registers used:
;;		wreg, fsr0l, fsr0h, status,2, status,0, btemp+1, pclath, cstack
;; Tracked objects:
;;		On entry : 0/0
;;		On exit  : 0/0
;;		Unchanged: 0/0
;; Data sizes:     COMMON   BANK0   BANK1   BANK3   BANK2
;;      Params:         0       2       0       0       0
;;      Locals:         0       0       0       0       0
;;      Temps:          0       0       0       0       0
;;      Totals:         0       2       0       0       0
;;Total ram usage:        2 bytes
;; Hardware stack levels used:    1
;; Hardware stack levels required when called:    5
;; This function calls:
;;		_USART_WriteChar
;; This function is called by:
;;		_main
;; This function uses a non-reentrant model
;;
psect	text6,local,class=CODE,delta=2,merge=1
	file	"C:\Users\Ninguem\Desktop\Trabalho Sistemas Inteligentes Cruzeiro\Retrab C no MPLAB\usart.c"
	line	52
global __ptext6
__ptext6:	;psect for function _USART_WriteString
psect	text6
	file	"C:\Users\Ninguem\Desktop\Trabalho Sistemas Inteligentes Cruzeiro\Retrab C no MPLAB\usart.c"
	line	52
	global	__size_of_USART_WriteString
	__size_of_USART_WriteString	equ	__end_of_USART_WriteString-_USART_WriteString
	
_USART_WriteString:	
;incstack = 0
	opt	stack 2
; Regs used in _USART_WriteString: [wreg-fsr0h+status,2+status,0+btemp+1+pclath+cstack]
	line	54
	
l2228:	
;usart.c: 54: while(*str != '\0')
	goto	l2234
	
l246:	
	line	56
	
l2230:	
;usart.c: 55: {
;usart.c: 56: USART_WriteChar(*str);
	bcf	status, 5	;RP0=0, select bank0
	bcf	status, 6	;RP1=0, select bank0
	movf	(USART_WriteString@str+1),w
	movwf	btemp+1
	movf	(USART_WriteString@str),w
	movwf	fsr0
	fcall	stringtab
	fcall	_USART_WriteChar
	line	57
	
l2232:	
;usart.c: 57: str++;
	movlw	01h
	bcf	status, 5	;RP0=0, select bank0
	bcf	status, 6	;RP1=0, select bank0
	addwf	(USART_WriteString@str),f
	skipnc
	incf	(USART_WriteString@str+1),f
	goto	l2234
	line	58
	
l245:	
	line	54
	
l2234:	
	bcf	status, 5	;RP0=0, select bank0
	bcf	status, 6	;RP1=0, select bank0
	movf	(USART_WriteString@str+1),w
	movwf	btemp+1
	movf	(USART_WriteString@str),w
	movwf	fsr0
	fcall	stringtab
	iorlw	0
	skipz
	goto	u1961
	goto	u1960
u1961:
	goto	l2230
u1960:
	goto	l248
	
l247:	
	line	59
	
l248:	
	return
	opt stack 0
GLOBAL	__end_of_USART_WriteString
	__end_of_USART_WriteString:
	signat	_USART_WriteString,4216
	global	_USART_WriteChar

;; *************** function _USART_WriteChar *****************
;; Defined at:
;;		line 44 in file "C:\Users\Ninguem\Desktop\Trabalho Sistemas Inteligentes Cruzeiro\Retrab C no MPLAB\usart.c"
;; Parameters:    Size  Location     Type
;;  byte            1    wreg     unsigned char 
;; Auto vars:     Size  Location     Type
;;  byte            1    4[BANK0 ] unsigned char 
;; Return value:  Size  Location     Type
;;		None               void
;; Registers used:
;;		wreg
;; Tracked objects:
;;		On entry : 0/0
;;		On exit  : 0/0
;;		Unchanged: 0/0
;; Data sizes:     COMMON   BANK0   BANK1   BANK3   BANK2
;;      Params:         0       0       0       0       0
;;      Locals:         0       1       0       0       0
;;      Temps:          0       0       0       0       0
;;      Totals:         0       1       0       0       0
;;Total ram usage:        1 bytes
;; Hardware stack levels used:    1
;; Hardware stack levels required when called:    4
;; This function calls:
;;		Nothing
;; This function is called by:
;;		_USART_WriteString
;; This function uses a non-reentrant model
;;
psect	text7,local,class=CODE,delta=2,merge=1
	line	44
global __ptext7
__ptext7:	;psect for function _USART_WriteChar
psect	text7
	file	"C:\Users\Ninguem\Desktop\Trabalho Sistemas Inteligentes Cruzeiro\Retrab C no MPLAB\usart.c"
	line	44
	global	__size_of_USART_WriteChar
	__size_of_USART_WriteChar	equ	__end_of_USART_WriteChar-_USART_WriteChar
	
_USART_WriteChar:	
;incstack = 0
	opt	stack 2
; Regs used in _USART_WriteChar: [wreg]
;USART_WriteChar@byte stored from wreg
	bcf	status, 5	;RP0=0, select bank0
	bcf	status, 6	;RP1=0, select bank0
	movwf	(USART_WriteChar@byte)
	line	46
	
l2000:	
;usart.c: 46: while(!PIR1bits.TXIF);
	goto	l239
	
l240:	
	
l239:	
	btfss	(12),4	;volatile
	goto	u1481
	goto	u1480
u1481:
	goto	l239
u1480:
	goto	l2002
	
l241:	
	line	47
	
l2002:	
;usart.c: 47: TXREG = byte;
	movf	(USART_WriteChar@byte),w
	movwf	(25)	;volatile
	line	48
	
l242:	
	return
	opt stack 0
GLOBAL	__end_of_USART_WriteChar
	__end_of_USART_WriteChar:
	signat	_USART_WriteChar,4216
	global	_USART_Init

;; *************** function _USART_Init *****************
;; Defined at:
;;		line 6 in file "C:\Users\Ninguem\Desktop\Trabalho Sistemas Inteligentes Cruzeiro\Retrab C no MPLAB\usart.c"
;; Parameters:    Size  Location     Type
;;  BaudRate        4   19[BANK0 ] long 
;; Auto vars:     Size  Location     Type
;;		None
;; Return value:  Size  Location     Type
;;		None               void
;; Registers used:
;;		wreg, status,2, status,0, pclath, cstack
;; Tracked objects:
;;		On entry : 0/0
;;		On exit  : 0/0
;;		Unchanged: 0/0
;; Data sizes:     COMMON   BANK0   BANK1   BANK3   BANK2
;;      Params:         0       4       0       0       0
;;      Locals:         0       0       0       0       0
;;      Temps:          0       4       0       0       0
;;      Totals:         0       8       0       0       0
;;Total ram usage:        8 bytes
;; Hardware stack levels used:    1
;; Hardware stack levels required when called:    5
;; This function calls:
;;		___aldiv
;; This function is called by:
;;		_main
;; This function uses a non-reentrant model
;;
psect	text8,local,class=CODE,delta=2,merge=1
	line	6
global __ptext8
__ptext8:	;psect for function _USART_Init
psect	text8
	file	"C:\Users\Ninguem\Desktop\Trabalho Sistemas Inteligentes Cruzeiro\Retrab C no MPLAB\usart.c"
	line	6
	global	__size_of_USART_Init
	__size_of_USART_Init	equ	__end_of_USART_Init-_USART_Init
	
_USART_Init:	
;incstack = 0
	opt	stack 2
; Regs used in _USART_Init: [wreg+status,2+status,0+pclath+cstack]
	line	13
	
l2238:	
;usart.c: 13: SPBRG = (unsigned char)(18432000 / (16 * BaudRate)) - 1;
	bcf	status, 5	;RP0=0, select bank0
	bcf	status, 6	;RP1=0, select bank0
	movf	(USART_Init@BaudRate),w
	movwf	(??_USART_Init+0)+0
	movf	(USART_Init@BaudRate+1),w
	movwf	((??_USART_Init+0)+0+1)
	movf	(USART_Init@BaudRate+2),w
	movwf	((??_USART_Init+0)+0+2)
	movf	(USART_Init@BaudRate+3),w
	movwf	((??_USART_Init+0)+0+3)
	movlw	04h
u1975:
	clrc
	rlf	(??_USART_Init+0)+0,f
	rlf	(??_USART_Init+0)+1,f
	rlf	(??_USART_Init+0)+2,f
	rlf	(??_USART_Init+0)+3,f
u1970:
	addlw	-1
	skipz
	goto	u1975
	movf	3+(??_USART_Init+0)+0,w
	movwf	(___aldiv@divisor+3)
	movf	2+(??_USART_Init+0)+0,w
	movwf	(___aldiv@divisor+2)
	movf	1+(??_USART_Init+0)+0,w
	movwf	(___aldiv@divisor+1)
	movf	0+(??_USART_Init+0)+0,w
	movwf	(___aldiv@divisor)

	movlw	01h
	movwf	(___aldiv@dividend+3)
	movlw	019h
	movwf	(___aldiv@dividend+2)
	movlw	040h
	movwf	(___aldiv@dividend+1)
	movlw	0
	movwf	(___aldiv@dividend)

	fcall	___aldiv
	bcf	status, 5	;RP0=0, select bank0
	bcf	status, 6	;RP1=0, select bank0
	movf	0+(((0+(?___aldiv)))),w
	addlw	0FFh
	bsf	status, 5	;RP0=1, select bank1
	bcf	status, 6	;RP1=0, select bank1
	movwf	(153)^080h	;volatile
	line	16
	
l2240:	
;usart.c: 16: TXSTAbits.CSRC = 0;
	bcf	(152)^080h,7	;volatile
	line	17
	
l2242:	
;usart.c: 17: TXSTAbits.TX9 = 0;
	bcf	(152)^080h,6	;volatile
	line	18
	
l2244:	
;usart.c: 18: TXSTAbits.TXEN = 1;
	bsf	(152)^080h,5	;volatile
	line	19
	
l2246:	
;usart.c: 19: TXSTAbits.SYNC = 0;
	bcf	(152)^080h,4	;volatile
	line	21
	
l2248:	
;usart.c: 21: TXSTAbits.BRGH = 1;
	bsf	(152)^080h,2	;volatile
	line	22
	
l2250:	
;usart.c: 22: TXSTAbits.TRMT = 1;
	bsf	(152)^080h,1	;volatile
	line	23
	
l2252:	
;usart.c: 23: TXSTAbits.TX9D = 0;
	bcf	(152)^080h,0	;volatile
	line	26
	
l2254:	
;usart.c: 26: RCSTAbits.SPEN = 1;
	bcf	status, 5	;RP0=0, select bank0
	bcf	status, 6	;RP1=0, select bank0
	bsf	(24),7	;volatile
	line	27
	
l2256:	
;usart.c: 27: RCSTAbits.RX9 = 0;
	bcf	(24),6	;volatile
	line	28
	
l2258:	
;usart.c: 28: RCSTAbits.SREN = 0;
	bcf	(24),5	;volatile
	line	29
	
l2260:	
;usart.c: 29: RCSTAbits.CREN = 1;
	bsf	(24),4	;volatile
	line	30
	
l2262:	
;usart.c: 30: RCSTAbits.ADDEN = 0;
	bcf	(24),3	;volatile
	line	31
	
l2264:	
;usart.c: 31: RCSTAbits.FERR = 0;
	bcf	(24),2	;volatile
	line	32
	
l2266:	
;usart.c: 32: RCSTAbits.OERR = 0;
	bcf	(24),1	;volatile
	line	33
	
l2268:	
;usart.c: 33: RCSTAbits.RX9D = 0;
	bcf	(24),0	;volatile
	line	36
	
l2270:	
;usart.c: 36: PIE1bits.TXIE = 0;
	bsf	status, 5	;RP0=1, select bank1
	bcf	status, 6	;RP1=0, select bank1
	bcf	(140)^080h,4	;volatile
	line	37
	
l2272:	
;usart.c: 37: PIR1bits.TXIF = 0;
	bcf	status, 5	;RP0=0, select bank0
	bcf	status, 6	;RP1=0, select bank0
	bcf	(12),4	;volatile
	line	38
	
l2274:	
;usart.c: 38: PIE1bits.RCIE = 1;
	bsf	status, 5	;RP0=1, select bank1
	bcf	status, 6	;RP1=0, select bank1
	bsf	(140)^080h,5	;volatile
	line	39
	
l2276:	
;usart.c: 39: PIR1bits.RCIF = 0;
	bcf	status, 5	;RP0=0, select bank0
	bcf	status, 6	;RP1=0, select bank0
	bcf	(12),5	;volatile
	line	40
	
l236:	
	return
	opt stack 0
GLOBAL	__end_of_USART_Init
	__end_of_USART_Init:
	signat	_USART_Init,4216
	global	___aldiv

;; *************** function ___aldiv *****************
;; Defined at:
;;		line 6 in file "C:\Program Files (x86)\Microchip\xc8\v1.33\sources\common\aldiv.c"
;; Parameters:    Size  Location     Type
;;  divisor         4    4[BANK0 ] long 
;;  dividend        4    8[BANK0 ] long 
;; Auto vars:     Size  Location     Type
;;  quotient        4   15[BANK0 ] long 
;;  sign            1   14[BANK0 ] unsigned char 
;;  counter         1   13[BANK0 ] unsigned char 
;; Return value:  Size  Location     Type
;;                  4    4[BANK0 ] long 
;; Registers used:
;;		wreg, status,2, status,0
;; Tracked objects:
;;		On entry : 0/0
;;		On exit  : 0/0
;;		Unchanged: 0/0
;; Data sizes:     COMMON   BANK0   BANK1   BANK3   BANK2
;;      Params:         0       8       0       0       0
;;      Locals:         0       6       0       0       0
;;      Temps:          0       1       0       0       0
;;      Totals:         0      15       0       0       0
;;Total ram usage:       15 bytes
;; Hardware stack levels used:    1
;; Hardware stack levels required when called:    4
;; This function calls:
;;		Nothing
;; This function is called by:
;;		_USART_Init
;; This function uses a non-reentrant model
;;
psect	text9,local,class=CODE,delta=2,merge=1
	file	"C:\Program Files (x86)\Microchip\xc8\v1.33\sources\common\aldiv.c"
	line	6
global __ptext9
__ptext9:	;psect for function ___aldiv
psect	text9
	file	"C:\Program Files (x86)\Microchip\xc8\v1.33\sources\common\aldiv.c"
	line	6
	global	__size_of___aldiv
	__size_of___aldiv	equ	__end_of___aldiv-___aldiv
	
___aldiv:	
;incstack = 0
	opt	stack 2
; Regs used in ___aldiv: [wreg+status,2+status,0]
	line	14
	
l2044:	
	bcf	status, 5	;RP0=0, select bank0
	bcf	status, 6	;RP1=0, select bank0
	clrf	(___aldiv@sign)
	line	15
	
l2046:	
	btfss	(___aldiv@divisor+3),7
	goto	u1551
	goto	u1550
u1551:
	goto	l665
u1550:
	line	16
	
l2048:	
	comf	(___aldiv@divisor),f
	comf	(___aldiv@divisor+1),f
	comf	(___aldiv@divisor+2),f
	comf	(___aldiv@divisor+3),f
	incf	(___aldiv@divisor),f
	skipnz
	incf	(___aldiv@divisor+1),f
	skipnz
	incf	(___aldiv@divisor+2),f
	skipnz
	incf	(___aldiv@divisor+3),f
	line	17
	clrf	(___aldiv@sign)
	incf	(___aldiv@sign),f
	line	18
	
l665:	
	line	19
	btfss	(___aldiv@dividend+3),7
	goto	u1561
	goto	u1560
u1561:
	goto	l2054
u1560:
	line	20
	
l2050:	
	comf	(___aldiv@dividend),f
	comf	(___aldiv@dividend+1),f
	comf	(___aldiv@dividend+2),f
	comf	(___aldiv@dividend+3),f
	incf	(___aldiv@dividend),f
	skipnz
	incf	(___aldiv@dividend+1),f
	skipnz
	incf	(___aldiv@dividend+2),f
	skipnz
	incf	(___aldiv@dividend+3),f
	line	21
	
l2052:	
	movlw	(01h)
	movwf	(??___aldiv+0)+0
	movf	(??___aldiv+0)+0,w
	xorwf	(___aldiv@sign),f
	goto	l2054
	line	22
	
l666:	
	line	23
	
l2054:	
	movlw	0
	movwf	(___aldiv@quotient+3)
	movlw	0
	movwf	(___aldiv@quotient+2)
	movlw	0
	movwf	(___aldiv@quotient+1)
	movlw	0
	movwf	(___aldiv@quotient)

	line	24
	
l2056:	
	movf	(___aldiv@divisor+3),w
	iorwf	(___aldiv@divisor+2),w
	iorwf	(___aldiv@divisor+1),w
	iorwf	(___aldiv@divisor),w
	skipnz
	goto	u1571
	goto	u1570
u1571:
	goto	l2076
u1570:
	line	25
	
l2058:	
	clrf	(___aldiv@counter)
	incf	(___aldiv@counter),f
	line	26
	goto	l2062
	
l669:	
	line	27
	
l2060:	
	movlw	01h
	movwf	(??___aldiv+0)+0
u1585:
	clrc
	rlf	(___aldiv@divisor),f
	rlf	(___aldiv@divisor+1),f
	rlf	(___aldiv@divisor+2),f
	rlf	(___aldiv@divisor+3),f
	decfsz	(??___aldiv+0)+0
	goto	u1585
	line	28
	movlw	(01h)
	movwf	(??___aldiv+0)+0
	movf	(??___aldiv+0)+0,w
	addwf	(___aldiv@counter),f
	goto	l2062
	line	29
	
l668:	
	line	26
	
l2062:	
	btfss	(___aldiv@divisor+3),(31)&7
	goto	u1591
	goto	u1590
u1591:
	goto	l2060
u1590:
	goto	l2064
	
l670:	
	goto	l2064
	line	30
	
l671:	
	line	31
	
l2064:	
	movlw	01h
	movwf	(??___aldiv+0)+0
u1605:
	clrc
	rlf	(___aldiv@quotient),f
	rlf	(___aldiv@quotient+1),f
	rlf	(___aldiv@quotient+2),f
	rlf	(___aldiv@quotient+3),f
	decfsz	(??___aldiv+0)+0
	goto	u1605
	line	32
	
l2066:	
	movf	(___aldiv@divisor+3),w
	subwf	(___aldiv@dividend+3),w
	skipz
	goto	u1615
	movf	(___aldiv@divisor+2),w
	subwf	(___aldiv@dividend+2),w
	skipz
	goto	u1615
	movf	(___aldiv@divisor+1),w
	subwf	(___aldiv@dividend+1),w
	skipz
	goto	u1615
	movf	(___aldiv@divisor),w
	subwf	(___aldiv@dividend),w
u1615:
	skipc
	goto	u1611
	goto	u1610
u1611:
	goto	l2072
u1610:
	line	33
	
l2068:	
	movf	(___aldiv@divisor),w
	subwf	(___aldiv@dividend),f
	movf	(___aldiv@divisor+1),w
	skipc
	incfsz	(___aldiv@divisor+1),w
	subwf	(___aldiv@dividend+1),f
	movf	(___aldiv@divisor+2),w
	skipc
	incfsz	(___aldiv@divisor+2),w
	subwf	(___aldiv@dividend+2),f
	movf	(___aldiv@divisor+3),w
	skipc
	incfsz	(___aldiv@divisor+3),w
	subwf	(___aldiv@dividend+3),f
	line	34
	
l2070:	
	bsf	(___aldiv@quotient)+(0/8),(0)&7
	goto	l2072
	line	35
	
l672:	
	line	36
	
l2072:	
	movlw	01h
u1625:
	clrc
	rrf	(___aldiv@divisor+3),f
	rrf	(___aldiv@divisor+2),f
	rrf	(___aldiv@divisor+1),f
	rrf	(___aldiv@divisor),f
	addlw	-1
	skipz
	goto	u1625

	line	37
	
l2074:	
	movlw	low(01h)
	subwf	(___aldiv@counter),f
	btfss	status,2
	goto	u1631
	goto	u1630
u1631:
	goto	l2064
u1630:
	goto	l2076
	
l673:	
	goto	l2076
	line	38
	
l667:	
	line	39
	
l2076:	
	movf	(___aldiv@sign),w
	skipz
	goto	u1640
	goto	l2080
u1640:
	line	40
	
l2078:	
	comf	(___aldiv@quotient),f
	comf	(___aldiv@quotient+1),f
	comf	(___aldiv@quotient+2),f
	comf	(___aldiv@quotient+3),f
	incf	(___aldiv@quotient),f
	skipnz
	incf	(___aldiv@quotient+1),f
	skipnz
	incf	(___aldiv@quotient+2),f
	skipnz
	incf	(___aldiv@quotient+3),f
	goto	l2080
	
l674:	
	line	41
	
l2080:	
	movf	(___aldiv@quotient+3),w
	movwf	(?___aldiv+3)
	movf	(___aldiv@quotient+2),w
	movwf	(?___aldiv+2)
	movf	(___aldiv@quotient+1),w
	movwf	(?___aldiv+1)
	movf	(___aldiv@quotient),w
	movwf	(?___aldiv)

	goto	l675
	
l2082:	
	line	42
	
l675:	
	return
	opt stack 0
GLOBAL	__end_of___aldiv
	__end_of___aldiv:
	signat	___aldiv,8316
	global	_TIMER0_Set

;; *************** function _TIMER0_Set *****************
;; Defined at:
;;		line 20 in file "C:\Users\Ninguem\Desktop\Trabalho Sistemas Inteligentes Cruzeiro\Retrab C no MPLAB\timers.c"
;; Parameters:    Size  Location     Type
;;  contagens       1    wreg     unsigned char 
;; Auto vars:     Size  Location     Type
;;  contagens       1    4[BANK0 ] unsigned char 
;; Return value:  Size  Location     Type
;;		None               void
;; Registers used:
;;		wreg
;; Tracked objects:
;;		On entry : 0/0
;;		On exit  : 0/0
;;		Unchanged: 0/0
;; Data sizes:     COMMON   BANK0   BANK1   BANK3   BANK2
;;      Params:         0       0       0       0       0
;;      Locals:         0       1       0       0       0
;;      Temps:          0       0       0       0       0
;;      Totals:         0       1       0       0       0
;;Total ram usage:        1 bytes
;; Hardware stack levels used:    1
;; Hardware stack levels required when called:    4
;; This function calls:
;;		Nothing
;; This function is called by:
;;		_main
;; This function uses a non-reentrant model
;;
psect	text10,local,class=CODE,delta=2,merge=1
	file	"C:\Users\Ninguem\Desktop\Trabalho Sistemas Inteligentes Cruzeiro\Retrab C no MPLAB\timers.c"
	line	20
global __ptext10
__ptext10:	;psect for function _TIMER0_Set
psect	text10
	file	"C:\Users\Ninguem\Desktop\Trabalho Sistemas Inteligentes Cruzeiro\Retrab C no MPLAB\timers.c"
	line	20
	global	__size_of_TIMER0_Set
	__size_of_TIMER0_Set	equ	__end_of_TIMER0_Set-_TIMER0_Set
	
_TIMER0_Set:	
;incstack = 0
	opt	stack 3
; Regs used in _TIMER0_Set: [wreg]
;TIMER0_Set@contagens stored from wreg
	bcf	status, 5	;RP0=0, select bank0
	bcf	status, 6	;RP1=0, select bank0
	movwf	(TIMER0_Set@contagens)
	line	22
	
l2236:	
;timers.c: 22: TMR0 = contagens;
	movf	(TIMER0_Set@contagens),w
	movwf	(1)	;volatile
	line	23
	
l296:	
	return
	opt stack 0
GLOBAL	__end_of_TIMER0_Set
	__end_of_TIMER0_Set:
	signat	_TIMER0_Set,4216
	global	_TIMER0_Init

;; *************** function _TIMER0_Init *****************
;; Defined at:
;;		line 6 in file "C:\Users\Ninguem\Desktop\Trabalho Sistemas Inteligentes Cruzeiro\Retrab C no MPLAB\timers.c"
;; Parameters:    Size  Location     Type
;;		None
;; Auto vars:     Size  Location     Type
;;		None
;; Return value:  Size  Location     Type
;;		None               void
;; Registers used:
;;		None
;; Tracked objects:
;;		On entry : 0/0
;;		On exit  : 0/0
;;		Unchanged: 0/0
;; Data sizes:     COMMON   BANK0   BANK1   BANK3   BANK2
;;      Params:         0       0       0       0       0
;;      Locals:         0       0       0       0       0
;;      Temps:          0       0       0       0       0
;;      Totals:         0       0       0       0       0
;;Total ram usage:        0 bytes
;; Hardware stack levels used:    1
;; Hardware stack levels required when called:    4
;; This function calls:
;;		Nothing
;; This function is called by:
;;		_main
;; This function uses a non-reentrant model
;;
psect	text11,local,class=CODE,delta=2,merge=1
	line	6
global __ptext11
__ptext11:	;psect for function _TIMER0_Init
psect	text11
	file	"C:\Users\Ninguem\Desktop\Trabalho Sistemas Inteligentes Cruzeiro\Retrab C no MPLAB\timers.c"
	line	6
	global	__size_of_TIMER0_Init
	__size_of_TIMER0_Init	equ	__end_of_TIMER0_Init-_TIMER0_Init
	
_TIMER0_Init:	
;incstack = 0
	opt	stack 3
; Regs used in _TIMER0_Init: []
	line	8
	
l2278:	
;timers.c: 8: OPTION_REGbits.T0CS = 0;
	bsf	status, 5	;RP0=1, select bank1
	bcf	status, 6	;RP1=0, select bank1
	bcf	(129)^080h,5	;volatile
	line	9
;timers.c: 9: OPTION_REGbits.T0SE = 0;
	bcf	(129)^080h,4	;volatile
	line	10
;timers.c: 10: OPTION_REGbits.PSA = 0;
	bcf	(129)^080h,3	;volatile
	line	11
;timers.c: 11: OPTION_REGbits.PS2 = 1;
	bsf	(129)^080h,2	;volatile
	line	12
;timers.c: 12: OPTION_REGbits.PS1 = 1;
	bsf	(129)^080h,1	;volatile
	line	13
;timers.c: 13: OPTION_REGbits.PS0 = 1;
	bsf	(129)^080h,0	;volatile
	line	14
;timers.c: 14: INTCONbits.TMR0IF = 0;
	bcf	(11),2	;volatile
	line	15
;timers.c: 15: INTCONbits.TMR0IE = 1;
	bsf	(11),5	;volatile
	line	16
	
l293:	
	return
	opt stack 0
GLOBAL	__end_of_TIMER0_Init
	__end_of_TIMER0_Init:
	signat	_TIMER0_Init,88
	global	_PWM_Init

;; *************** function _PWM_Init *****************
;; Defined at:
;;		line 5 in file "C:\Users\Ninguem\Desktop\Trabalho Sistemas Inteligentes Cruzeiro\Retrab C no MPLAB\pwm.c"
;; Parameters:    Size  Location     Type
;;		None
;; Auto vars:     Size  Location     Type
;;		None
;; Return value:  Size  Location     Type
;;		None               void
;; Registers used:
;;		wreg
;; Tracked objects:
;;		On entry : 0/0
;;		On exit  : 0/0
;;		Unchanged: 0/0
;; Data sizes:     COMMON   BANK0   BANK1   BANK3   BANK2
;;      Params:         0       0       0       0       0
;;      Locals:         0       0       0       0       0
;;      Temps:          0       0       0       0       0
;;      Totals:         0       0       0       0       0
;;Total ram usage:        0 bytes
;; Hardware stack levels used:    1
;; Hardware stack levels required when called:    4
;; This function calls:
;;		Nothing
;; This function is called by:
;;		_main
;; This function uses a non-reentrant model
;;
psect	text12,local,class=CODE,delta=2,merge=1
	file	"C:\Users\Ninguem\Desktop\Trabalho Sistemas Inteligentes Cruzeiro\Retrab C no MPLAB\pwm.c"
	line	5
global __ptext12
__ptext12:	;psect for function _PWM_Init
psect	text12
	file	"C:\Users\Ninguem\Desktop\Trabalho Sistemas Inteligentes Cruzeiro\Retrab C no MPLAB\pwm.c"
	line	5
	global	__size_of_PWM_Init
	__size_of_PWM_Init	equ	__end_of_PWM_Init-_PWM_Init
	
_PWM_Init:	
;incstack = 0
	opt	stack 3
; Regs used in _PWM_Init: [wreg]
	line	14
	
l2282:	
;pwm.c: 14: T2CONbits.T2CKPS1 = 1;
	bcf	status, 5	;RP0=0, select bank0
	bcf	status, 6	;RP1=0, select bank0
	bsf	(18),1	;volatile
	line	15
;pwm.c: 15: T2CONbits.T2CKPS0 = 0;
	bcf	(18),0	;volatile
	line	18
;pwm.c: 18: T2CONbits.TOUTPS3 = 0;
	bcf	(18),6	;volatile
	line	19
;pwm.c: 19: T2CONbits.TOUTPS2 = 0;
	bcf	(18),5	;volatile
	line	20
;pwm.c: 20: T2CONbits.TOUTPS1 = 0;
	bcf	(18),4	;volatile
	line	21
;pwm.c: 21: T2CONbits.TOUTPS0 = 0;
	bcf	(18),3	;volatile
	line	24
;pwm.c: 24: T2CONbits.TMR2ON = 1;
	bsf	(18),2	;volatile
	line	27
	
l2284:	
;pwm.c: 27: PR2 = 255;
	movlw	(0FFh)
	bsf	status, 5	;RP0=1, select bank1
	bcf	status, 6	;RP1=0, select bank1
	movwf	(146)^080h	;volatile
	line	43
	
l2286:	
;pwm.c: 43: CCP1CONbits.CCP1M3 = 1;
	bcf	status, 5	;RP0=0, select bank0
	bcf	status, 6	;RP1=0, select bank0
	bsf	(23),3	;volatile
	line	44
	
l2288:	
;pwm.c: 44: CCP1CONbits.CCP1M2 = 1;
	bsf	(23),2	;volatile
	line	45
	
l2290:	
;pwm.c: 45: CCP1CONbits.CCP1M1 = 1;
	bsf	(23),1	;volatile
	line	46
	
l2292:	
;pwm.c: 46: CCP1CONbits.CCP1M0 = 1;
	bsf	(23),0	;volatile
	line	49
	
l2294:	
;pwm.c: 49: PIE1bits.CCP1IE = 1;
	bsf	status, 5	;RP0=1, select bank1
	bcf	status, 6	;RP1=0, select bank1
	bsf	(140)^080h,2	;volatile
	line	50
	
l2296:	
;pwm.c: 50: PIR1bits.CCP1IF = 0;
	bcf	status, 5	;RP0=0, select bank0
	bcf	status, 6	;RP1=0, select bank0
	bcf	(12),2	;volatile
	line	53
	
l2298:	
;pwm.c: 53: CCP2CONbits.CCP2M3 = 1;
	bsf	(29),3	;volatile
	line	54
	
l2300:	
;pwm.c: 54: CCP2CONbits.CCP2M2 = 1;
	bsf	(29),2	;volatile
	line	55
	
l2302:	
;pwm.c: 55: CCP2CONbits.CCP2M1 = 1;
	bsf	(29),1	;volatile
	line	56
	
l2304:	
;pwm.c: 56: CCP2CONbits.CCP2M0 = 1;
	bsf	(29),0	;volatile
	line	59
	
l2306:	
;pwm.c: 59: PIE2bits.CCP2IE = 1;
	bsf	status, 5	;RP0=1, select bank1
	bcf	status, 6	;RP1=0, select bank1
	bsf	(141)^080h,0	;volatile
	line	60
	
l2308:	
;pwm.c: 60: PIR2bits.CCP2IF = 0;
	bcf	status, 5	;RP0=0, select bank0
	bcf	status, 6	;RP1=0, select bank0
	bcf	(13),0	;volatile
	line	61
	
l444:	
	return
	opt stack 0
GLOBAL	__end_of_PWM_Init
	__end_of_PWM_Init:
	signat	_PWM_Init,88
	global	_PWM_DutyCycle2

;; *************** function _PWM_DutyCycle2 *****************
;; Defined at:
;;		line 96 in file "C:\Users\Ninguem\Desktop\Trabalho Sistemas Inteligentes Cruzeiro\Retrab C no MPLAB\pwm.c"
;; Parameters:    Size  Location     Type
;;  valor           2    4[BANK0 ] int 
;; Auto vars:     Size  Location     Type
;;		None
;; Return value:  Size  Location     Type
;;		None               void
;; Registers used:
;;		wreg, status,2, status,0
;; Tracked objects:
;;		On entry : 0/0
;;		On exit  : 0/0
;;		Unchanged: 0/0
;; Data sizes:     COMMON   BANK0   BANK1   BANK3   BANK2
;;      Params:         0       2       0       0       0
;;      Locals:         0       0       0       0       0
;;      Temps:          0       2       0       0       0
;;      Totals:         0       4       0       0       0
;;Total ram usage:        4 bytes
;; Hardware stack levels used:    1
;; Hardware stack levels required when called:    4
;; This function calls:
;;		Nothing
;; This function is called by:
;;		_main
;;		_Fuzzy
;; This function uses a non-reentrant model
;;
psect	text13,local,class=CODE,delta=2,merge=1
	line	96
global __ptext13
__ptext13:	;psect for function _PWM_DutyCycle2
psect	text13
	file	"C:\Users\Ninguem\Desktop\Trabalho Sistemas Inteligentes Cruzeiro\Retrab C no MPLAB\pwm.c"
	line	96
	global	__size_of_PWM_DutyCycle2
	__size_of_PWM_DutyCycle2	equ	__end_of_PWM_DutyCycle2-_PWM_DutyCycle2
	
_PWM_DutyCycle2:	
;incstack = 0
	opt	stack 3
; Regs used in _PWM_DutyCycle2: [wreg+status,2+status,0]
	line	98
	
l2204:	
;pwm.c: 98: CCPR2L = valor >> 2;
	bcf	status, 5	;RP0=0, select bank0
	bcf	status, 6	;RP1=0, select bank0
	movf	(PWM_DutyCycle2@valor+1),w
	movwf	(??_PWM_DutyCycle2+0)+0+1
	movf	(PWM_DutyCycle2@valor),w
	movwf	(??_PWM_DutyCycle2+0)+0
	rlf	(??_PWM_DutyCycle2+0)+1,w
	rrf	(??_PWM_DutyCycle2+0)+1,f
	rrf	(??_PWM_DutyCycle2+0)+0,f
	rlf	(??_PWM_DutyCycle2+0)+1,w
	rrf	(??_PWM_DutyCycle2+0)+1,f
	rrf	(??_PWM_DutyCycle2+0)+0,f
	movf	0+(??_PWM_DutyCycle2+0)+0,w
	movwf	(27)	;volatile
	line	99
	
l2206:	
;pwm.c: 99: CCP2CON = (valor << 4)|0X0C;
	movf	(PWM_DutyCycle2@valor),w
	movwf	(??_PWM_DutyCycle2+0)+0
	movlw	(04h)-1
u1945:
	clrc
	rlf	(??_PWM_DutyCycle2+0)+0,f
	addlw	-1
	skipz
	goto	u1945
	clrc
	rlf	(??_PWM_DutyCycle2+0)+0,w
	iorlw	0Ch
	movwf	(29)	;volatile
	line	100
	
l450:	
	return
	opt stack 0
GLOBAL	__end_of_PWM_DutyCycle2
	__end_of_PWM_DutyCycle2:
	signat	_PWM_DutyCycle2,4216
	global	_PWM_DutyCycle1

;; *************** function _PWM_DutyCycle1 *****************
;; Defined at:
;;		line 64 in file "C:\Users\Ninguem\Desktop\Trabalho Sistemas Inteligentes Cruzeiro\Retrab C no MPLAB\pwm.c"
;; Parameters:    Size  Location     Type
;;  valor           2    4[BANK0 ] int 
;; Auto vars:     Size  Location     Type
;;		None
;; Return value:  Size  Location     Type
;;		None               void
;; Registers used:
;;		wreg, status,2, status,0
;; Tracked objects:
;;		On entry : 0/0
;;		On exit  : 0/0
;;		Unchanged: 0/0
;; Data sizes:     COMMON   BANK0   BANK1   BANK3   BANK2
;;      Params:         0       2       0       0       0
;;      Locals:         0       0       0       0       0
;;      Temps:          0       2       0       0       0
;;      Totals:         0       4       0       0       0
;;Total ram usage:        4 bytes
;; Hardware stack levels used:    1
;; Hardware stack levels required when called:    4
;; This function calls:
;;		Nothing
;; This function is called by:
;;		_main
;; This function uses a non-reentrant model
;;
psect	text14,local,class=CODE,delta=2,merge=1
	line	64
global __ptext14
__ptext14:	;psect for function _PWM_DutyCycle1
psect	text14
	file	"C:\Users\Ninguem\Desktop\Trabalho Sistemas Inteligentes Cruzeiro\Retrab C no MPLAB\pwm.c"
	line	64
	global	__size_of_PWM_DutyCycle1
	__size_of_PWM_DutyCycle1	equ	__end_of_PWM_DutyCycle1-_PWM_DutyCycle1
	
_PWM_DutyCycle1:	
;incstack = 0
	opt	stack 3
; Regs used in _PWM_DutyCycle1: [wreg+status,2+status,0]
	line	91
	
l2356:	
;pwm.c: 91: CCPR1L = valor >> 2;
	bcf	status, 5	;RP0=0, select bank0
	bcf	status, 6	;RP1=0, select bank0
	movf	(PWM_DutyCycle1@valor+1),w
	movwf	(??_PWM_DutyCycle1+0)+0+1
	movf	(PWM_DutyCycle1@valor),w
	movwf	(??_PWM_DutyCycle1+0)+0
	rlf	(??_PWM_DutyCycle1+0)+1,w
	rrf	(??_PWM_DutyCycle1+0)+1,f
	rrf	(??_PWM_DutyCycle1+0)+0,f
	rlf	(??_PWM_DutyCycle1+0)+1,w
	rrf	(??_PWM_DutyCycle1+0)+1,f
	rrf	(??_PWM_DutyCycle1+0)+0,f
	movf	0+(??_PWM_DutyCycle1+0)+0,w
	movwf	(21)	;volatile
	line	92
	
l2358:	
;pwm.c: 92: CCP1CON = (valor << 4)|0X0C;
	movf	(PWM_DutyCycle1@valor),w
	movwf	(??_PWM_DutyCycle1+0)+0
	movlw	(04h)-1
u2005:
	clrc
	rlf	(??_PWM_DutyCycle1+0)+0,f
	addlw	-1
	skipz
	goto	u2005
	clrc
	rlf	(??_PWM_DutyCycle1+0)+0,w
	iorlw	0Ch
	movwf	(23)	;volatile
	line	94
	
l447:	
	return
	opt stack 0
GLOBAL	__end_of_PWM_DutyCycle1
	__end_of_PWM_DutyCycle1:
	signat	_PWM_DutyCycle1,4216
	global	_LCD_WriteString

;; *************** function _LCD_WriteString *****************
;; Defined at:
;;		line 61 in file "C:\Users\Ninguem\Desktop\Trabalho Sistemas Inteligentes Cruzeiro\Retrab C no MPLAB\lcd.c"
;; Parameters:    Size  Location     Type
;;  Str             2    6[BANK0 ] PTR const unsigned char 
;;		 -> STR_18(6), STR_17(6), display_pwm(10), display_rpm(10), 
;;		 -> STR_13(17), 
;; Auto vars:     Size  Location     Type
;;		None
;; Return value:  Size  Location     Type
;;		None               void
;; Registers used:
;;		wreg, fsr0l, fsr0h, status,2, status,0, btemp+1, pclath, cstack
;; Tracked objects:
;;		On entry : 0/0
;;		On exit  : 0/0
;;		Unchanged: 0/0
;; Data sizes:     COMMON   BANK0   BANK1   BANK3   BANK2
;;      Params:         0       2       0       0       0
;;      Locals:         0       0       0       0       0
;;      Temps:          0       0       0       0       0
;;      Totals:         0       2       0       0       0
;;Total ram usage:        2 bytes
;; Hardware stack levels used:    1
;; Hardware stack levels required when called:    5
;; This function calls:
;;		_LCD_WriteData
;; This function is called by:
;;		_main
;; This function uses a non-reentrant model
;;
psect	text15,local,class=CODE,delta=2,merge=1
	file	"C:\Users\Ninguem\Desktop\Trabalho Sistemas Inteligentes Cruzeiro\Retrab C no MPLAB\lcd.c"
	line	61
global __ptext15
__ptext15:	;psect for function _LCD_WriteString
psect	text15
	file	"C:\Users\Ninguem\Desktop\Trabalho Sistemas Inteligentes Cruzeiro\Retrab C no MPLAB\lcd.c"
	line	61
	global	__size_of_LCD_WriteString
	__size_of_LCD_WriteString	equ	__end_of_LCD_WriteString-_LCD_WriteString
	
_LCD_WriteString:	
;incstack = 0
	opt	stack 2
; Regs used in _LCD_WriteString: [wreg-fsr0h+status,2+status,0+btemp+1+pclath+cstack]
	line	63
	
l2348:	
;lcd.c: 63: while(*Str != '\0')
	goto	l2354
	
l325:	
	line	65
	
l2350:	
;lcd.c: 64: {
;lcd.c: 65: LCD_WriteData(*Str);
	bcf	status, 5	;RP0=0, select bank0
	bcf	status, 6	;RP1=0, select bank0
	movf	(LCD_WriteString@Str+1),w
	movwf	btemp+1
	movf	(LCD_WriteString@Str),w
	movwf	fsr0
	fcall	stringtab
	fcall	_LCD_WriteData
	line	66
	
l2352:	
;lcd.c: 66: Str++;
	movlw	01h
	bcf	status, 5	;RP0=0, select bank0
	bcf	status, 6	;RP1=0, select bank0
	addwf	(LCD_WriteString@Str),f
	skipnc
	incf	(LCD_WriteString@Str+1),f
	goto	l2354
	line	67
	
l324:	
	line	63
	
l2354:	
	bcf	status, 5	;RP0=0, select bank0
	bcf	status, 6	;RP1=0, select bank0
	movf	(LCD_WriteString@Str+1),w
	movwf	btemp+1
	movf	(LCD_WriteString@Str),w
	movwf	fsr0
	fcall	stringtab
	iorlw	0
	skipz
	goto	u1991
	goto	u1990
u1991:
	goto	l2350
u1990:
	goto	l327
	
l326:	
	line	68
	
l327:	
	return
	opt stack 0
GLOBAL	__end_of_LCD_WriteString
	__end_of_LCD_WriteString:
	signat	_LCD_WriteString,4216
	global	_LCD_WriteData

;; *************** function _LCD_WriteData *****************
;; Defined at:
;;		line 47 in file "C:\Users\Ninguem\Desktop\Trabalho Sistemas Inteligentes Cruzeiro\Retrab C no MPLAB\lcd.c"
;; Parameters:    Size  Location     Type
;;  Byte            1    wreg     unsigned char 
;; Auto vars:     Size  Location     Type
;;  Byte            1    5[BANK0 ] unsigned char 
;; Return value:  Size  Location     Type
;;		None               void
;; Registers used:
;;		wreg
;; Tracked objects:
;;		On entry : 0/0
;;		On exit  : 0/0
;;		Unchanged: 0/0
;; Data sizes:     COMMON   BANK0   BANK1   BANK3   BANK2
;;      Params:         0       0       0       0       0
;;      Locals:         0       1       0       0       0
;;      Temps:          0       1       0       0       0
;;      Totals:         0       2       0       0       0
;;Total ram usage:        2 bytes
;; Hardware stack levels used:    1
;; Hardware stack levels required when called:    4
;; This function calls:
;;		Nothing
;; This function is called by:
;;		_LCD_WriteString
;; This function uses a non-reentrant model
;;
psect	text16,local,class=CODE,delta=2,merge=1
	line	47
global __ptext16
__ptext16:	;psect for function _LCD_WriteData
psect	text16
	file	"C:\Users\Ninguem\Desktop\Trabalho Sistemas Inteligentes Cruzeiro\Retrab C no MPLAB\lcd.c"
	line	47
	global	__size_of_LCD_WriteData
	__size_of_LCD_WriteData	equ	__end_of_LCD_WriteData-_LCD_WriteData
	
_LCD_WriteData:	
;incstack = 0
	opt	stack 2
; Regs used in _LCD_WriteData: [wreg]
;LCD_WriteData@Byte stored from wreg
	bcf	status, 5	;RP0=0, select bank0
	bcf	status, 6	;RP1=0, select bank0
	movwf	(LCD_WriteData@Byte)
	line	49
	
l2012:	
;lcd.c: 49: PORTEbits.RE0 = 1;
	bsf	(9),0	;volatile
	line	51
	
l2014:	
;lcd.c: 51: PORTD = Byte;
	movf	(LCD_WriteData@Byte),w
	movwf	(8)	;volatile
	line	53
	
l2016:	
;lcd.c: 53: PORTEbits.RE1 = 1;
	bsf	(9),1	;volatile
	line	55
;lcd.c: 55: _delay((unsigned long)((40)*(18432000/4000000.0)));
	opt asmopt_off
movlw	61
movwf	(??_LCD_WriteData+0)+0,f
u3557:
decfsz	(??_LCD_WriteData+0)+0,f
	goto	u3557
opt asmopt_on

	line	57
	
l2018:	
;lcd.c: 57: PORTEbits.RE1 = 0;
	bcf	status, 5	;RP0=0, select bank0
	bcf	status, 6	;RP1=0, select bank0
	bcf	(9),1	;volatile
	line	58
	
l321:	
	return
	opt stack 0
GLOBAL	__end_of_LCD_WriteData
	__end_of_LCD_WriteData:
	signat	_LCD_WriteData,4216
	global	_LCD_Init

;; *************** function _LCD_Init *****************
;; Defined at:
;;		line 87 in file "C:\Users\Ninguem\Desktop\Trabalho Sistemas Inteligentes Cruzeiro\Retrab C no MPLAB\lcd.c"
;; Parameters:    Size  Location     Type
;;		None
;; Auto vars:     Size  Location     Type
;;		None
;; Return value:  Size  Location     Type
;;		None               void
;; Registers used:
;;		wreg, status,2, status,0, pclath, cstack
;; Tracked objects:
;;		On entry : 0/0
;;		On exit  : 0/0
;;		Unchanged: 0/0
;; Data sizes:     COMMON   BANK0   BANK1   BANK3   BANK2
;;      Params:         0       0       0       0       0
;;      Locals:         0       0       0       0       0
;;      Temps:          0       2       0       0       0
;;      Totals:         0       2       0       0       0
;;Total ram usage:        2 bytes
;; Hardware stack levels used:    1
;; Hardware stack levels required when called:    5
;; This function calls:
;;		_LCD_WriteCmd
;; This function is called by:
;;		_main
;; This function uses a non-reentrant model
;;
psect	text17,local,class=CODE,delta=2,merge=1
	line	87
global __ptext17
__ptext17:	;psect for function _LCD_Init
psect	text17
	file	"C:\Users\Ninguem\Desktop\Trabalho Sistemas Inteligentes Cruzeiro\Retrab C no MPLAB\lcd.c"
	line	87
	global	__size_of_LCD_Init
	__size_of_LCD_Init	equ	__end_of_LCD_Init-_LCD_Init
	
_LCD_Init:	
;incstack = 0
	opt	stack 2
; Regs used in _LCD_Init: [wreg+status,2+status,0+pclath+cstack]
	line	90
	
l2310:	
;lcd.c: 90: ADCON1bits.PCFG3 = 0;
	bsf	status, 5	;RP0=1, select bank1
	bcf	status, 6	;RP1=0, select bank1
	bcf	(159)^080h,3	;volatile
	line	91
;lcd.c: 91: ADCON1bits.PCFG2 = 1;
	bsf	(159)^080h,2	;volatile
	line	92
;lcd.c: 92: ADCON1bits.PCFG1 = 0;
	bcf	(159)^080h,1	;volatile
	line	93
;lcd.c: 93: ADCON1bits.PCFG0 = 0;
	bcf	(159)^080h,0	;volatile
	line	95
	
l2312:	
;lcd.c: 95: _delay((unsigned long)((15)*(18432000/4000.0)));
	opt asmopt_off
movlw	90
	bcf	status, 5	;RP0=0, select bank0
	bcf	status, 6	;RP1=0, select bank0
movwf	((??_LCD_Init+0)+0+1),f
	movlw	195
movwf	((??_LCD_Init+0)+0),f
u3567:
	decfsz	((??_LCD_Init+0)+0),f
	goto	u3567
	decfsz	((??_LCD_Init+0)+0+1),f
	goto	u3567
opt asmopt_on

	line	97
	
l2314:	
;lcd.c: 97: LCD_WriteCmd(0x30);
	movlw	(030h)
	fcall	_LCD_WriteCmd
	line	98
	
l2316:	
;lcd.c: 98: _delay((unsigned long)((4)*(18432000/4000.0)));
	opt asmopt_off
movlw	24
	bcf	status, 5	;RP0=0, select bank0
	bcf	status, 6	;RP1=0, select bank0
movwf	((??_LCD_Init+0)+0+1),f
	movlw	239
movwf	((??_LCD_Init+0)+0),f
u3577:
	decfsz	((??_LCD_Init+0)+0),f
	goto	u3577
	decfsz	((??_LCD_Init+0)+0+1),f
	goto	u3577
opt asmopt_on

	line	100
;lcd.c: 100: LCD_WriteCmd(0x30);
	movlw	(030h)
	fcall	_LCD_WriteCmd
	line	101
	
l2318:	
;lcd.c: 101: _delay((unsigned long)((100)*(18432000/4000000.0)));
	opt asmopt_off
movlw	153
	bcf	status, 5	;RP0=0, select bank0
	bcf	status, 6	;RP1=0, select bank0
movwf	(??_LCD_Init+0)+0,f
u3587:
decfsz	(??_LCD_Init+0)+0,f
	goto	u3587
opt asmopt_on

	line	103
	
l2320:	
;lcd.c: 103: LCD_WriteCmd(0x30);
	movlw	(030h)
	fcall	_LCD_WriteCmd
	line	104
;lcd.c: 104: _delay((unsigned long)((40)*(18432000/4000000.0)));
	opt asmopt_off
movlw	61
	bcf	status, 5	;RP0=0, select bank0
	bcf	status, 6	;RP1=0, select bank0
movwf	(??_LCD_Init+0)+0,f
u3597:
decfsz	(??_LCD_Init+0)+0,f
	goto	u3597
opt asmopt_on

	line	106
	
l2322:	
;lcd.c: 106: LCD_WriteCmd(0x38);
	movlw	(038h)
	fcall	_LCD_WriteCmd
	line	107
	
l2324:	
;lcd.c: 107: _delay((unsigned long)((40)*(18432000/4000000.0)));
	opt asmopt_off
movlw	61
	bcf	status, 5	;RP0=0, select bank0
	bcf	status, 6	;RP1=0, select bank0
movwf	(??_LCD_Init+0)+0,f
u3607:
decfsz	(??_LCD_Init+0)+0,f
	goto	u3607
opt asmopt_on

	line	109
;lcd.c: 109: LCD_WriteCmd(0x01);
	movlw	(01h)
	fcall	_LCD_WriteCmd
	line	110
	
l2326:	
;lcd.c: 110: _delay((unsigned long)((2)*(18432000/4000.0)));
	opt asmopt_off
movlw	12
	bcf	status, 5	;RP0=0, select bank0
	bcf	status, 6	;RP1=0, select bank0
movwf	((??_LCD_Init+0)+0+1),f
	movlw	247
movwf	((??_LCD_Init+0)+0),f
u3617:
	decfsz	((??_LCD_Init+0)+0),f
	goto	u3617
	decfsz	((??_LCD_Init+0)+0+1),f
	goto	u3617
opt asmopt_on

	line	112
	
l2328:	
;lcd.c: 112: LCD_WriteCmd(0x0C);
	movlw	(0Ch)
	fcall	_LCD_WriteCmd
	line	113
;lcd.c: 113: _delay((unsigned long)((40)*(18432000/4000000.0)));
	opt asmopt_off
movlw	61
	bcf	status, 5	;RP0=0, select bank0
	bcf	status, 6	;RP1=0, select bank0
movwf	(??_LCD_Init+0)+0,f
u3627:
decfsz	(??_LCD_Init+0)+0,f
	goto	u3627
opt asmopt_on

	line	115
	
l2330:	
;lcd.c: 115: LCD_WriteCmd(0x06);
	movlw	(06h)
	fcall	_LCD_WriteCmd
	line	116
	
l2332:	
;lcd.c: 116: _delay((unsigned long)((40)*(18432000/4000000.0)));
	opt asmopt_off
movlw	61
	bcf	status, 5	;RP0=0, select bank0
	bcf	status, 6	;RP1=0, select bank0
movwf	(??_LCD_Init+0)+0,f
u3637:
decfsz	(??_LCD_Init+0)+0,f
	goto	u3637
opt asmopt_on

	line	117
	
l333:	
	return
	opt stack 0
GLOBAL	__end_of_LCD_Init
	__end_of_LCD_Init:
	signat	_LCD_Init,88
	global	_LCD_Cursor

;; *************** function _LCD_Cursor *****************
;; Defined at:
;;		line 10 in file "C:\Users\Ninguem\Desktop\Trabalho Sistemas Inteligentes Cruzeiro\Retrab C no MPLAB\lcd.c"
;; Parameters:    Size  Location     Type
;;  Row             1    wreg     unsigned char 
;;  Col             1    4[BANK0 ] unsigned char 
;; Auto vars:     Size  Location     Type
;;  Row             1    6[BANK0 ] unsigned char 
;; Return value:  Size  Location     Type
;;		None               void
;; Registers used:
;;		wreg, status,2, status,0
;; Tracked objects:
;;		On entry : 0/0
;;		On exit  : 0/0
;;		Unchanged: 0/0
;; Data sizes:     COMMON   BANK0   BANK1   BANK3   BANK2
;;      Params:         0       1       0       0       0
;;      Locals:         0       1       0       0       0
;;      Temps:          0       1       0       0       0
;;      Totals:         0       3       0       0       0
;;Total ram usage:        3 bytes
;; Hardware stack levels used:    1
;; Hardware stack levels required when called:    4
;; This function calls:
;;		Nothing
;; This function is called by:
;;		_main
;; This function uses a non-reentrant model
;;
psect	text18,local,class=CODE,delta=2,merge=1
	line	10
global __ptext18
__ptext18:	;psect for function _LCD_Cursor
psect	text18
	file	"C:\Users\Ninguem\Desktop\Trabalho Sistemas Inteligentes Cruzeiro\Retrab C no MPLAB\lcd.c"
	line	10
	global	__size_of_LCD_Cursor
	__size_of_LCD_Cursor	equ	__end_of_LCD_Cursor-_LCD_Cursor
	
_LCD_Cursor:	
;incstack = 0
	opt	stack 3
; Regs used in _LCD_Cursor: [wreg+status,2+status,0]
;LCD_Cursor@Row stored from wreg
	bcf	status, 5	;RP0=0, select bank0
	bcf	status, 6	;RP1=0, select bank0
	movwf	(LCD_Cursor@Row)
	line	12
	
l2334:	
;lcd.c: 12: PORTEbits.RE0 = 0;
	bcf	(9),0	;volatile
	line	14
	
l2336:	
;lcd.c: 14: if (Row == 0)
	movf	(LCD_Cursor@Row),f
	skipz
	goto	u1981
	goto	u1980
u1981:
	goto	l2340
u1980:
	line	16
	
l2338:	
;lcd.c: 15: {
;lcd.c: 16: PORTD = 0x80 + Col;
	movf	(LCD_Cursor@Col),w
	addlw	080h
	movwf	(8)	;volatile
	line	17
;lcd.c: 17: }
	goto	l2342
	line	18
	
l313:	
	line	20
	
l2340:	
;lcd.c: 18: else
;lcd.c: 19: {
;lcd.c: 20: PORTD = 0xC0 + Col;
	movf	(LCD_Cursor@Col),w
	addlw	0C0h
	movwf	(8)	;volatile
	goto	l2342
	line	21
	
l314:	
	line	24
	
l2342:	
;lcd.c: 21: }
;lcd.c: 24: PORTEbits.RE1 = 1;
	bsf	(9),1	;volatile
	line	26
	
l2344:	
;lcd.c: 26: _delay((unsigned long)((40)*(18432000/4000000.0)));
	opt asmopt_off
movlw	61
movwf	(??_LCD_Cursor+0)+0,f
u3647:
decfsz	(??_LCD_Cursor+0)+0,f
	goto	u3647
opt asmopt_on

	line	28
	
l2346:	
;lcd.c: 28: PORTEbits.RE1 = 0;
	bcf	status, 5	;RP0=0, select bank0
	bcf	status, 6	;RP1=0, select bank0
	bcf	(9),1	;volatile
	line	29
	
l315:	
	return
	opt stack 0
GLOBAL	__end_of_LCD_Cursor
	__end_of_LCD_Cursor:
	signat	_LCD_Cursor,8312
	global	_LCD_Clear

;; *************** function _LCD_Clear *****************
;; Defined at:
;;		line 71 in file "C:\Users\Ninguem\Desktop\Trabalho Sistemas Inteligentes Cruzeiro\Retrab C no MPLAB\lcd.c"
;; Parameters:    Size  Location     Type
;;		None
;; Auto vars:     Size  Location     Type
;;		None
;; Return value:  Size  Location     Type
;;		None               void
;; Registers used:
;;		wreg, status,2, status,0, pclath, cstack
;; Tracked objects:
;;		On entry : 0/0
;;		On exit  : 0/0
;;		Unchanged: 0/0
;; Data sizes:     COMMON   BANK0   BANK1   BANK3   BANK2
;;      Params:         0       0       0       0       0
;;      Locals:         0       0       0       0       0
;;      Temps:          0       2       0       0       0
;;      Totals:         0       2       0       0       0
;;Total ram usage:        2 bytes
;; Hardware stack levels used:    1
;; Hardware stack levels required when called:    5
;; This function calls:
;;		_LCD_WriteCmd
;; This function is called by:
;;		_main
;; This function uses a non-reentrant model
;;
psect	text19,local,class=CODE,delta=2,merge=1
	line	71
global __ptext19
__ptext19:	;psect for function _LCD_Clear
psect	text19
	file	"C:\Users\Ninguem\Desktop\Trabalho Sistemas Inteligentes Cruzeiro\Retrab C no MPLAB\lcd.c"
	line	71
	global	__size_of_LCD_Clear
	__size_of_LCD_Clear	equ	__end_of_LCD_Clear-_LCD_Clear
	
_LCD_Clear:	
;incstack = 0
	opt	stack 2
; Regs used in _LCD_Clear: [wreg+status,2+status,0+pclath+cstack]
	line	73
	
l2468:	
;lcd.c: 73: LCD_WriteCmd(0x01);
	movlw	(01h)
	fcall	_LCD_WriteCmd
	line	75
	
l2470:	
;lcd.c: 75: _delay((unsigned long)((2)*(18432000/4000.0)));
	opt asmopt_off
movlw	12
	bcf	status, 5	;RP0=0, select bank0
	bcf	status, 6	;RP1=0, select bank0
movwf	((??_LCD_Clear+0)+0+1),f
	movlw	247
movwf	((??_LCD_Clear+0)+0),f
u3657:
	decfsz	((??_LCD_Clear+0)+0),f
	goto	u3657
	decfsz	((??_LCD_Clear+0)+0+1),f
	goto	u3657
opt asmopt_on

	line	77
	
l2472:	
;lcd.c: 77: LCD_WriteCmd(0x0C);
	movlw	(0Ch)
	fcall	_LCD_WriteCmd
	line	79
;lcd.c: 79: _delay((unsigned long)((40)*(18432000/4000000.0)));
	opt asmopt_off
movlw	61
	bcf	status, 5	;RP0=0, select bank0
	bcf	status, 6	;RP1=0, select bank0
movwf	(??_LCD_Clear+0)+0,f
u3667:
decfsz	(??_LCD_Clear+0)+0,f
	goto	u3667
opt asmopt_on

	line	81
	
l2474:	
;lcd.c: 81: LCD_WriteCmd(0x06);
	movlw	(06h)
	fcall	_LCD_WriteCmd
	line	83
	
l2476:	
;lcd.c: 83: _delay((unsigned long)((40)*(18432000/4000000.0)));
	opt asmopt_off
movlw	61
	bcf	status, 5	;RP0=0, select bank0
	bcf	status, 6	;RP1=0, select bank0
movwf	(??_LCD_Clear+0)+0,f
u3677:
decfsz	(??_LCD_Clear+0)+0,f
	goto	u3677
opt asmopt_on

	line	84
	
l330:	
	return
	opt stack 0
GLOBAL	__end_of_LCD_Clear
	__end_of_LCD_Clear:
	signat	_LCD_Clear,88
	global	_LCD_WriteCmd

;; *************** function _LCD_WriteCmd *****************
;; Defined at:
;;		line 32 in file "C:\Users\Ninguem\Desktop\Trabalho Sistemas Inteligentes Cruzeiro\Retrab C no MPLAB\lcd.c"
;; Parameters:    Size  Location     Type
;;  Byte            1    wreg     unsigned char 
;; Auto vars:     Size  Location     Type
;;  Byte            1    5[BANK0 ] unsigned char 
;; Return value:  Size  Location     Type
;;		None               void
;; Registers used:
;;		wreg
;; Tracked objects:
;;		On entry : 0/0
;;		On exit  : 0/0
;;		Unchanged: 0/0
;; Data sizes:     COMMON   BANK0   BANK1   BANK3   BANK2
;;      Params:         0       0       0       0       0
;;      Locals:         0       1       0       0       0
;;      Temps:          0       1       0       0       0
;;      Totals:         0       2       0       0       0
;;Total ram usage:        2 bytes
;; Hardware stack levels used:    1
;; Hardware stack levels required when called:    4
;; This function calls:
;;		Nothing
;; This function is called by:
;;		_LCD_Clear
;;		_LCD_Init
;; This function uses a non-reentrant model
;;
psect	text20,local,class=CODE,delta=2,merge=1
	line	32
global __ptext20
__ptext20:	;psect for function _LCD_WriteCmd
psect	text20
	file	"C:\Users\Ninguem\Desktop\Trabalho Sistemas Inteligentes Cruzeiro\Retrab C no MPLAB\lcd.c"
	line	32
	global	__size_of_LCD_WriteCmd
	__size_of_LCD_WriteCmd	equ	__end_of_LCD_WriteCmd-_LCD_WriteCmd
	
_LCD_WriteCmd:	
;incstack = 0
	opt	stack 2
; Regs used in _LCD_WriteCmd: [wreg]
;LCD_WriteCmd@Byte stored from wreg
	bcf	status, 5	;RP0=0, select bank0
	bcf	status, 6	;RP1=0, select bank0
	movwf	(LCD_WriteCmd@Byte)
	line	34
	
l2004:	
;lcd.c: 34: PORTEbits.RE0 = 0;
	bcf	(9),0	;volatile
	line	36
	
l2006:	
;lcd.c: 36: PORTD = Byte;
	movf	(LCD_WriteCmd@Byte),w
	movwf	(8)	;volatile
	line	39
	
l2008:	
;lcd.c: 39: PORTEbits.RE1 = 1;
	bsf	(9),1	;volatile
	line	41
;lcd.c: 41: _delay((unsigned long)((40)*(18432000/4000000.0)));
	opt asmopt_off
movlw	61
movwf	(??_LCD_WriteCmd+0)+0,f
u3687:
decfsz	(??_LCD_WriteCmd+0)+0,f
	goto	u3687
opt asmopt_on

	line	43
	
l2010:	
;lcd.c: 43: PORTEbits.RE1 = 0;
	bcf	status, 5	;RP0=0, select bank0
	bcf	status, 6	;RP1=0, select bank0
	bcf	(9),1	;volatile
	line	44
	
l318:	
	return
	opt stack 0
GLOBAL	__end_of_LCD_WriteCmd
	__end_of_LCD_WriteCmd:
	signat	_LCD_WriteCmd,4216
	global	_ADC_Init

;; *************** function _ADC_Init *****************
;; Defined at:
;;		line 6 in file "C:\Users\Ninguem\Desktop\Trabalho Sistemas Inteligentes Cruzeiro\Retrab C no MPLAB\adc.c"
;; Parameters:    Size  Location     Type
;;		None
;; Auto vars:     Size  Location     Type
;;		None
;; Return value:  Size  Location     Type
;;		None               void
;; Registers used:
;;		None
;; Tracked objects:
;;		On entry : 0/0
;;		On exit  : 0/0
;;		Unchanged: 0/0
;; Data sizes:     COMMON   BANK0   BANK1   BANK3   BANK2
;;      Params:         0       0       0       0       0
;;      Locals:         0       0       0       0       0
;;      Temps:          0       0       0       0       0
;;      Totals:         0       0       0       0       0
;;Total ram usage:        0 bytes
;; Hardware stack levels used:    1
;; Hardware stack levels required when called:    4
;; This function calls:
;;		Nothing
;; This function is called by:
;;		_main
;; This function uses a non-reentrant model
;;
psect	text21,local,class=CODE,delta=2,merge=1
	file	"C:\Users\Ninguem\Desktop\Trabalho Sistemas Inteligentes Cruzeiro\Retrab C no MPLAB\adc.c"
	line	6
global __ptext21
__ptext21:	;psect for function _ADC_Init
psect	text21
	file	"C:\Users\Ninguem\Desktop\Trabalho Sistemas Inteligentes Cruzeiro\Retrab C no MPLAB\adc.c"
	line	6
	global	__size_of_ADC_Init
	__size_of_ADC_Init	equ	__end_of_ADC_Init-_ADC_Init
	
_ADC_Init:	
;incstack = 0
	opt	stack 3
; Regs used in _ADC_Init: []
	line	9
	
l2280:	
;adc.c: 9: ADCON1bits.ADFM = 1;
	bsf	status, 5	;RP0=1, select bank1
	bcf	status, 6	;RP1=0, select bank1
	bsf	(159)^080h,7	;volatile
	line	32
;adc.c: 32: ADCON1bits.PCFG3 = 1;
	bsf	(159)^080h,3	;volatile
	line	33
;adc.c: 33: ADCON1bits.PCFG2 = 1;
	bsf	(159)^080h,2	;volatile
	line	34
;adc.c: 34: ADCON1bits.PCFG1 = 1;
	bsf	(159)^080h,1	;volatile
	line	35
;adc.c: 35: ADCON1bits.PCFG0 = 0;
	bcf	(159)^080h,0	;volatile
	line	38
;adc.c: 38: ADCON0bits.ADCS1 = 1;
	bcf	status, 5	;RP0=0, select bank0
	bcf	status, 6	;RP1=0, select bank0
	bsf	(31),7	;volatile
	line	39
;adc.c: 39: ADCON0bits.ADCS0 = 0;
	bcf	(31),6	;volatile
	line	42
;adc.c: 42: PIE1bits.ADIE = 0;
	bsf	status, 5	;RP0=1, select bank1
	bcf	status, 6	;RP1=0, select bank1
	bcf	(140)^080h,6	;volatile
	line	43
;adc.c: 43: PIR1bits.ADIF = 0;
	bcf	status, 5	;RP0=0, select bank0
	bcf	status, 6	;RP1=0, select bank0
	bcf	(12),6	;volatile
	line	44
	
l270:	
	return
	opt stack 0
GLOBAL	__end_of_ADC_Init
	__end_of_ADC_Init:
	signat	_ADC_Init,88
	global	_ISR

;; *************** function _ISR *****************
;; Defined at:
;;		line 359 in file "C:\Users\Ninguem\Desktop\Trabalho Sistemas Inteligentes Cruzeiro\Retrab C no MPLAB\main.c"
;; Parameters:    Size  Location     Type
;;		None
;; Auto vars:     Size  Location     Type
;;		None
;; Return value:  Size  Location     Type
;;		None               void
;; Registers used:
;;		wreg, fsr0l, fsr0h, status,2, status,0, btemp+1, pclath, cstack
;; Tracked objects:
;;		On entry : 0/0
;;		On exit  : 0/0
;;		Unchanged: 0/0
;; Data sizes:     COMMON   BANK0   BANK1   BANK3   BANK2
;;      Params:         0       0       0       0       0
;;      Locals:         0       0       0       0       0
;;      Temps:          0       4       0       0       0
;;      Totals:         0       4       0       0       0
;;Total ram usage:        4 bytes
;; Hardware stack levels used:    1
;; Hardware stack levels required when called:    3
;; This function calls:
;;		_USART_ReceiveChar
;;		i1_PWM_DutyCycle2
;;		i1_TIMER0_Set
;;		i1_USART_WriteString
;;		i1___lwdiv
;;		i1___wmul
;; This function is called by:
;;		Interrupt level 1
;; This function uses a non-reentrant model
;;
psect	text22,local,class=CODE,delta=2,merge=1
	file	"C:\Users\Ninguem\Desktop\Trabalho Sistemas Inteligentes Cruzeiro\Retrab C no MPLAB\main.c"
	line	359
global __ptext22
__ptext22:	;psect for function _ISR
psect	text22
	file	"C:\Users\Ninguem\Desktop\Trabalho Sistemas Inteligentes Cruzeiro\Retrab C no MPLAB\main.c"
	line	359
	global	__size_of_ISR
	__size_of_ISR	equ	__end_of_ISR-_ISR
	
_ISR:	
;incstack = 0
	opt	stack 2
; Regs used in _ISR: [wreg-fsr0h+status,2+status,0+btemp+1+pclath+cstack]
psect	intentry,class=CODE,delta=2
global __pintentry
__pintentry:
global interrupt_function
interrupt_function:
	global saved_w
	saved_w	set	btemp+0
	movwf	saved_w
	swapf	status,w
	bcf	status, 5	;RP0=0, select bank0
	bcf	status, 6	;RP1=0, select bank0
	movwf	(??_ISR+0)
	movf	fsr0,w
	movwf	(??_ISR+1)
	movf	pclath,w
	movwf	(??_ISR+2)
	movf	btemp+1,w
	movwf	(??_ISR+3)
	ljmp	_ISR
psect	text22
	line	362
	
i1l2786:	
;main.c: 362: if (PIR1bits.RCIF)
	btfss	(12),5	;volatile
	goto	u297_21
	goto	u297_20
u297_21:
	goto	i1l2864
u297_20:
	line	364
	
i1l2788:	
;main.c: 363: {
;main.c: 364: if (USART_ReceiveChar() == '0')
	fcall	_USART_ReceiveChar
	xorlw	030h
	skipz
	goto	u298_21
	goto	u298_20
u298_21:
	goto	i1l2798
u298_20:
	line	366
	
i1l2790:	
;main.c: 365: {
;main.c: 366: USART_WriteString("\n\rdesligado\n\r");
	movlw	low((STR_1)|8000h)
	movwf	(i1USART_WriteString@str)
	movlw	high((STR_1)|8000h)
	movwf	((i1USART_WriteString@str))+1
	fcall	i1_USART_WriteString
	line	367
	
i1l2792:	
;main.c: 367: pwm = 0;
	bcf	status, 5	;RP0=0, select bank0
	bcf	status, 6	;RP1=0, select bank0
	clrf	(_pwm)
	clrf	(_pwm+1)
	line	368
	
i1l2794:	
;main.c: 368: PWM_DutyCycle2(pwm);
	movf	(_pwm+1),w
	clrf	(i1PWM_DutyCycle2@valor+1)
	addwf	(i1PWM_DutyCycle2@valor+1)
	movf	(_pwm),w
	clrf	(i1PWM_DutyCycle2@valor)
	addwf	(i1PWM_DutyCycle2@valor)

	fcall	i1_PWM_DutyCycle2
	goto	i1l192
	line	369
	
i1l2796:	
;main.c: 369: return;
	goto	i1l192
	line	370
	
i1l191:	
	line	372
	
i1l2798:	
;main.c: 370: }
;main.c: 372: if (USART_ReceiveChar() == '1')
	fcall	_USART_ReceiveChar
	xorlw	031h
	skipz
	goto	u299_21
	goto	u299_20
u299_21:
	goto	i1l2804
u299_20:
	line	374
	
i1l2800:	
;main.c: 373: {
;main.c: 374: USART_WriteString("\n\rpwm = 32\n\r");
	movlw	low((STR_2)|8000h)
	movwf	(i1USART_WriteString@str)
	movlw	high((STR_2)|8000h)
	movwf	((i1USART_WriteString@str))+1
	fcall	i1_USART_WriteString
	line	375
	
i1l2802:	
;main.c: 375: pwm = 32;
	movlw	low(020h)
	bcf	status, 5	;RP0=0, select bank0
	bcf	status, 6	;RP1=0, select bank0
	movwf	(_pwm)
	movlw	high(020h)
	movwf	((_pwm))+1
	goto	i1l2804
	line	377
	
i1l193:	
	line	379
	
i1l2804:	
;main.c: 377: }
;main.c: 379: if (USART_ReceiveChar() == '2')
	fcall	_USART_ReceiveChar
	xorlw	032h
	skipz
	goto	u300_21
	goto	u300_20
u300_21:
	goto	i1l2810
u300_20:
	line	381
	
i1l2806:	
;main.c: 380: {
;main.c: 381: USART_WriteString("\n\rpwm = 64\n\r");
	movlw	low((STR_3)|8000h)
	movwf	(i1USART_WriteString@str)
	movlw	high((STR_3)|8000h)
	movwf	((i1USART_WriteString@str))+1
	fcall	i1_USART_WriteString
	line	382
	
i1l2808:	
;main.c: 382: pwm = 64;
	movlw	low(040h)
	bcf	status, 5	;RP0=0, select bank0
	bcf	status, 6	;RP1=0, select bank0
	movwf	(_pwm)
	movlw	high(040h)
	movwf	((_pwm))+1
	goto	i1l2810
	line	384
	
i1l194:	
	line	386
	
i1l2810:	
;main.c: 384: }
;main.c: 386: if (USART_ReceiveChar() == '3')
	fcall	_USART_ReceiveChar
	xorlw	033h
	skipz
	goto	u301_21
	goto	u301_20
u301_21:
	goto	i1l2820
u301_20:
	line	388
	
i1l2812:	
;main.c: 387: {
;main.c: 388: USART_WriteString("\n\rpwm = 128\n\r");
	movlw	low((STR_4)|8000h)
	movwf	(i1USART_WriteString@str)
	movlw	high((STR_4)|8000h)
	movwf	((i1USART_WriteString@str))+1
	fcall	i1_USART_WriteString
	line	389
	
i1l2814:	
;main.c: 389: pwm = 128;
	movlw	low(080h)
	bcf	status, 5	;RP0=0, select bank0
	bcf	status, 6	;RP1=0, select bank0
	movwf	(_pwm)
	movlw	high(080h)
	movwf	((_pwm))+1
	line	391
	
i1l2816:	
;main.c: 391: if(PORTBbits.RB0 == 0)
	btfsc	(6),0	;volatile
	goto	u302_21
	goto	u302_20
u302_21:
	goto	i1l196
u302_20:
	line	393
	
i1l2818:	
;main.c: 392: {
;main.c: 393: PORTBbits.RB0 = 1;
	bsf	(6),0	;volatile
	line	394
;main.c: 394: }else{
	goto	i1l2820
	
i1l196:	
	line	395
;main.c: 395: PORTBbits.RB0 = 0;
	bcf	(6),0	;volatile
	goto	i1l2820
	line	396
	
i1l197:	
	goto	i1l2820
	line	397
	
i1l195:	
	line	399
	
i1l2820:	
;main.c: 396: }
;main.c: 397: }
;main.c: 399: if (USART_ReceiveChar() == '4')
	fcall	_USART_ReceiveChar
	xorlw	034h
	skipz
	goto	u303_21
	goto	u303_20
u303_21:
	goto	i1l2832
u303_20:
	line	401
	
i1l2822:	
;main.c: 400: {
;main.c: 401: USART_WriteString("\n\rpwm = 256\n\r");
	movlw	low((STR_5)|8000h)
	movwf	(i1USART_WriteString@str)
	movlw	high((STR_5)|8000h)
	movwf	((i1USART_WriteString@str))+1
	fcall	i1_USART_WriteString
	line	402
	
i1l2824:	
;main.c: 402: pwm = 256;
	movlw	low(0100h)
	bcf	status, 5	;RP0=0, select bank0
	bcf	status, 6	;RP1=0, select bank0
	movwf	(_pwm)
	movlw	high(0100h)
	movwf	((_pwm))+1
	line	403
	
i1l2826:	
;main.c: 403: PWM_DutyCycle2(pwm);
	movf	(_pwm+1),w
	clrf	(i1PWM_DutyCycle2@valor+1)
	addwf	(i1PWM_DutyCycle2@valor+1)
	movf	(_pwm),w
	clrf	(i1PWM_DutyCycle2@valor)
	addwf	(i1PWM_DutyCycle2@valor)

	fcall	i1_PWM_DutyCycle2
	line	404
	
i1l2828:	
;main.c: 404: if(PORTBbits.RB1 == 0)
	bcf	status, 5	;RP0=0, select bank0
	bcf	status, 6	;RP1=0, select bank0
	btfsc	(6),1	;volatile
	goto	u304_21
	goto	u304_20
u304_21:
	goto	i1l199
u304_20:
	line	406
	
i1l2830:	
;main.c: 405: {
;main.c: 406: PORTBbits.RB1 = 1;
	bsf	(6),1	;volatile
	line	407
;main.c: 407: }else{
	goto	i1l192
	
i1l199:	
	line	408
;main.c: 408: PORTBbits.RB1 = 0;
	bcf	(6),1	;volatile
	goto	i1l192
	line	409
	
i1l200:	
	line	410
;main.c: 409: }
;main.c: 410: return;
	goto	i1l192
	line	411
	
i1l198:	
	line	413
	
i1l2832:	
;main.c: 411: }
;main.c: 413: if (USART_ReceiveChar() == '5')
	fcall	_USART_ReceiveChar
	xorlw	035h
	skipz
	goto	u305_21
	goto	u305_20
u305_21:
	goto	i1l2838
u305_20:
	line	415
	
i1l2834:	
;main.c: 414: {
;main.c: 415: USART_WriteString("\n\rpwm = 512\n\r");
	movlw	low((STR_6)|8000h)
	movwf	(i1USART_WriteString@str)
	movlw	high((STR_6)|8000h)
	movwf	((i1USART_WriteString@str))+1
	fcall	i1_USART_WriteString
	line	416
	
i1l2836:	
;main.c: 416: pwm = 512;
	movlw	low(0200h)
	bcf	status, 5	;RP0=0, select bank0
	bcf	status, 6	;RP1=0, select bank0
	movwf	(_pwm)
	movlw	high(0200h)
	movwf	((_pwm))+1
	goto	i1l2838
	line	418
	
i1l201:	
	line	420
	
i1l2838:	
;main.c: 418: }
;main.c: 420: if (USART_ReceiveChar() == '6')
	fcall	_USART_ReceiveChar
	xorlw	036h
	skipz
	goto	u306_21
	goto	u306_20
u306_21:
	goto	i1l2844
u306_20:
	line	422
	
i1l2840:	
;main.c: 421: {
;main.c: 422: USART_WriteString("\n\rpwm = 768\n\r");
	movlw	low((STR_7)|8000h)
	movwf	(i1USART_WriteString@str)
	movlw	high((STR_7)|8000h)
	movwf	((i1USART_WriteString@str))+1
	fcall	i1_USART_WriteString
	line	423
	
i1l2842:	
;main.c: 423: pwm = 768;
	movlw	low(0300h)
	bcf	status, 5	;RP0=0, select bank0
	bcf	status, 6	;RP1=0, select bank0
	movwf	(_pwm)
	movlw	high(0300h)
	movwf	((_pwm))+1
	goto	i1l2844
	line	425
	
i1l202:	
	line	427
	
i1l2844:	
;main.c: 425: }
;main.c: 427: if (USART_ReceiveChar() == '7')
	fcall	_USART_ReceiveChar
	xorlw	037h
	skipz
	goto	u307_21
	goto	u307_20
u307_21:
	goto	i1l2850
u307_20:
	line	429
	
i1l2846:	
;main.c: 428: {
;main.c: 429: USART_WriteString("\n\rpwm = 896\n\r");
	movlw	low((STR_8)|8000h)
	movwf	(i1USART_WriteString@str)
	movlw	high((STR_8)|8000h)
	movwf	((i1USART_WriteString@str))+1
	fcall	i1_USART_WriteString
	line	430
	
i1l2848:	
;main.c: 430: pwm = 896;
	movlw	low(0380h)
	bcf	status, 5	;RP0=0, select bank0
	bcf	status, 6	;RP1=0, select bank0
	movwf	(_pwm)
	movlw	high(0380h)
	movwf	((_pwm))+1
	goto	i1l2850
	line	432
	
i1l203:	
	line	434
	
i1l2850:	
;main.c: 432: }
;main.c: 434: if (USART_ReceiveChar() == '8')
	fcall	_USART_ReceiveChar
	xorlw	038h
	skipz
	goto	u308_21
	goto	u308_20
u308_21:
	goto	i1l2856
u308_20:
	line	436
	
i1l2852:	
;main.c: 435: {
;main.c: 436: USART_WriteString("\n\rpwm = 1000\n\r");
	movlw	low((STR_9)|8000h)
	movwf	(i1USART_WriteString@str)
	movlw	high((STR_9)|8000h)
	movwf	((i1USART_WriteString@str))+1
	fcall	i1_USART_WriteString
	line	437
	
i1l2854:	
;main.c: 437: pwm = 1000;
	movlw	low(03E8h)
	bcf	status, 5	;RP0=0, select bank0
	bcf	status, 6	;RP1=0, select bank0
	movwf	(_pwm)
	movlw	high(03E8h)
	movwf	((_pwm))+1
	goto	i1l2856
	line	439
	
i1l204:	
	line	441
	
i1l2856:	
;main.c: 439: }
;main.c: 441: if (USART_ReceiveChar() == '9')
	fcall	_USART_ReceiveChar
	xorlw	039h
	skipz
	goto	u309_21
	goto	u309_20
u309_21:
	goto	i1l2862
u309_20:
	line	443
	
i1l2858:	
;main.c: 442: {
;main.c: 443: USART_WriteString("\n\rpwm = 1023\n\r");
	movlw	low((STR_10)|8000h)
	movwf	(i1USART_WriteString@str)
	movlw	high((STR_10)|8000h)
	movwf	((i1USART_WriteString@str))+1
	fcall	i1_USART_WriteString
	line	444
	
i1l2860:	
;main.c: 444: pwm = 1023;
	movlw	low(03FFh)
	bcf	status, 5	;RP0=0, select bank0
	bcf	status, 6	;RP1=0, select bank0
	movwf	(_pwm)
	movlw	high(03FFh)
	movwf	((_pwm))+1
	goto	i1l2862
	line	446
	
i1l205:	
	line	453
	
i1l2862:	
;main.c: 446: }
;main.c: 453: PIR1bits.RCIF = 0;
	bcf	status, 5	;RP0=0, select bank0
	bcf	status, 6	;RP1=0, select bank0
	bcf	(12),5	;volatile
	goto	i1l2864
	line	454
	
i1l190:	
	line	457
	
i1l2864:	
;main.c: 454: }
;main.c: 457: if (PIR1bits.ADIF)
	btfss	(12),6	;volatile
	goto	u310_21
	goto	u310_20
u310_21:
	goto	i1l206
u310_20:
	line	462
	
i1l2866:	
;main.c: 458: {
;main.c: 462: PIR1bits.ADIF = 0;
	bcf	(12),6	;volatile
	line	463
	
i1l206:	
	line	467
;main.c: 463: }
;main.c: 467: if (INTCONbits.T0IF)
	btfss	(11),2	;volatile
	goto	u311_21
	goto	u311_20
u311_21:
	goto	i1l2890
u311_20:
	line	470
	
i1l2868:	
;main.c: 468: {
;main.c: 470: TIMER0_Set(238);
	movlw	(0EEh)
	fcall	i1_TIMER0_Set
	line	473
	
i1l2870:	
;main.c: 473: if (contagens_tm0 < 499)
	movlw	high(01F3h)
	bcf	status, 5	;RP0=0, select bank0
	bcf	status, 6	;RP1=0, select bank0
	subwf	(_contagens_tm0+1),w
	movlw	low(01F3h)
	skipnz
	subwf	(_contagens_tm0),w
	skipnc
	goto	u312_21
	goto	u312_20
u312_21:
	goto	i1l2876
u312_20:
	line	476
	
i1l2872:	
;main.c: 474: {
;main.c: 476: contagens_tm0++;
	movlw	low(01h)
	addwf	(_contagens_tm0),f
	skipnc
	incf	(_contagens_tm0+1),f
	movlw	high(01h)
	addwf	(_contagens_tm0+1),f
	line	479
	
i1l2874:	
;main.c: 479: PORTBbits.RB6 = 1;
	bsf	(6),6	;volatile
	line	480
;main.c: 480: }
	goto	i1l2888
	line	481
	
i1l208:	
	line	484
	
i1l2876:	
;main.c: 481: else
;main.c: 482: {
;main.c: 484: contagens_tm0 = 0;
	clrf	(_contagens_tm0)
	clrf	(_contagens_tm0+1)
	line	487
	
i1l2878:	
;main.c: 487: pulsos = (TMR1H << 8) + TMR1L;
	movf	(15),w	;volatile
	clrf	(_pulsos+1)
	addwf	(_pulsos+1)
	movf	(14),w	;volatile
	clrf	(_pulsos)
	addwf	(_pulsos)

	line	488
	
i1l2880:	
;main.c: 488: rpm = ((pulsos / pas_cooler) * 120);
	movf	(_pas_cooler+1),w
	clrf	(i1___lwdiv@divisor+1)
	addwf	(i1___lwdiv@divisor+1)
	movf	(_pas_cooler),w
	clrf	(i1___lwdiv@divisor)
	addwf	(i1___lwdiv@divisor)

	movf	(_pulsos+1),w
	clrf	(i1___lwdiv@dividend+1)
	addwf	(i1___lwdiv@dividend+1)
	movf	(_pulsos),w
	clrf	(i1___lwdiv@dividend)
	addwf	(i1___lwdiv@dividend)

	fcall	i1___lwdiv
	movf	(1+(?i1___lwdiv)),w
	clrf	(i1___wmul@multiplier+1)
	addwf	(i1___wmul@multiplier+1)
	movf	(0+(?i1___lwdiv)),w
	clrf	(i1___wmul@multiplier)
	addwf	(i1___wmul@multiplier)

	movlw	low(078h)
	movwf	(i1___wmul@multiplicand)
	movlw	high(078h)
	movwf	((i1___wmul@multiplicand))+1
	fcall	i1___wmul
	movf	(1+(?i1___wmul)),w
	bsf	status, 5	;RP0=1, select bank1
	bcf	status, 6	;RP1=0, select bank1
	clrf	(_rpm+1)^080h
	addwf	(_rpm+1)^080h
	movf	(0+(?i1___wmul)),w
	clrf	(_rpm)^080h
	addwf	(_rpm)^080h

	line	491
	
i1l2882:	
;main.c: 491: TMR1L = 0x00;
	bcf	status, 5	;RP0=0, select bank0
	bcf	status, 6	;RP1=0, select bank0
	clrf	(14)	;volatile
	line	492
	
i1l2884:	
;main.c: 492: TMR1H = 0x00;
	clrf	(15)	;volatile
	line	495
	
i1l2886:	
;main.c: 495: PORTBbits.RB6 = 0;
	bcf	(6),6	;volatile
	goto	i1l2888
	line	496
	
i1l209:	
	line	499
	
i1l2888:	
;main.c: 496: }
;main.c: 499: INTCONbits.T0IF = 0;
	bcf	(11),2	;volatile
	goto	i1l2890
	line	500
	
i1l207:	
	line	503
	
i1l2890:	
;main.c: 500: }
;main.c: 503: if (PIR1bits.TMR1IF)
	btfss	(12),0	;volatile
	goto	u313_21
	goto	u313_20
u313_21:
	goto	i1l210
u313_20:
	line	508
	
i1l2892:	
;main.c: 504: {
;main.c: 508: PIR1bits.TMR1IF = 0;
	bcf	(12),0	;volatile
	line	509
	
i1l210:	
	line	512
;main.c: 509: }
;main.c: 512: if (PIR1bits.SSPIF)
	btfss	(12),3	;volatile
	goto	u314_21
	goto	u314_20
u314_21:
	goto	i1l192
u314_20:
	line	517
	
i1l2894:	
;main.c: 513: {
;main.c: 517: PIR1bits.SSPIF = 0;
	bcf	(12),3	;volatile
	goto	i1l192
	line	518
	
i1l211:	
	line	519
	
i1l192:	
	bcf	status, 5	;RP0=0, select bank0
	bcf	status, 6	;RP1=0, select bank0
	movf	(??_ISR+3),w
	movwf	btemp+1
	movf	(??_ISR+2),w
	movwf	pclath
	movf	(??_ISR+1),w
	movwf	fsr0
	swapf	(??_ISR+0)^00h,w
	movwf	status
	swapf	saved_w,f
	swapf	saved_w,w
	retfie
	opt stack 0
GLOBAL	__end_of_ISR
	__end_of_ISR:
	signat	_ISR,88
	global	i1___wmul

;; *************** function i1___wmul *****************
;; Defined at:
;;		line 15 in file "C:\Program Files (x86)\Microchip\xc8\v1.33\sources\common\Umul16.c"
;; Parameters:    Size  Location     Type
;;  multiplier      2    8[COMMON] unsigned int 
;;  multiplicand    2   10[COMMON] unsigned int 
;; Auto vars:     Size  Location     Type
;;  __wmul          2   12[COMMON] unsigned int 
;; Return value:  Size  Location     Type
;;                  2    8[COMMON] unsigned int 
;; Registers used:
;;		wreg, status,2, status,0
;; Tracked objects:
;;		On entry : 0/0
;;		On exit  : 0/0
;;		Unchanged: 0/0
;; Data sizes:     COMMON   BANK0   BANK1   BANK3   BANK2
;;      Params:         4       0       0       0       0
;;      Locals:         2       0       0       0       0
;;      Temps:          0       0       0       0       0
;;      Totals:         6       0       0       0       0
;;Total ram usage:        6 bytes
;; Hardware stack levels used:    1
;; This function calls:
;;		Nothing
;; This function is called by:
;;		_ISR
;; This function uses a non-reentrant model
;;
psect	text23,local,class=CODE,delta=2,merge=1
	file	"C:\Program Files (x86)\Microchip\xc8\v1.33\sources\common\Umul16.c"
	line	15
global __ptext23
__ptext23:	;psect for function i1___wmul
psect	text23
	file	"C:\Program Files (x86)\Microchip\xc8\v1.33\sources\common\Umul16.c"
	line	15
	global	__size_ofi1___wmul
	__size_ofi1___wmul	equ	__end_ofi1___wmul-i1___wmul
	
i1___wmul:	
;incstack = 0
	opt	stack 4
; Regs used in i1___wmul: [wreg+status,2+status,0]
	line	43
	
i1l2586:	
	clrf	(i1___wmul@product)
	clrf	(i1___wmul@product+1)
	goto	i1l2588
	line	44
	
i1l609:	
	line	45
	
i1l2588:	
	btfss	(i1___wmul@multiplier),(0)&7
	goto	u256_21
	goto	u256_20
u256_21:
	goto	i1l610
u256_20:
	line	46
	
i1l2590:	
	movf	(i1___wmul@multiplicand),w
	addwf	(i1___wmul@product),f
	skipnc
	incf	(i1___wmul@product+1),f
	movf	(i1___wmul@multiplicand+1),w
	addwf	(i1___wmul@product+1),f
	
i1l610:	
	line	47
	movlw	01h
	
u257_25:
	clrc
	rlf	(i1___wmul@multiplicand),f
	rlf	(i1___wmul@multiplicand+1),f
	addlw	-1
	skipz
	goto	u257_25
	line	48
	
i1l2592:	
	movlw	01h
	
u258_25:
	clrc
	rrf	(i1___wmul@multiplier+1),f
	rrf	(i1___wmul@multiplier),f
	addlw	-1
	skipz
	goto	u258_25
	line	49
	movf	((i1___wmul@multiplier+1)),w
	iorwf	((i1___wmul@multiplier)),w
	skipz
	goto	u259_21
	goto	u259_20
u259_21:
	goto	i1l2588
u259_20:
	goto	i1l2594
	
i1l611:	
	line	52
	
i1l2594:	
	movf	(i1___wmul@product+1),w
	clrf	(?i1___wmul+1)
	addwf	(?i1___wmul+1)
	movf	(i1___wmul@product),w
	clrf	(?i1___wmul)
	addwf	(?i1___wmul)

	goto	i1l612
	
i1l2596:	
	line	53
	
i1l612:	
	return
	opt stack 0
GLOBAL	__end_ofi1___wmul
	__end_ofi1___wmul:
	signat	i1___wmul,90
	global	i1___lwdiv

;; *************** function i1___lwdiv *****************
;; Defined at:
;;		line 6 in file "C:\Program Files (x86)\Microchip\xc8\v1.33\sources\common\lwdiv.c"
;; Parameters:    Size  Location     Type
;;  divisor         2    0[COMMON] unsigned int 
;;  dividend        2    2[COMMON] unsigned int 
;; Auto vars:     Size  Location     Type
;;  __lwdiv         2    5[COMMON] unsigned int 
;;  __lwdiv         1    7[COMMON] unsigned char 
;; Return value:  Size  Location     Type
;;                  2    0[COMMON] unsigned int 
;; Registers used:
;;		wreg, status,2, status,0
;; Tracked objects:
;;		On entry : 0/0
;;		On exit  : 0/0
;;		Unchanged: 0/0
;; Data sizes:     COMMON   BANK0   BANK1   BANK3   BANK2
;;      Params:         4       0       0       0       0
;;      Locals:         3       0       0       0       0
;;      Temps:          1       0       0       0       0
;;      Totals:         8       0       0       0       0
;;Total ram usage:        8 bytes
;; Hardware stack levels used:    1
;; This function calls:
;;		Nothing
;; This function is called by:
;;		_ISR
;; This function uses a non-reentrant model
;;
psect	text24,local,class=CODE,delta=2,merge=1
	file	"C:\Program Files (x86)\Microchip\xc8\v1.33\sources\common\lwdiv.c"
	line	6
global __ptext24
__ptext24:	;psect for function i1___lwdiv
psect	text24
	file	"C:\Program Files (x86)\Microchip\xc8\v1.33\sources\common\lwdiv.c"
	line	6
	global	__size_ofi1___lwdiv
	__size_ofi1___lwdiv	equ	__end_ofi1___lwdiv-i1___lwdiv
	
i1___lwdiv:	
;incstack = 0
	opt	stack 4
; Regs used in i1___lwdiv: [wreg+status,2+status,0]
	line	14
	
i1l2598:	
	clrf	(i1___lwdiv@quotient)
	clrf	(i1___lwdiv@quotient+1)
	line	15
	
i1l2600:	
	movf	(i1___lwdiv@divisor+1),w
	iorwf	(i1___lwdiv@divisor),w
	skipnz
	goto	u260_21
	goto	u260_20
u260_21:
	goto	i1l2620
u260_20:
	line	16
	
i1l2602:	
	clrf	(i1___lwdiv@counter)
	incf	(i1___lwdiv@counter),f
	line	17
	goto	i1l2608
	
i1l946:	
	line	18
	
i1l2604:	
	movlw	01h
	
u261_25:
	clrc
	rlf	(i1___lwdiv@divisor),f
	rlf	(i1___lwdiv@divisor+1),f
	addlw	-1
	skipz
	goto	u261_25
	line	19
	
i1l2606:	
	movlw	(01h)
	movwf	(??i1___lwdiv+0)+0
	movf	(??i1___lwdiv+0)+0,w
	addwf	(i1___lwdiv@counter),f
	goto	i1l2608
	line	20
	
i1l945:	
	line	17
	
i1l2608:	
	btfss	(i1___lwdiv@divisor+1),(15)&7
	goto	u262_21
	goto	u262_20
u262_21:
	goto	i1l2604
u262_20:
	goto	i1l2610
	
i1l947:	
	goto	i1l2610
	line	21
	
i1l948:	
	line	22
	
i1l2610:	
	movlw	01h
	
u263_25:
	clrc
	rlf	(i1___lwdiv@quotient),f
	rlf	(i1___lwdiv@quotient+1),f
	addlw	-1
	skipz
	goto	u263_25
	line	23
	movf	(i1___lwdiv@divisor+1),w
	subwf	(i1___lwdiv@dividend+1),w
	skipz
	goto	u264_25
	movf	(i1___lwdiv@divisor),w
	subwf	(i1___lwdiv@dividend),w
u264_25:
	skipc
	goto	u264_21
	goto	u264_20
u264_21:
	goto	i1l2616
u264_20:
	line	24
	
i1l2612:	
	movf	(i1___lwdiv@divisor),w
	subwf	(i1___lwdiv@dividend),f
	movf	(i1___lwdiv@divisor+1),w
	skipc
	decf	(i1___lwdiv@dividend+1),f
	subwf	(i1___lwdiv@dividend+1),f
	line	25
	
i1l2614:	
	bsf	(i1___lwdiv@quotient)+(0/8),(0)&7
	goto	i1l2616
	line	26
	
i1l949:	
	line	27
	
i1l2616:	
	movlw	01h
	
u265_25:
	clrc
	rrf	(i1___lwdiv@divisor+1),f
	rrf	(i1___lwdiv@divisor),f
	addlw	-1
	skipz
	goto	u265_25
	line	28
	
i1l2618:	
	movlw	low(01h)
	subwf	(i1___lwdiv@counter),f
	btfss	status,2
	goto	u266_21
	goto	u266_20
u266_21:
	goto	i1l2610
u266_20:
	goto	i1l2620
	
i1l950:	
	goto	i1l2620
	line	29
	
i1l944:	
	line	30
	
i1l2620:	
	movf	(i1___lwdiv@quotient+1),w
	clrf	(?i1___lwdiv+1)
	addwf	(?i1___lwdiv+1)
	movf	(i1___lwdiv@quotient),w
	clrf	(?i1___lwdiv)
	addwf	(?i1___lwdiv)

	goto	i1l951
	
i1l2622:	
	line	31
	
i1l951:	
	return
	opt stack 0
GLOBAL	__end_ofi1___lwdiv
	__end_ofi1___lwdiv:
	signat	i1___lwdiv,90
	global	i1_TIMER0_Set

;; *************** function i1_TIMER0_Set *****************
;; Defined at:
;;		line 20 in file "C:\Users\Ninguem\Desktop\Trabalho Sistemas Inteligentes Cruzeiro\Retrab C no MPLAB\timers.c"
;; Parameters:    Size  Location     Type
;;  contagens       1    wreg     unsigned char 
;; Auto vars:     Size  Location     Type
;;  contagens       1    0[COMMON] unsigned char 
;; Return value:  Size  Location     Type
;;		None               void
;; Registers used:
;;		wreg
;; Tracked objects:
;;		On entry : 0/0
;;		On exit  : 0/0
;;		Unchanged: 0/0
;; Data sizes:     COMMON   BANK0   BANK1   BANK3   BANK2
;;      Params:         0       0       0       0       0
;;      Locals:         1       0       0       0       0
;;      Temps:          0       0       0       0       0
;;      Totals:         1       0       0       0       0
;;Total ram usage:        1 bytes
;; Hardware stack levels used:    1
;; This function calls:
;;		Nothing
;; This function is called by:
;;		_ISR
;; This function uses a non-reentrant model
;;
psect	text25,local,class=CODE,delta=2,merge=1
	file	"C:\Users\Ninguem\Desktop\Trabalho Sistemas Inteligentes Cruzeiro\Retrab C no MPLAB\timers.c"
	line	20
global __ptext25
__ptext25:	;psect for function i1_TIMER0_Set
psect	text25
	file	"C:\Users\Ninguem\Desktop\Trabalho Sistemas Inteligentes Cruzeiro\Retrab C no MPLAB\timers.c"
	line	20
	global	__size_ofi1_TIMER0_Set
	__size_ofi1_TIMER0_Set	equ	__end_ofi1_TIMER0_Set-i1_TIMER0_Set
	
i1_TIMER0_Set:	
;incstack = 0
	opt	stack 4
; Regs used in i1_TIMER0_Set: [wreg]
;i1TIMER0_Set@contagens stored from wreg
	movwf	(i1TIMER0_Set@contagens)
	line	22
	
i1l2580:	
;timers.c: 22: TMR0 = contagens;
	movf	(i1TIMER0_Set@contagens),w
	bcf	status, 5	;RP0=0, select bank0
	bcf	status, 6	;RP1=0, select bank0
	movwf	(1)	;volatile
	line	23
	
i1l296:	
	return
	opt stack 0
GLOBAL	__end_ofi1_TIMER0_Set
	__end_ofi1_TIMER0_Set:
	signat	i1_TIMER0_Set,88
	global	i1_PWM_DutyCycle2

;; *************** function i1_PWM_DutyCycle2 *****************
;; Defined at:
;;		line 96 in file "C:\Users\Ninguem\Desktop\Trabalho Sistemas Inteligentes Cruzeiro\Retrab C no MPLAB\pwm.c"
;; Parameters:    Size  Location     Type
;;  valor           2    0[COMMON] int 
;; Auto vars:     Size  Location     Type
;;		None
;; Return value:  Size  Location     Type
;;		None               void
;; Registers used:
;;		wreg, status,2, status,0
;; Tracked objects:
;;		On entry : 0/0
;;		On exit  : 0/0
;;		Unchanged: 0/0
;; Data sizes:     COMMON   BANK0   BANK1   BANK3   BANK2
;;      Params:         2       0       0       0       0
;;      Locals:         0       0       0       0       0
;;      Temps:          2       0       0       0       0
;;      Totals:         4       0       0       0       0
;;Total ram usage:        4 bytes
;; Hardware stack levels used:    1
;; This function calls:
;;		Nothing
;; This function is called by:
;;		_ISR
;; This function uses a non-reentrant model
;;
psect	text26,local,class=CODE,delta=2,merge=1
	file	"C:\Users\Ninguem\Desktop\Trabalho Sistemas Inteligentes Cruzeiro\Retrab C no MPLAB\pwm.c"
	line	96
global __ptext26
__ptext26:	;psect for function i1_PWM_DutyCycle2
psect	text26
	file	"C:\Users\Ninguem\Desktop\Trabalho Sistemas Inteligentes Cruzeiro\Retrab C no MPLAB\pwm.c"
	line	96
	global	__size_ofi1_PWM_DutyCycle2
	__size_ofi1_PWM_DutyCycle2	equ	__end_ofi1_PWM_DutyCycle2-i1_PWM_DutyCycle2
	
i1_PWM_DutyCycle2:	
;incstack = 0
	opt	stack 4
; Regs used in i1_PWM_DutyCycle2: [wreg+status,2+status,0]
	line	98
	
i1l2582:	
;pwm.c: 98: CCPR2L = valor >> 2;
	movf	(i1PWM_DutyCycle2@valor+1),w
	movwf	(??i1_PWM_DutyCycle2+0)+0+1
	movf	(i1PWM_DutyCycle2@valor),w
	movwf	(??i1_PWM_DutyCycle2+0)+0
	rlf	(??i1_PWM_DutyCycle2+0)+1,w
	rrf	(??i1_PWM_DutyCycle2+0)+1,f
	rrf	(??i1_PWM_DutyCycle2+0)+0,f
	rlf	(??i1_PWM_DutyCycle2+0)+1,w
	rrf	(??i1_PWM_DutyCycle2+0)+1,f
	rrf	(??i1_PWM_DutyCycle2+0)+0,f
	movf	0+(??i1_PWM_DutyCycle2+0)+0,w
	bcf	status, 5	;RP0=0, select bank0
	bcf	status, 6	;RP1=0, select bank0
	movwf	(27)	;volatile
	line	99
	
i1l2584:	
;pwm.c: 99: CCP2CON = (valor << 4)|0X0C;
	movf	(i1PWM_DutyCycle2@valor),w
	movwf	(??i1_PWM_DutyCycle2+0)+0
	movlw	(04h)-1
u255_25:
	clrc
	rlf	(??i1_PWM_DutyCycle2+0)+0,f
	addlw	-1
	skipz
	goto	u255_25
	clrc
	rlf	(??i1_PWM_DutyCycle2+0)+0,w
	iorlw	0Ch
	movwf	(29)	;volatile
	line	100
	
i1l450:	
	return
	opt stack 0
GLOBAL	__end_ofi1_PWM_DutyCycle2
	__end_ofi1_PWM_DutyCycle2:
	signat	i1_PWM_DutyCycle2,88
	global	_USART_ReceiveChar

;; *************** function _USART_ReceiveChar *****************
;; Defined at:
;;		line 63 in file "C:\Users\Ninguem\Desktop\Trabalho Sistemas Inteligentes Cruzeiro\Retrab C no MPLAB\usart.c"
;; Parameters:    Size  Location     Type
;;		None
;; Auto vars:     Size  Location     Type
;;  byte            1    4[COMMON] unsigned char 
;; Return value:  Size  Location     Type
;;                  1    wreg      unsigned char 
;; Registers used:
;;		wreg, fsr0l, fsr0h, status,2, status,0, btemp+1, pclath, cstack
;; Tracked objects:
;;		On entry : 0/0
;;		On exit  : 0/0
;;		Unchanged: 0/0
;; Data sizes:     COMMON   BANK0   BANK1   BANK3   BANK2
;;      Params:         0       0       0       0       0
;;      Locals:         1       0       0       0       0
;;      Temps:          1       0       0       0       0
;;      Totals:         2       0       0       0       0
;;Total ram usage:        2 bytes
;; Hardware stack levels used:    1
;; Hardware stack levels required when called:    2
;; This function calls:
;;		i1_USART_WriteString
;; This function is called by:
;;		_ISR
;; This function uses a non-reentrant model
;;
psect	text27,local,class=CODE,delta=2,merge=1
	file	"C:\Users\Ninguem\Desktop\Trabalho Sistemas Inteligentes Cruzeiro\Retrab C no MPLAB\usart.c"
	line	63
global __ptext27
__ptext27:	;psect for function _USART_ReceiveChar
psect	text27
	file	"C:\Users\Ninguem\Desktop\Trabalho Sistemas Inteligentes Cruzeiro\Retrab C no MPLAB\usart.c"
	line	63
	global	__size_of_USART_ReceiveChar
	__size_of_USART_ReceiveChar	equ	__end_of_USART_ReceiveChar-_USART_ReceiveChar
	
_USART_ReceiveChar:	
;incstack = 0
	opt	stack 2
; Regs used in _USART_ReceiveChar: [wreg-fsr0h+status,2+status,0+btemp+1+pclath+cstack]
	line	67
	
i1l2208:	
;usart.c: 65: unsigned char byte;
;usart.c: 67: if (!OERR)
	bcf	status, 5	;RP0=0, select bank0
	bcf	status, 6	;RP1=0, select bank0
	btfsc	(193/8),(193)&7	;volatile
	goto	u195_21
	goto	u195_20
u195_21:
	goto	i1l2214
u195_20:
	line	69
	
i1l2210:	
;usart.c: 68: {
;usart.c: 69: byte = RCREG;
	movf	(26),w	;volatile
	movwf	(??_USART_ReceiveChar+0)+0
	movf	(??_USART_ReceiveChar+0)+0,w
	movwf	(USART_ReceiveChar@byte)
	line	70
	
i1l2212:	
;usart.c: 70: PIR1bits.RCIF = 0;
	bcf	(12),5	;volatile
	line	71
;usart.c: 71: }
	goto	i1l2224
	line	72
	
i1l251:	
	line	74
	
i1l2214:	
;usart.c: 72: else
;usart.c: 73: {
;usart.c: 74: USART_WriteString("\n\r ------- ESTOURO DE PILHA ------- \n\r ");
	movlw	low((STR_19)|8000h)
	movwf	(i1USART_WriteString@str)
	movlw	high((STR_19)|8000h)
	movwf	((i1USART_WriteString@str))+1
	fcall	i1_USART_WriteString
	line	76
	
i1l2216:	
;usart.c: 76: RCSTAbits.CREN = 0;
	bcf	status, 5	;RP0=0, select bank0
	bcf	status, 6	;RP1=0, select bank0
	bcf	(24),4	;volatile
	line	77
	
i1l2218:	
;usart.c: 77: byte = RCREG;
	movf	(26),w	;volatile
	movwf	(??_USART_ReceiveChar+0)+0
	movf	(??_USART_ReceiveChar+0)+0,w
	movwf	(USART_ReceiveChar@byte)
	line	78
	
i1l2220:	
;usart.c: 78: RCSTAbits.CREN = 1;
	bsf	(24),4	;volatile
	line	79
	
i1l2222:	
;usart.c: 79: PIR1bits.RCIF = 0;
	bcf	(12),5	;volatile
	goto	i1l2224
	line	80
	
i1l252:	
	line	82
	
i1l2224:	
;usart.c: 80: }
;usart.c: 82: return(byte);
	movf	(USART_ReceiveChar@byte),w
	goto	i1l253
	
i1l2226:	
	line	83
	
i1l253:	
	return
	opt stack 0
GLOBAL	__end_of_USART_ReceiveChar
	__end_of_USART_ReceiveChar:
	signat	_USART_ReceiveChar,89
	global	i1_USART_WriteString

;; *************** function i1_USART_WriteString *****************
;; Defined at:
;;		line 52 in file "C:\Users\Ninguem\Desktop\Trabalho Sistemas Inteligentes Cruzeiro\Retrab C no MPLAB\usart.c"
;; Parameters:    Size  Location     Type
;;  str             2    1[COMMON] PTR const unsigned char 
;;		 -> STR_19(40), STR_16(3), display_rpm(10), STR_12(20), 
;;		 -> STR_11(29), STR_10(15), STR_9(15), STR_8(14), 
;;		 -> STR_7(14), STR_6(14), STR_5(14), STR_4(14), 
;;		 -> STR_3(13), STR_2(13), STR_1(14), 
;; Auto vars:     Size  Location     Type
;;		None
;; Return value:  Size  Location     Type
;;		None               void
;; Registers used:
;;		wreg, fsr0l, fsr0h, status,2, status,0, btemp+1, pclath, cstack
;; Tracked objects:
;;		On entry : 0/0
;;		On exit  : 0/0
;;		Unchanged: 0/0
;; Data sizes:     COMMON   BANK0   BANK1   BANK3   BANK2
;;      Params:         2       0       0       0       0
;;      Locals:         0       0       0       0       0
;;      Temps:          0       0       0       0       0
;;      Totals:         2       0       0       0       0
;;Total ram usage:        2 bytes
;; Hardware stack levels used:    1
;; Hardware stack levels required when called:    1
;; This function calls:
;;		i1_USART_WriteChar
;; This function is called by:
;;		_ISR
;;		_USART_ReceiveChar
;; This function uses a non-reentrant model
;;
psect	text28,local,class=CODE,delta=2,merge=1
	line	52
global __ptext28
__ptext28:	;psect for function i1_USART_WriteString
psect	text28
	file	"C:\Users\Ninguem\Desktop\Trabalho Sistemas Inteligentes Cruzeiro\Retrab C no MPLAB\usart.c"
	line	52
	global	__size_ofi1_USART_WriteString
	__size_ofi1_USART_WriteString	equ	__end_ofi1_USART_WriteString-i1_USART_WriteString
	
i1_USART_WriteString:	
;incstack = 0
	opt	stack 3
; Regs used in i1_USART_WriteString: [wreg-fsr0h+status,2+status,0+btemp+1+pclath+cstack]
	line	54
	
i1l2132:	
;usart.c: 54: while(*str != '\0')
	goto	i1l2138
	
i1l246:	
	line	56
	
i1l2134:	
;usart.c: 55: {
;usart.c: 56: USART_WriteChar(*str);
	movf	(i1USART_WriteString@str+1),w
	bcf	status, 5	;RP0=0, select bank0
	bcf	status, 6	;RP1=0, select bank0
	movwf	btemp+1
	movf	(i1USART_WriteString@str),w
	movwf	fsr0
	fcall	stringtab
	fcall	i1_USART_WriteChar
	line	57
	
i1l2136:	
;usart.c: 57: str++;
	movlw	01h
	addwf	(i1USART_WriteString@str),f
	skipnc
	incf	(i1USART_WriteString@str+1),f
	goto	i1l2138
	line	58
	
i1l245:	
	line	54
	
i1l2138:	
	movf	(i1USART_WriteString@str+1),w
	bcf	status, 5	;RP0=0, select bank0
	bcf	status, 6	;RP1=0, select bank0
	movwf	btemp+1
	movf	(i1USART_WriteString@str),w
	movwf	fsr0
	fcall	stringtab
	iorlw	0
	skipz
	goto	u178_21
	goto	u178_20
u178_21:
	goto	i1l2134
u178_20:
	goto	i1l248
	
i1l247:	
	line	59
	
i1l248:	
	return
	opt stack 0
GLOBAL	__end_ofi1_USART_WriteString
	__end_ofi1_USART_WriteString:
	signat	i1_USART_WriteString,88
	global	i1_USART_WriteChar

;; *************** function i1_USART_WriteChar *****************
;; Defined at:
;;		line 44 in file "C:\Users\Ninguem\Desktop\Trabalho Sistemas Inteligentes Cruzeiro\Retrab C no MPLAB\usart.c"
;; Parameters:    Size  Location     Type
;;  byte            1    wreg     unsigned char 
;; Auto vars:     Size  Location     Type
;;  byte            1    0[COMMON] unsigned char 
;; Return value:  Size  Location     Type
;;		None               void
;; Registers used:
;;		wreg
;; Tracked objects:
;;		On entry : 0/0
;;		On exit  : 0/0
;;		Unchanged: 0/0
;; Data sizes:     COMMON   BANK0   BANK1   BANK3   BANK2
;;      Params:         0       0       0       0       0
;;      Locals:         1       0       0       0       0
;;      Temps:          0       0       0       0       0
;;      Totals:         1       0       0       0       0
;;Total ram usage:        1 bytes
;; Hardware stack levels used:    1
;; This function calls:
;;		Nothing
;; This function is called by:
;;		i1_USART_WriteString
;; This function uses a non-reentrant model
;;
psect	text29,local,class=CODE,delta=2,merge=1
	line	44
global __ptext29
__ptext29:	;psect for function i1_USART_WriteChar
psect	text29
	file	"C:\Users\Ninguem\Desktop\Trabalho Sistemas Inteligentes Cruzeiro\Retrab C no MPLAB\usart.c"
	line	44
	global	__size_ofi1_USART_WriteChar
	__size_ofi1_USART_WriteChar	equ	__end_ofi1_USART_WriteChar-i1_USART_WriteChar
	
i1_USART_WriteChar:	
;incstack = 0
	opt	stack 3
; Regs used in i1_USART_WriteChar: [wreg]
;i1USART_WriteChar@byte stored from wreg
	movwf	(i1USART_WriteChar@byte)
	line	46
	
i1l1996:	
;usart.c: 46: while(!PIR1bits.TXIF);
	goto	i1l239
	
i1l240:	
	
i1l239:	
	bcf	status, 5	;RP0=0, select bank0
	bcf	status, 6	;RP1=0, select bank0
	btfss	(12),4	;volatile
	goto	u147_21
	goto	u147_20
u147_21:
	goto	i1l239
u147_20:
	goto	i1l1998
	
i1l241:	
	line	47
	
i1l1998:	
;usart.c: 47: TXREG = byte;
	movf	(i1USART_WriteChar@byte),w
	movwf	(25)	;volatile
	line	48
	
i1l242:	
	return
	opt stack 0
GLOBAL	__end_ofi1_USART_WriteChar
	__end_ofi1_USART_WriteChar:
	signat	i1_USART_WriteChar,88
global	___latbits
___latbits	equ	2
	global	btemp
	btemp set 07Eh

	DABS	1,126,2	;btemp
	global	wtemp
	global	wtemp0
	wtemp set btemp
	wtemp0 set btemp
	global	wtemp1
	wtemp1 set btemp+2
	global	wtemp2
	wtemp2 set btemp+4
	global	wtemp3
	wtemp3 set btemp+6
	global	wtemp4
	wtemp4 set btemp+8
	global	wtemp5
	wtemp5 set btemp+10
	global	wtemp6
	wtemp6 set btemp+1
	global	ttemp
	global	ttemp0
	ttemp set btemp
	ttemp0 set btemp
	global	ttemp1
	ttemp1 set btemp+3
	global	ttemp2
	ttemp2 set btemp+6
	global	ttemp3
	ttemp3 set btemp+9
	global	ttemp4
	ttemp4 set btemp+1
	global	ltemp
	global	ltemp0
	ltemp set btemp
	ltemp0 set btemp
	global	ltemp1
	ltemp1 set btemp+4
	global	ltemp2
	ltemp2 set btemp+8
	global	ltemp3
	ltemp3 set btemp+2
	end
