opt subtitle "Microchip Technology Omniscient Code Generator (Lite mode) build 59893"

opt pagewidth 120

	opt lm

	processor	16F877A
clrc	macro
	bcf	3,0
	endm
clrz	macro
	bcf	3,2
	endm
setc	macro
	bsf	3,0
	endm
setz	macro
	bsf	3,2
	endm
skipc	macro
	btfss	3,0
	endm
skipz	macro
	btfss	3,2
	endm
skipnc	macro
	btfsc	3,0
	endm
skipnz	macro
	btfsc	3,2
	endm
indf	equ	0
indf0	equ	0
pc	equ	2
pcl	equ	2
status	equ	3
fsr	equ	4
fsr0	equ	4
c	equ	1
z	equ	0
pclath	equ	10
# 49 "C:\Program Files (x86)\Microchip\xc8\v1.33\include\pic16f877a.h"
INDF equ 00h ;# 
# 55 "C:\Program Files (x86)\Microchip\xc8\v1.33\include\pic16f877a.h"
TMR0 equ 01h ;# 
# 61 "C:\Program Files (x86)\Microchip\xc8\v1.33\include\pic16f877a.h"
PCL equ 02h ;# 
# 67 "C:\Program Files (x86)\Microchip\xc8\v1.33\include\pic16f877a.h"
STATUS equ 03h ;# 
# 154 "C:\Program Files (x86)\Microchip\xc8\v1.33\include\pic16f877a.h"
FSR equ 04h ;# 
# 160 "C:\Program Files (x86)\Microchip\xc8\v1.33\include\pic16f877a.h"
PORTA equ 05h ;# 
# 209 "C:\Program Files (x86)\Microchip\xc8\v1.33\include\pic16f877a.h"
PORTB equ 06h ;# 
# 270 "C:\Program Files (x86)\Microchip\xc8\v1.33\include\pic16f877a.h"
PORTC equ 07h ;# 
# 331 "C:\Program Files (x86)\Microchip\xc8\v1.33\include\pic16f877a.h"
PORTD equ 08h ;# 
# 392 "C:\Program Files (x86)\Microchip\xc8\v1.33\include\pic16f877a.h"
PORTE equ 09h ;# 
# 423 "C:\Program Files (x86)\Microchip\xc8\v1.33\include\pic16f877a.h"
PCLATH equ 0Ah ;# 
# 442 "C:\Program Files (x86)\Microchip\xc8\v1.33\include\pic16f877a.h"
INTCON equ 0Bh ;# 
# 519 "C:\Program Files (x86)\Microchip\xc8\v1.33\include\pic16f877a.h"
PIR1 equ 0Ch ;# 
# 580 "C:\Program Files (x86)\Microchip\xc8\v1.33\include\pic16f877a.h"
PIR2 equ 0Dh ;# 
# 619 "C:\Program Files (x86)\Microchip\xc8\v1.33\include\pic16f877a.h"
TMR1 equ 0Eh ;# 
# 625 "C:\Program Files (x86)\Microchip\xc8\v1.33\include\pic16f877a.h"
TMR1L equ 0Eh ;# 
# 631 "C:\Program Files (x86)\Microchip\xc8\v1.33\include\pic16f877a.h"
TMR1H equ 0Fh ;# 
# 637 "C:\Program Files (x86)\Microchip\xc8\v1.33\include\pic16f877a.h"
T1CON equ 010h ;# 
# 711 "C:\Program Files (x86)\Microchip\xc8\v1.33\include\pic16f877a.h"
TMR2 equ 011h ;# 
# 717 "C:\Program Files (x86)\Microchip\xc8\v1.33\include\pic16f877a.h"
T2CON equ 012h ;# 
# 787 "C:\Program Files (x86)\Microchip\xc8\v1.33\include\pic16f877a.h"
SSPBUF equ 013h ;# 
# 793 "C:\Program Files (x86)\Microchip\xc8\v1.33\include\pic16f877a.h"
SSPCON equ 014h ;# 
# 862 "C:\Program Files (x86)\Microchip\xc8\v1.33\include\pic16f877a.h"
CCPR1 equ 015h ;# 
# 868 "C:\Program Files (x86)\Microchip\xc8\v1.33\include\pic16f877a.h"
CCPR1L equ 015h ;# 
# 874 "C:\Program Files (x86)\Microchip\xc8\v1.33\include\pic16f877a.h"
CCPR1H equ 016h ;# 
# 880 "C:\Program Files (x86)\Microchip\xc8\v1.33\include\pic16f877a.h"
CCP1CON equ 017h ;# 
# 937 "C:\Program Files (x86)\Microchip\xc8\v1.33\include\pic16f877a.h"
RCSTA equ 018h ;# 
# 1031 "C:\Program Files (x86)\Microchip\xc8\v1.33\include\pic16f877a.h"
TXREG equ 019h ;# 
# 1037 "C:\Program Files (x86)\Microchip\xc8\v1.33\include\pic16f877a.h"
RCREG equ 01Ah ;# 
# 1043 "C:\Program Files (x86)\Microchip\xc8\v1.33\include\pic16f877a.h"
CCPR2 equ 01Bh ;# 
# 1049 "C:\Program Files (x86)\Microchip\xc8\v1.33\include\pic16f877a.h"
CCPR2L equ 01Bh ;# 
# 1055 "C:\Program Files (x86)\Microchip\xc8\v1.33\include\pic16f877a.h"
CCPR2H equ 01Ch ;# 
# 1061 "C:\Program Files (x86)\Microchip\xc8\v1.33\include\pic16f877a.h"
CCP2CON equ 01Dh ;# 
# 1118 "C:\Program Files (x86)\Microchip\xc8\v1.33\include\pic16f877a.h"
ADRESH equ 01Eh ;# 
# 1124 "C:\Program Files (x86)\Microchip\xc8\v1.33\include\pic16f877a.h"
ADCON0 equ 01Fh ;# 
# 1219 "C:\Program Files (x86)\Microchip\xc8\v1.33\include\pic16f877a.h"
OPTION_REG equ 081h ;# 
# 1288 "C:\Program Files (x86)\Microchip\xc8\v1.33\include\pic16f877a.h"
TRISA equ 085h ;# 
# 1337 "C:\Program Files (x86)\Microchip\xc8\v1.33\include\pic16f877a.h"
TRISB equ 086h ;# 
# 1398 "C:\Program Files (x86)\Microchip\xc8\v1.33\include\pic16f877a.h"
TRISC equ 087h ;# 
# 1459 "C:\Program Files (x86)\Microchip\xc8\v1.33\include\pic16f877a.h"
TRISD equ 088h ;# 
# 1520 "C:\Program Files (x86)\Microchip\xc8\v1.33\include\pic16f877a.h"
TRISE equ 089h ;# 
# 1576 "C:\Program Files (x86)\Microchip\xc8\v1.33\include\pic16f877a.h"
PIE1 equ 08Ch ;# 
# 1637 "C:\Program Files (x86)\Microchip\xc8\v1.33\include\pic16f877a.h"
PIE2 equ 08Dh ;# 
# 1676 "C:\Program Files (x86)\Microchip\xc8\v1.33\include\pic16f877a.h"
PCON equ 08Eh ;# 
# 1709 "C:\Program Files (x86)\Microchip\xc8\v1.33\include\pic16f877a.h"
SSPCON2 equ 091h ;# 
# 1770 "C:\Program Files (x86)\Microchip\xc8\v1.33\include\pic16f877a.h"
PR2 equ 092h ;# 
# 1776 "C:\Program Files (x86)\Microchip\xc8\v1.33\include\pic16f877a.h"
SSPADD equ 093h ;# 
# 1782 "C:\Program Files (x86)\Microchip\xc8\v1.33\include\pic16f877a.h"
SSPSTAT equ 094h ;# 
# 1950 "C:\Program Files (x86)\Microchip\xc8\v1.33\include\pic16f877a.h"
TXSTA equ 098h ;# 
# 2030 "C:\Program Files (x86)\Microchip\xc8\v1.33\include\pic16f877a.h"
SPBRG equ 099h ;# 
# 2036 "C:\Program Files (x86)\Microchip\xc8\v1.33\include\pic16f877a.h"
CMCON equ 09Ch ;# 
# 2105 "C:\Program Files (x86)\Microchip\xc8\v1.33\include\pic16f877a.h"
CVRCON equ 09Dh ;# 
# 2169 "C:\Program Files (x86)\Microchip\xc8\v1.33\include\pic16f877a.h"
ADRESL equ 09Eh ;# 
# 2175 "C:\Program Files (x86)\Microchip\xc8\v1.33\include\pic16f877a.h"
ADCON1 equ 09Fh ;# 
# 2233 "C:\Program Files (x86)\Microchip\xc8\v1.33\include\pic16f877a.h"
EEDATA equ 010Ch ;# 
# 2239 "C:\Program Files (x86)\Microchip\xc8\v1.33\include\pic16f877a.h"
EEADR equ 010Dh ;# 
# 2245 "C:\Program Files (x86)\Microchip\xc8\v1.33\include\pic16f877a.h"
EEDATH equ 010Eh ;# 
# 2251 "C:\Program Files (x86)\Microchip\xc8\v1.33\include\pic16f877a.h"
EEADRH equ 010Fh ;# 
# 2257 "C:\Program Files (x86)\Microchip\xc8\v1.33\include\pic16f877a.h"
EECON1 equ 018Ch ;# 
# 2301 "C:\Program Files (x86)\Microchip\xc8\v1.33\include\pic16f877a.h"
EECON2 equ 018Dh ;# 
# 49 "C:\Program Files (x86)\Microchip\xc8\v1.33\include\pic16f877a.h"
INDF equ 00h ;# 
# 55 "C:\Program Files (x86)\Microchip\xc8\v1.33\include\pic16f877a.h"
TMR0 equ 01h ;# 
# 61 "C:\Program Files (x86)\Microchip\xc8\v1.33\include\pic16f877a.h"
PCL equ 02h ;# 
# 67 "C:\Program Files (x86)\Microchip\xc8\v1.33\include\pic16f877a.h"
STATUS equ 03h ;# 
# 154 "C:\Program Files (x86)\Microchip\xc8\v1.33\include\pic16f877a.h"
FSR equ 04h ;# 
# 160 "C:\Program Files (x86)\Microchip\xc8\v1.33\include\pic16f877a.h"
PORTA equ 05h ;# 
# 209 "C:\Program Files (x86)\Microchip\xc8\v1.33\include\pic16f877a.h"
PORTB equ 06h ;# 
# 270 "C:\Program Files (x86)\Microchip\xc8\v1.33\include\pic16f877a.h"
PORTC equ 07h ;# 
# 331 "C:\Program Files (x86)\Microchip\xc8\v1.33\include\pic16f877a.h"
PORTD equ 08h ;# 
# 392 "C:\Program Files (x86)\Microchip\xc8\v1.33\include\pic16f877a.h"
PORTE equ 09h ;# 
# 423 "C:\Program Files (x86)\Microchip\xc8\v1.33\include\pic16f877a.h"
PCLATH equ 0Ah ;# 
# 442 "C:\Program Files (x86)\Microchip\xc8\v1.33\include\pic16f877a.h"
INTCON equ 0Bh ;# 
# 519 "C:\Program Files (x86)\Microchip\xc8\v1.33\include\pic16f877a.h"
PIR1 equ 0Ch ;# 
# 580 "C:\Program Files (x86)\Microchip\xc8\v1.33\include\pic16f877a.h"
PIR2 equ 0Dh ;# 
# 619 "C:\Program Files (x86)\Microchip\xc8\v1.33\include\pic16f877a.h"
TMR1 equ 0Eh ;# 
# 625 "C:\Program Files (x86)\Microchip\xc8\v1.33\include\pic16f877a.h"
TMR1L equ 0Eh ;# 
# 631 "C:\Program Files (x86)\Microchip\xc8\v1.33\include\pic16f877a.h"
TMR1H equ 0Fh ;# 
# 637 "C:\Program Files (x86)\Microchip\xc8\v1.33\include\pic16f877a.h"
T1CON equ 010h ;# 
# 711 "C:\Program Files (x86)\Microchip\xc8\v1.33\include\pic16f877a.h"
TMR2 equ 011h ;# 
# 717 "C:\Program Files (x86)\Microchip\xc8\v1.33\include\pic16f877a.h"
T2CON equ 012h ;# 
# 787 "C:\Program Files (x86)\Microchip\xc8\v1.33\include\pic16f877a.h"
SSPBUF equ 013h ;# 
# 793 "C:\Program Files (x86)\Microchip\xc8\v1.33\include\pic16f877a.h"
SSPCON equ 014h ;# 
# 862 "C:\Program Files (x86)\Microchip\xc8\v1.33\include\pic16f877a.h"
CCPR1 equ 015h ;# 
# 868 "C:\Program Files (x86)\Microchip\xc8\v1.33\include\pic16f877a.h"
CCPR1L equ 015h ;# 
# 874 "C:\Program Files (x86)\Microchip\xc8\v1.33\include\pic16f877a.h"
CCPR1H equ 016h ;# 
# 880 "C:\Program Files (x86)\Microchip\xc8\v1.33\include\pic16f877a.h"
CCP1CON equ 017h ;# 
# 937 "C:\Program Files (x86)\Microchip\xc8\v1.33\include\pic16f877a.h"
RCSTA equ 018h ;# 
# 1031 "C:\Program Files (x86)\Microchip\xc8\v1.33\include\pic16f877a.h"
TXREG equ 019h ;# 
# 1037 "C:\Program Files (x86)\Microchip\xc8\v1.33\include\pic16f877a.h"
RCREG equ 01Ah ;# 
# 1043 "C:\Program Files (x86)\Microchip\xc8\v1.33\include\pic16f877a.h"
CCPR2 equ 01Bh ;# 
# 1049 "C:\Program Files (x86)\Microchip\xc8\v1.33\include\pic16f877a.h"
CCPR2L equ 01Bh ;# 
# 1055 "C:\Program Files (x86)\Microchip\xc8\v1.33\include\pic16f877a.h"
CCPR2H equ 01Ch ;# 
# 1061 "C:\Program Files (x86)\Microchip\xc8\v1.33\include\pic16f877a.h"
CCP2CON equ 01Dh ;# 
# 1118 "C:\Program Files (x86)\Microchip\xc8\v1.33\include\pic16f877a.h"
ADRESH equ 01Eh ;# 
# 1124 "C:\Program Files (x86)\Microchip\xc8\v1.33\include\pic16f877a.h"
ADCON0 equ 01Fh ;# 
# 1219 "C:\Program Files (x86)\Microchip\xc8\v1.33\include\pic16f877a.h"
OPTION_REG equ 081h ;# 
# 1288 "C:\Program Files (x86)\Microchip\xc8\v1.33\include\pic16f877a.h"
TRISA equ 085h ;# 
# 1337 "C:\Program Files (x86)\Microchip\xc8\v1.33\include\pic16f877a.h"
TRISB equ 086h ;# 
# 1398 "C:\Program Files (x86)\Microchip\xc8\v1.33\include\pic16f877a.h"
TRISC equ 087h ;# 
# 1459 "C:\Program Files (x86)\Microchip\xc8\v1.33\include\pic16f877a.h"
TRISD equ 088h ;# 
# 1520 "C:\Program Files (x86)\Microchip\xc8\v1.33\include\pic16f877a.h"
TRISE equ 089h ;# 
# 1576 "C:\Program Files (x86)\Microchip\xc8\v1.33\include\pic16f877a.h"
PIE1 equ 08Ch ;# 
# 1637 "C:\Program Files (x86)\Microchip\xc8\v1.33\include\pic16f877a.h"
PIE2 equ 08Dh ;# 
# 1676 "C:\Program Files (x86)\Microchip\xc8\v1.33\include\pic16f877a.h"
PCON equ 08Eh ;# 
# 1709 "C:\Program Files (x86)\Microchip\xc8\v1.33\include\pic16f877a.h"
SSPCON2 equ 091h ;# 
# 1770 "C:\Program Files (x86)\Microchip\xc8\v1.33\include\pic16f877a.h"
PR2 equ 092h ;# 
# 1776 "C:\Program Files (x86)\Microchip\xc8\v1.33\include\pic16f877a.h"
SSPADD equ 093h ;# 
# 1782 "C:\Program Files (x86)\Microchip\xc8\v1.33\include\pic16f877a.h"
SSPSTAT equ 094h ;# 
# 1950 "C:\Program Files (x86)\Microchip\xc8\v1.33\include\pic16f877a.h"
TXSTA equ 098h ;# 
# 2030 "C:\Program Files (x86)\Microchip\xc8\v1.33\include\pic16f877a.h"
SPBRG equ 099h ;# 
# 2036 "C:\Program Files (x86)\Microchip\xc8\v1.33\include\pic16f877a.h"
CMCON equ 09Ch ;# 
# 2105 "C:\Program Files (x86)\Microchip\xc8\v1.33\include\pic16f877a.h"
CVRCON equ 09Dh ;# 
# 2169 "C:\Program Files (x86)\Microchip\xc8\v1.33\include\pic16f877a.h"
ADRESL equ 09Eh ;# 
# 2175 "C:\Program Files (x86)\Microchip\xc8\v1.33\include\pic16f877a.h"
ADCON1 equ 09Fh ;# 
# 2233 "C:\Program Files (x86)\Microchip\xc8\v1.33\include\pic16f877a.h"
EEDATA equ 010Ch ;# 
# 2239 "C:\Program Files (x86)\Microchip\xc8\v1.33\include\pic16f877a.h"
EEADR equ 010Dh ;# 
# 2245 "C:\Program Files (x86)\Microchip\xc8\v1.33\include\pic16f877a.h"
EEDATH equ 010Eh ;# 
# 2251 "C:\Program Files (x86)\Microchip\xc8\v1.33\include\pic16f877a.h"
EEADRH equ 010Fh ;# 
# 2257 "C:\Program Files (x86)\Microchip\xc8\v1.33\include\pic16f877a.h"
EECON1 equ 018Ch ;# 
# 2301 "C:\Program Files (x86)\Microchip\xc8\v1.33\include\pic16f877a.h"
EECON2 equ 018Dh ;# 
# 49 "C:\Program Files (x86)\Microchip\xc8\v1.33\include\pic16f877a.h"
INDF equ 00h ;# 
# 55 "C:\Program Files (x86)\Microchip\xc8\v1.33\include\pic16f877a.h"
TMR0 equ 01h ;# 
# 61 "C:\Program Files (x86)\Microchip\xc8\v1.33\include\pic16f877a.h"
PCL equ 02h ;# 
# 67 "C:\Program Files (x86)\Microchip\xc8\v1.33\include\pic16f877a.h"
STATUS equ 03h ;# 
# 154 "C:\Program Files (x86)\Microchip\xc8\v1.33\include\pic16f877a.h"
FSR equ 04h ;# 
# 160 "C:\Program Files (x86)\Microchip\xc8\v1.33\include\pic16f877a.h"
PORTA equ 05h ;# 
# 209 "C:\Program Files (x86)\Microchip\xc8\v1.33\include\pic16f877a.h"
PORTB equ 06h ;# 
# 270 "C:\Program Files (x86)\Microchip\xc8\v1.33\include\pic16f877a.h"
PORTC equ 07h ;# 
# 331 "C:\Program Files (x86)\Microchip\xc8\v1.33\include\pic16f877a.h"
PORTD equ 08h ;# 
# 392 "C:\Program Files (x86)\Microchip\xc8\v1.33\include\pic16f877a.h"
PORTE equ 09h ;# 
# 423 "C:\Program Files (x86)\Microchip\xc8\v1.33\include\pic16f877a.h"
PCLATH equ 0Ah ;# 
# 442 "C:\Program Files (x86)\Microchip\xc8\v1.33\include\pic16f877a.h"
INTCON equ 0Bh ;# 
# 519 "C:\Program Files (x86)\Microchip\xc8\v1.33\include\pic16f877a.h"
PIR1 equ 0Ch ;# 
# 580 "C:\Program Files (x86)\Microchip\xc8\v1.33\include\pic16f877a.h"
PIR2 equ 0Dh ;# 
# 619 "C:\Program Files (x86)\Microchip\xc8\v1.33\include\pic16f877a.h"
TMR1 equ 0Eh ;# 
# 625 "C:\Program Files (x86)\Microchip\xc8\v1.33\include\pic16f877a.h"
TMR1L equ 0Eh ;# 
# 631 "C:\Program Files (x86)\Microchip\xc8\v1.33\include\pic16f877a.h"
TMR1H equ 0Fh ;# 
# 637 "C:\Program Files (x86)\Microchip\xc8\v1.33\include\pic16f877a.h"
T1CON equ 010h ;# 
# 711 "C:\Program Files (x86)\Microchip\xc8\v1.33\include\pic16f877a.h"
TMR2 equ 011h ;# 
# 717 "C:\Program Files (x86)\Microchip\xc8\v1.33\include\pic16f877a.h"
T2CON equ 012h ;# 
# 787 "C:\Program Files (x86)\Microchip\xc8\v1.33\include\pic16f877a.h"
SSPBUF equ 013h ;# 
# 793 "C:\Program Files (x86)\Microchip\xc8\v1.33\include\pic16f877a.h"
SSPCON equ 014h ;# 
# 862 "C:\Program Files (x86)\Microchip\xc8\v1.33\include\pic16f877a.h"
CCPR1 equ 015h ;# 
# 868 "C:\Program Files (x86)\Microchip\xc8\v1.33\include\pic16f877a.h"
CCPR1L equ 015h ;# 
# 874 "C:\Program Files (x86)\Microchip\xc8\v1.33\include\pic16f877a.h"
CCPR1H equ 016h ;# 
# 880 "C:\Program Files (x86)\Microchip\xc8\v1.33\include\pic16f877a.h"
CCP1CON equ 017h ;# 
# 937 "C:\Program Files (x86)\Microchip\xc8\v1.33\include\pic16f877a.h"
RCSTA equ 018h ;# 
# 1031 "C:\Program Files (x86)\Microchip\xc8\v1.33\include\pic16f877a.h"
TXREG equ 019h ;# 
# 1037 "C:\Program Files (x86)\Microchip\xc8\v1.33\include\pic16f877a.h"
RCREG equ 01Ah ;# 
# 1043 "C:\Program Files (x86)\Microchip\xc8\v1.33\include\pic16f877a.h"
CCPR2 equ 01Bh ;# 
# 1049 "C:\Program Files (x86)\Microchip\xc8\v1.33\include\pic16f877a.h"
CCPR2L equ 01Bh ;# 
# 1055 "C:\Program Files (x86)\Microchip\xc8\v1.33\include\pic16f877a.h"
CCPR2H equ 01Ch ;# 
# 1061 "C:\Program Files (x86)\Microchip\xc8\v1.33\include\pic16f877a.h"
CCP2CON equ 01Dh ;# 
# 1118 "C:\Program Files (x86)\Microchip\xc8\v1.33\include\pic16f877a.h"
ADRESH equ 01Eh ;# 
# 1124 "C:\Program Files (x86)\Microchip\xc8\v1.33\include\pic16f877a.h"
ADCON0 equ 01Fh ;# 
# 1219 "C:\Program Files (x86)\Microchip\xc8\v1.33\include\pic16f877a.h"
OPTION_REG equ 081h ;# 
# 1288 "C:\Program Files (x86)\Microchip\xc8\v1.33\include\pic16f877a.h"
TRISA equ 085h ;# 
# 1337 "C:\Program Files (x86)\Microchip\xc8\v1.33\include\pic16f877a.h"
TRISB equ 086h ;# 
# 1398 "C:\Program Files (x86)\Microchip\xc8\v1.33\include\pic16f877a.h"
TRISC equ 087h ;# 
# 1459 "C:\Program Files (x86)\Microchip\xc8\v1.33\include\pic16f877a.h"
TRISD equ 088h ;# 
# 1520 "C:\Program Files (x86)\Microchip\xc8\v1.33\include\pic16f877a.h"
TRISE equ 089h ;# 
# 1576 "C:\Program Files (x86)\Microchip\xc8\v1.33\include\pic16f877a.h"
PIE1 equ 08Ch ;# 
# 1637 "C:\Program Files (x86)\Microchip\xc8\v1.33\include\pic16f877a.h"
PIE2 equ 08Dh ;# 
# 1676 "C:\Program Files (x86)\Microchip\xc8\v1.33\include\pic16f877a.h"
PCON equ 08Eh ;# 
# 1709 "C:\Program Files (x86)\Microchip\xc8\v1.33\include\pic16f877a.h"
SSPCON2 equ 091h ;# 
# 1770 "C:\Program Files (x86)\Microchip\xc8\v1.33\include\pic16f877a.h"
PR2 equ 092h ;# 
# 1776 "C:\Program Files (x86)\Microchip\xc8\v1.33\include\pic16f877a.h"
SSPADD equ 093h ;# 
# 1782 "C:\Program Files (x86)\Microchip\xc8\v1.33\include\pic16f877a.h"
SSPSTAT equ 094h ;# 
# 1950 "C:\Program Files (x86)\Microchip\xc8\v1.33\include\pic16f877a.h"
TXSTA equ 098h ;# 
# 2030 "C:\Program Files (x86)\Microchip\xc8\v1.33\include\pic16f877a.h"
SPBRG equ 099h ;# 
# 2036 "C:\Program Files (x86)\Microchip\xc8\v1.33\include\pic16f877a.h"
CMCON equ 09Ch ;# 
# 2105 "C:\Program Files (x86)\Microchip\xc8\v1.33\include\pic16f877a.h"
CVRCON equ 09Dh ;# 
# 2169 "C:\Program Files (x86)\Microchip\xc8\v1.33\include\pic16f877a.h"
ADRESL equ 09Eh ;# 
# 2175 "C:\Program Files (x86)\Microchip\xc8\v1.33\include\pic16f877a.h"
ADCON1 equ 09Fh ;# 
# 2233 "C:\Program Files (x86)\Microchip\xc8\v1.33\include\pic16f877a.h"
EEDATA equ 010Ch ;# 
# 2239 "C:\Program Files (x86)\Microchip\xc8\v1.33\include\pic16f877a.h"
EEADR equ 010Dh ;# 
# 2245 "C:\Program Files (x86)\Microchip\xc8\v1.33\include\pic16f877a.h"
EEDATH equ 010Eh ;# 
# 2251 "C:\Program Files (x86)\Microchip\xc8\v1.33\include\pic16f877a.h"
EEADRH equ 010Fh ;# 
# 2257 "C:\Program Files (x86)\Microchip\xc8\v1.33\include\pic16f877a.h"
EECON1 equ 018Ch ;# 
# 2301 "C:\Program Files (x86)\Microchip\xc8\v1.33\include\pic16f877a.h"
EECON2 equ 018Dh ;# 
# 49 "C:\Program Files (x86)\Microchip\xc8\v1.33\include\pic16f877a.h"
INDF equ 00h ;# 
# 55 "C:\Program Files (x86)\Microchip\xc8\v1.33\include\pic16f877a.h"
TMR0 equ 01h ;# 
# 61 "C:\Program Files (x86)\Microchip\xc8\v1.33\include\pic16f877a.h"
PCL equ 02h ;# 
# 67 "C:\Program Files (x86)\Microchip\xc8\v1.33\include\pic16f877a.h"
STATUS equ 03h ;# 
# 154 "C:\Program Files (x86)\Microchip\xc8\v1.33\include\pic16f877a.h"
FSR equ 04h ;# 
# 160 "C:\Program Files (x86)\Microchip\xc8\v1.33\include\pic16f877a.h"
PORTA equ 05h ;# 
# 209 "C:\Program Files (x86)\Microchip\xc8\v1.33\include\pic16f877a.h"
PORTB equ 06h ;# 
# 270 "C:\Program Files (x86)\Microchip\xc8\v1.33\include\pic16f877a.h"
PORTC equ 07h ;# 
# 331 "C:\Program Files (x86)\Microchip\xc8\v1.33\include\pic16f877a.h"
PORTD equ 08h ;# 
# 392 "C:\Program Files (x86)\Microchip\xc8\v1.33\include\pic16f877a.h"
PORTE equ 09h ;# 
# 423 "C:\Program Files (x86)\Microchip\xc8\v1.33\include\pic16f877a.h"
PCLATH equ 0Ah ;# 
# 442 "C:\Program Files (x86)\Microchip\xc8\v1.33\include\pic16f877a.h"
INTCON equ 0Bh ;# 
# 519 "C:\Program Files (x86)\Microchip\xc8\v1.33\include\pic16f877a.h"
PIR1 equ 0Ch ;# 
# 580 "C:\Program Files (x86)\Microchip\xc8\v1.33\include\pic16f877a.h"
PIR2 equ 0Dh ;# 
# 619 "C:\Program Files (x86)\Microchip\xc8\v1.33\include\pic16f877a.h"
TMR1 equ 0Eh ;# 
# 625 "C:\Program Files (x86)\Microchip\xc8\v1.33\include\pic16f877a.h"
TMR1L equ 0Eh ;# 
# 631 "C:\Program Files (x86)\Microchip\xc8\v1.33\include\pic16f877a.h"
TMR1H equ 0Fh ;# 
# 637 "C:\Program Files (x86)\Microchip\xc8\v1.33\include\pic16f877a.h"
T1CON equ 010h ;# 
# 711 "C:\Program Files (x86)\Microchip\xc8\v1.33\include\pic16f877a.h"
TMR2 equ 011h ;# 
# 717 "C:\Program Files (x86)\Microchip\xc8\v1.33\include\pic16f877a.h"
T2CON equ 012h ;# 
# 787 "C:\Program Files (x86)\Microchip\xc8\v1.33\include\pic16f877a.h"
SSPBUF equ 013h ;# 
# 793 "C:\Program Files (x86)\Microchip\xc8\v1.33\include\pic16f877a.h"
SSPCON equ 014h ;# 
# 862 "C:\Program Files (x86)\Microchip\xc8\v1.33\include\pic16f877a.h"
CCPR1 equ 015h ;# 
# 868 "C:\Program Files (x86)\Microchip\xc8\v1.33\include\pic16f877a.h"
CCPR1L equ 015h ;# 
# 874 "C:\Program Files (x86)\Microchip\xc8\v1.33\include\pic16f877a.h"
CCPR1H equ 016h ;# 
# 880 "C:\Program Files (x86)\Microchip\xc8\v1.33\include\pic16f877a.h"
CCP1CON equ 017h ;# 
# 937 "C:\Program Files (x86)\Microchip\xc8\v1.33\include\pic16f877a.h"
RCSTA equ 018h ;# 
# 1031 "C:\Program Files (x86)\Microchip\xc8\v1.33\include\pic16f877a.h"
TXREG equ 019h ;# 
# 1037 "C:\Program Files (x86)\Microchip\xc8\v1.33\include\pic16f877a.h"
RCREG equ 01Ah ;# 
# 1043 "C:\Program Files (x86)\Microchip\xc8\v1.33\include\pic16f877a.h"
CCPR2 equ 01Bh ;# 
# 1049 "C:\Program Files (x86)\Microchip\xc8\v1.33\include\pic16f877a.h"
CCPR2L equ 01Bh ;# 
# 1055 "C:\Program Files (x86)\Microchip\xc8\v1.33\include\pic16f877a.h"
CCPR2H equ 01Ch ;# 
# 1061 "C:\Program Files (x86)\Microchip\xc8\v1.33\include\pic16f877a.h"
CCP2CON equ 01Dh ;# 
# 1118 "C:\Program Files (x86)\Microchip\xc8\v1.33\include\pic16f877a.h"
ADRESH equ 01Eh ;# 
# 1124 "C:\Program Files (x86)\Microchip\xc8\v1.33\include\pic16f877a.h"
ADCON0 equ 01Fh ;# 
# 1219 "C:\Program Files (x86)\Microchip\xc8\v1.33\include\pic16f877a.h"
OPTION_REG equ 081h ;# 
# 1288 "C:\Program Files (x86)\Microchip\xc8\v1.33\include\pic16f877a.h"
TRISA equ 085h ;# 
# 1337 "C:\Program Files (x86)\Microchip\xc8\v1.33\include\pic16f877a.h"
TRISB equ 086h ;# 
# 1398 "C:\Program Files (x86)\Microchip\xc8\v1.33\include\pic16f877a.h"
TRISC equ 087h ;# 
# 1459 "C:\Program Files (x86)\Microchip\xc8\v1.33\include\pic16f877a.h"
TRISD equ 088h ;# 
# 1520 "C:\Program Files (x86)\Microchip\xc8\v1.33\include\pic16f877a.h"
TRISE equ 089h ;# 
# 1576 "C:\Program Files (x86)\Microchip\xc8\v1.33\include\pic16f877a.h"
PIE1 equ 08Ch ;# 
# 1637 "C:\Program Files (x86)\Microchip\xc8\v1.33\include\pic16f877a.h"
PIE2 equ 08Dh ;# 
# 1676 "C:\Program Files (x86)\Microchip\xc8\v1.33\include\pic16f877a.h"
PCON equ 08Eh ;# 
# 1709 "C:\Program Files (x86)\Microchip\xc8\v1.33\include\pic16f877a.h"
SSPCON2 equ 091h ;# 
# 1770 "C:\Program Files (x86)\Microchip\xc8\v1.33\include\pic16f877a.h"
PR2 equ 092h ;# 
# 1776 "C:\Program Files (x86)\Microchip\xc8\v1.33\include\pic16f877a.h"
SSPADD equ 093h ;# 
# 1782 "C:\Program Files (x86)\Microchip\xc8\v1.33\include\pic16f877a.h"
SSPSTAT equ 094h ;# 
# 1950 "C:\Program Files (x86)\Microchip\xc8\v1.33\include\pic16f877a.h"
TXSTA equ 098h ;# 
# 2030 "C:\Program Files (x86)\Microchip\xc8\v1.33\include\pic16f877a.h"
SPBRG equ 099h ;# 
# 2036 "C:\Program Files (x86)\Microchip\xc8\v1.33\include\pic16f877a.h"
CMCON equ 09Ch ;# 
# 2105 "C:\Program Files (x86)\Microchip\xc8\v1.33\include\pic16f877a.h"
CVRCON equ 09Dh ;# 
# 2169 "C:\Program Files (x86)\Microchip\xc8\v1.33\include\pic16f877a.h"
ADRESL equ 09Eh ;# 
# 2175 "C:\Program Files (x86)\Microchip\xc8\v1.33\include\pic16f877a.h"
ADCON1 equ 09Fh ;# 
# 2233 "C:\Program Files (x86)\Microchip\xc8\v1.33\include\pic16f877a.h"
EEDATA equ 010Ch ;# 
# 2239 "C:\Program Files (x86)\Microchip\xc8\v1.33\include\pic16f877a.h"
EEADR equ 010Dh ;# 
# 2245 "C:\Program Files (x86)\Microchip\xc8\v1.33\include\pic16f877a.h"
EEDATH equ 010Eh ;# 
# 2251 "C:\Program Files (x86)\Microchip\xc8\v1.33\include\pic16f877a.h"
EEADRH equ 010Fh ;# 
# 2257 "C:\Program Files (x86)\Microchip\xc8\v1.33\include\pic16f877a.h"
EECON1 equ 018Ch ;# 
# 2301 "C:\Program Files (x86)\Microchip\xc8\v1.33\include\pic16f877a.h"
EECON2 equ 018Dh ;# 
# 49 "C:\Program Files (x86)\Microchip\xc8\v1.33\include\pic16f877a.h"
INDF equ 00h ;# 
# 55 "C:\Program Files (x86)\Microchip\xc8\v1.33\include\pic16f877a.h"
TMR0 equ 01h ;# 
# 61 "C:\Program Files (x86)\Microchip\xc8\v1.33\include\pic16f877a.h"
PCL equ 02h ;# 
# 67 "C:\Program Files (x86)\Microchip\xc8\v1.33\include\pic16f877a.h"
STATUS equ 03h ;# 
# 154 "C:\Program Files (x86)\Microchip\xc8\v1.33\include\pic16f877a.h"
FSR equ 04h ;# 
# 160 "C:\Program Files (x86)\Microchip\xc8\v1.33\include\pic16f877a.h"
PORTA equ 05h ;# 
# 209 "C:\Program Files (x86)\Microchip\xc8\v1.33\include\pic16f877a.h"
PORTB equ 06h ;# 
# 270 "C:\Program Files (x86)\Microchip\xc8\v1.33\include\pic16f877a.h"
PORTC equ 07h ;# 
# 331 "C:\Program Files (x86)\Microchip\xc8\v1.33\include\pic16f877a.h"
PORTD equ 08h ;# 
# 392 "C:\Program Files (x86)\Microchip\xc8\v1.33\include\pic16f877a.h"
PORTE equ 09h ;# 
# 423 "C:\Program Files (x86)\Microchip\xc8\v1.33\include\pic16f877a.h"
PCLATH equ 0Ah ;# 
# 442 "C:\Program Files (x86)\Microchip\xc8\v1.33\include\pic16f877a.h"
INTCON equ 0Bh ;# 
# 519 "C:\Program Files (x86)\Microchip\xc8\v1.33\include\pic16f877a.h"
PIR1 equ 0Ch ;# 
# 580 "C:\Program Files (x86)\Microchip\xc8\v1.33\include\pic16f877a.h"
PIR2 equ 0Dh ;# 
# 619 "C:\Program Files (x86)\Microchip\xc8\v1.33\include\pic16f877a.h"
TMR1 equ 0Eh ;# 
# 625 "C:\Program Files (x86)\Microchip\xc8\v1.33\include\pic16f877a.h"
TMR1L equ 0Eh ;# 
# 631 "C:\Program Files (x86)\Microchip\xc8\v1.33\include\pic16f877a.h"
TMR1H equ 0Fh ;# 
# 637 "C:\Program Files (x86)\Microchip\xc8\v1.33\include\pic16f877a.h"
T1CON equ 010h ;# 
# 711 "C:\Program Files (x86)\Microchip\xc8\v1.33\include\pic16f877a.h"
TMR2 equ 011h ;# 
# 717 "C:\Program Files (x86)\Microchip\xc8\v1.33\include\pic16f877a.h"
T2CON equ 012h ;# 
# 787 "C:\Program Files (x86)\Microchip\xc8\v1.33\include\pic16f877a.h"
SSPBUF equ 013h ;# 
# 793 "C:\Program Files (x86)\Microchip\xc8\v1.33\include\pic16f877a.h"
SSPCON equ 014h ;# 
# 862 "C:\Program Files (x86)\Microchip\xc8\v1.33\include\pic16f877a.h"
CCPR1 equ 015h ;# 
# 868 "C:\Program Files (x86)\Microchip\xc8\v1.33\include\pic16f877a.h"
CCPR1L equ 015h ;# 
# 874 "C:\Program Files (x86)\Microchip\xc8\v1.33\include\pic16f877a.h"
CCPR1H equ 016h ;# 
# 880 "C:\Program Files (x86)\Microchip\xc8\v1.33\include\pic16f877a.h"
CCP1CON equ 017h ;# 
# 937 "C:\Program Files (x86)\Microchip\xc8\v1.33\include\pic16f877a.h"
RCSTA equ 018h ;# 
# 1031 "C:\Program Files (x86)\Microchip\xc8\v1.33\include\pic16f877a.h"
TXREG equ 019h ;# 
# 1037 "C:\Program Files (x86)\Microchip\xc8\v1.33\include\pic16f877a.h"
RCREG equ 01Ah ;# 
# 1043 "C:\Program Files (x86)\Microchip\xc8\v1.33\include\pic16f877a.h"
CCPR2 equ 01Bh ;# 
# 1049 "C:\Program Files (x86)\Microchip\xc8\v1.33\include\pic16f877a.h"
CCPR2L equ 01Bh ;# 
# 1055 "C:\Program Files (x86)\Microchip\xc8\v1.33\include\pic16f877a.h"
CCPR2H equ 01Ch ;# 
# 1061 "C:\Program Files (x86)\Microchip\xc8\v1.33\include\pic16f877a.h"
CCP2CON equ 01Dh ;# 
# 1118 "C:\Program Files (x86)\Microchip\xc8\v1.33\include\pic16f877a.h"
ADRESH equ 01Eh ;# 
# 1124 "C:\Program Files (x86)\Microchip\xc8\v1.33\include\pic16f877a.h"
ADCON0 equ 01Fh ;# 
# 1219 "C:\Program Files (x86)\Microchip\xc8\v1.33\include\pic16f877a.h"
OPTION_REG equ 081h ;# 
# 1288 "C:\Program Files (x86)\Microchip\xc8\v1.33\include\pic16f877a.h"
TRISA equ 085h ;# 
# 1337 "C:\Program Files (x86)\Microchip\xc8\v1.33\include\pic16f877a.h"
TRISB equ 086h ;# 
# 1398 "C:\Program Files (x86)\Microchip\xc8\v1.33\include\pic16f877a.h"
TRISC equ 087h ;# 
# 1459 "C:\Program Files (x86)\Microchip\xc8\v1.33\include\pic16f877a.h"
TRISD equ 088h ;# 
# 1520 "C:\Program Files (x86)\Microchip\xc8\v1.33\include\pic16f877a.h"
TRISE equ 089h ;# 
# 1576 "C:\Program Files (x86)\Microchip\xc8\v1.33\include\pic16f877a.h"
PIE1 equ 08Ch ;# 
# 1637 "C:\Program Files (x86)\Microchip\xc8\v1.33\include\pic16f877a.h"
PIE2 equ 08Dh ;# 
# 1676 "C:\Program Files (x86)\Microchip\xc8\v1.33\include\pic16f877a.h"
PCON equ 08Eh ;# 
# 1709 "C:\Program Files (x86)\Microchip\xc8\v1.33\include\pic16f877a.h"
SSPCON2 equ 091h ;# 
# 1770 "C:\Program Files (x86)\Microchip\xc8\v1.33\include\pic16f877a.h"
PR2 equ 092h ;# 
# 1776 "C:\Program Files (x86)\Microchip\xc8\v1.33\include\pic16f877a.h"
SSPADD equ 093h ;# 
# 1782 "C:\Program Files (x86)\Microchip\xc8\v1.33\include\pic16f877a.h"
SSPSTAT equ 094h ;# 
# 1950 "C:\Program Files (x86)\Microchip\xc8\v1.33\include\pic16f877a.h"
TXSTA equ 098h ;# 
# 2030 "C:\Program Files (x86)\Microchip\xc8\v1.33\include\pic16f877a.h"
SPBRG equ 099h ;# 
# 2036 "C:\Program Files (x86)\Microchip\xc8\v1.33\include\pic16f877a.h"
CMCON equ 09Ch ;# 
# 2105 "C:\Program Files (x86)\Microchip\xc8\v1.33\include\pic16f877a.h"
CVRCON equ 09Dh ;# 
# 2169 "C:\Program Files (x86)\Microchip\xc8\v1.33\include\pic16f877a.h"
ADRESL equ 09Eh ;# 
# 2175 "C:\Program Files (x86)\Microchip\xc8\v1.33\include\pic16f877a.h"
ADCON1 equ 09Fh ;# 
# 2233 "C:\Program Files (x86)\Microchip\xc8\v1.33\include\pic16f877a.h"
EEDATA equ 010Ch ;# 
# 2239 "C:\Program Files (x86)\Microchip\xc8\v1.33\include\pic16f877a.h"
EEADR equ 010Dh ;# 
# 2245 "C:\Program Files (x86)\Microchip\xc8\v1.33\include\pic16f877a.h"
EEDATH equ 010Eh ;# 
# 2251 "C:\Program Files (x86)\Microchip\xc8\v1.33\include\pic16f877a.h"
EEADRH equ 010Fh ;# 
# 2257 "C:\Program Files (x86)\Microchip\xc8\v1.33\include\pic16f877a.h"
EECON1 equ 018Ch ;# 
# 2301 "C:\Program Files (x86)\Microchip\xc8\v1.33\include\pic16f877a.h"
EECON2 equ 018Dh ;# 
# 49 "C:\Program Files (x86)\Microchip\xc8\v1.33\include\pic16f877a.h"
INDF equ 00h ;# 
# 55 "C:\Program Files (x86)\Microchip\xc8\v1.33\include\pic16f877a.h"
TMR0 equ 01h ;# 
# 61 "C:\Program Files (x86)\Microchip\xc8\v1.33\include\pic16f877a.h"
PCL equ 02h ;# 
# 67 "C:\Program Files (x86)\Microchip\xc8\v1.33\include\pic16f877a.h"
STATUS equ 03h ;# 
# 154 "C:\Program Files (x86)\Microchip\xc8\v1.33\include\pic16f877a.h"
FSR equ 04h ;# 
# 160 "C:\Program Files (x86)\Microchip\xc8\v1.33\include\pic16f877a.h"
PORTA equ 05h ;# 
# 209 "C:\Program Files (x86)\Microchip\xc8\v1.33\include\pic16f877a.h"
PORTB equ 06h ;# 
# 270 "C:\Program Files (x86)\Microchip\xc8\v1.33\include\pic16f877a.h"
PORTC equ 07h ;# 
# 331 "C:\Program Files (x86)\Microchip\xc8\v1.33\include\pic16f877a.h"
PORTD equ 08h ;# 
# 392 "C:\Program Files (x86)\Microchip\xc8\v1.33\include\pic16f877a.h"
PORTE equ 09h ;# 
# 423 "C:\Program Files (x86)\Microchip\xc8\v1.33\include\pic16f877a.h"
PCLATH equ 0Ah ;# 
# 442 "C:\Program Files (x86)\Microchip\xc8\v1.33\include\pic16f877a.h"
INTCON equ 0Bh ;# 
# 519 "C:\Program Files (x86)\Microchip\xc8\v1.33\include\pic16f877a.h"
PIR1 equ 0Ch ;# 
# 580 "C:\Program Files (x86)\Microchip\xc8\v1.33\include\pic16f877a.h"
PIR2 equ 0Dh ;# 
# 619 "C:\Program Files (x86)\Microchip\xc8\v1.33\include\pic16f877a.h"
TMR1 equ 0Eh ;# 
# 625 "C:\Program Files (x86)\Microchip\xc8\v1.33\include\pic16f877a.h"
TMR1L equ 0Eh ;# 
# 631 "C:\Program Files (x86)\Microchip\xc8\v1.33\include\pic16f877a.h"
TMR1H equ 0Fh ;# 
# 637 "C:\Program Files (x86)\Microchip\xc8\v1.33\include\pic16f877a.h"
T1CON equ 010h ;# 
# 711 "C:\Program Files (x86)\Microchip\xc8\v1.33\include\pic16f877a.h"
TMR2 equ 011h ;# 
# 717 "C:\Program Files (x86)\Microchip\xc8\v1.33\include\pic16f877a.h"
T2CON equ 012h ;# 
# 787 "C:\Program Files (x86)\Microchip\xc8\v1.33\include\pic16f877a.h"
SSPBUF equ 013h ;# 
# 793 "C:\Program Files (x86)\Microchip\xc8\v1.33\include\pic16f877a.h"
SSPCON equ 014h ;# 
# 862 "C:\Program Files (x86)\Microchip\xc8\v1.33\include\pic16f877a.h"
CCPR1 equ 015h ;# 
# 868 "C:\Program Files (x86)\Microchip\xc8\v1.33\include\pic16f877a.h"
CCPR1L equ 015h ;# 
# 874 "C:\Program Files (x86)\Microchip\xc8\v1.33\include\pic16f877a.h"
CCPR1H equ 016h ;# 
# 880 "C:\Program Files (x86)\Microchip\xc8\v1.33\include\pic16f877a.h"
CCP1CON equ 017h ;# 
# 937 "C:\Program Files (x86)\Microchip\xc8\v1.33\include\pic16f877a.h"
RCSTA equ 018h ;# 
# 1031 "C:\Program Files (x86)\Microchip\xc8\v1.33\include\pic16f877a.h"
TXREG equ 019h ;# 
# 1037 "C:\Program Files (x86)\Microchip\xc8\v1.33\include\pic16f877a.h"
RCREG equ 01Ah ;# 
# 1043 "C:\Program Files (x86)\Microchip\xc8\v1.33\include\pic16f877a.h"
CCPR2 equ 01Bh ;# 
# 1049 "C:\Program Files (x86)\Microchip\xc8\v1.33\include\pic16f877a.h"
CCPR2L equ 01Bh ;# 
# 1055 "C:\Program Files (x86)\Microchip\xc8\v1.33\include\pic16f877a.h"
CCPR2H equ 01Ch ;# 
# 1061 "C:\Program Files (x86)\Microchip\xc8\v1.33\include\pic16f877a.h"
CCP2CON equ 01Dh ;# 
# 1118 "C:\Program Files (x86)\Microchip\xc8\v1.33\include\pic16f877a.h"
ADRESH equ 01Eh ;# 
# 1124 "C:\Program Files (x86)\Microchip\xc8\v1.33\include\pic16f877a.h"
ADCON0 equ 01Fh ;# 
# 1219 "C:\Program Files (x86)\Microchip\xc8\v1.33\include\pic16f877a.h"
OPTION_REG equ 081h ;# 
# 1288 "C:\Program Files (x86)\Microchip\xc8\v1.33\include\pic16f877a.h"
TRISA equ 085h ;# 
# 1337 "C:\Program Files (x86)\Microchip\xc8\v1.33\include\pic16f877a.h"
TRISB equ 086h ;# 
# 1398 "C:\Program Files (x86)\Microchip\xc8\v1.33\include\pic16f877a.h"
TRISC equ 087h ;# 
# 1459 "C:\Program Files (x86)\Microchip\xc8\v1.33\include\pic16f877a.h"
TRISD equ 088h ;# 
# 1520 "C:\Program Files (x86)\Microchip\xc8\v1.33\include\pic16f877a.h"
TRISE equ 089h ;# 
# 1576 "C:\Program Files (x86)\Microchip\xc8\v1.33\include\pic16f877a.h"
PIE1 equ 08Ch ;# 
# 1637 "C:\Program Files (x86)\Microchip\xc8\v1.33\include\pic16f877a.h"
PIE2 equ 08Dh ;# 
# 1676 "C:\Program Files (x86)\Microchip\xc8\v1.33\include\pic16f877a.h"
PCON equ 08Eh ;# 
# 1709 "C:\Program Files (x86)\Microchip\xc8\v1.33\include\pic16f877a.h"
SSPCON2 equ 091h ;# 
# 1770 "C:\Program Files (x86)\Microchip\xc8\v1.33\include\pic16f877a.h"
PR2 equ 092h ;# 
# 1776 "C:\Program Files (x86)\Microchip\xc8\v1.33\include\pic16f877a.h"
SSPADD equ 093h ;# 
# 1782 "C:\Program Files (x86)\Microchip\xc8\v1.33\include\pic16f877a.h"
SSPSTAT equ 094h ;# 
# 1950 "C:\Program Files (x86)\Microchip\xc8\v1.33\include\pic16f877a.h"
TXSTA equ 098h ;# 
# 2030 "C:\Program Files (x86)\Microchip\xc8\v1.33\include\pic16f877a.h"
SPBRG equ 099h ;# 
# 2036 "C:\Program Files (x86)\Microchip\xc8\v1.33\include\pic16f877a.h"
CMCON equ 09Ch ;# 
# 2105 "C:\Program Files (x86)\Microchip\xc8\v1.33\include\pic16f877a.h"
CVRCON equ 09Dh ;# 
# 2169 "C:\Program Files (x86)\Microchip\xc8\v1.33\include\pic16f877a.h"
ADRESL equ 09Eh ;# 
# 2175 "C:\Program Files (x86)\Microchip\xc8\v1.33\include\pic16f877a.h"
ADCON1 equ 09Fh ;# 
# 2233 "C:\Program Files (x86)\Microchip\xc8\v1.33\include\pic16f877a.h"
EEDATA equ 010Ch ;# 
# 2239 "C:\Program Files (x86)\Microchip\xc8\v1.33\include\pic16f877a.h"
EEADR equ 010Dh ;# 
# 2245 "C:\Program Files (x86)\Microchip\xc8\v1.33\include\pic16f877a.h"
EEDATH equ 010Eh ;# 
# 2251 "C:\Program Files (x86)\Microchip\xc8\v1.33\include\pic16f877a.h"
EEADRH equ 010Fh ;# 
# 2257 "C:\Program Files (x86)\Microchip\xc8\v1.33\include\pic16f877a.h"
EECON1 equ 018Ch ;# 
# 2301 "C:\Program Files (x86)\Microchip\xc8\v1.33\include\pic16f877a.h"
EECON2 equ 018Dh ;# 
# 49 "C:\Program Files (x86)\Microchip\xc8\v1.33\include\pic16f877a.h"
INDF equ 00h ;# 
# 55 "C:\Program Files (x86)\Microchip\xc8\v1.33\include\pic16f877a.h"
TMR0 equ 01h ;# 
# 61 "C:\Program Files (x86)\Microchip\xc8\v1.33\include\pic16f877a.h"
PCL equ 02h ;# 
# 67 "C:\Program Files (x86)\Microchip\xc8\v1.33\include\pic16f877a.h"
STATUS equ 03h ;# 
# 154 "C:\Program Files (x86)\Microchip\xc8\v1.33\include\pic16f877a.h"
FSR equ 04h ;# 
# 160 "C:\Program Files (x86)\Microchip\xc8\v1.33\include\pic16f877a.h"
PORTA equ 05h ;# 
# 209 "C:\Program Files (x86)\Microchip\xc8\v1.33\include\pic16f877a.h"
PORTB equ 06h ;# 
# 270 "C:\Program Files (x86)\Microchip\xc8\v1.33\include\pic16f877a.h"
PORTC equ 07h ;# 
# 331 "C:\Program Files (x86)\Microchip\xc8\v1.33\include\pic16f877a.h"
PORTD equ 08h ;# 
# 392 "C:\Program Files (x86)\Microchip\xc8\v1.33\include\pic16f877a.h"
PORTE equ 09h ;# 
# 423 "C:\Program Files (x86)\Microchip\xc8\v1.33\include\pic16f877a.h"
PCLATH equ 0Ah ;# 
# 442 "C:\Program Files (x86)\Microchip\xc8\v1.33\include\pic16f877a.h"
INTCON equ 0Bh ;# 
# 519 "C:\Program Files (x86)\Microchip\xc8\v1.33\include\pic16f877a.h"
PIR1 equ 0Ch ;# 
# 580 "C:\Program Files (x86)\Microchip\xc8\v1.33\include\pic16f877a.h"
PIR2 equ 0Dh ;# 
# 619 "C:\Program Files (x86)\Microchip\xc8\v1.33\include\pic16f877a.h"
TMR1 equ 0Eh ;# 
# 625 "C:\Program Files (x86)\Microchip\xc8\v1.33\include\pic16f877a.h"
TMR1L equ 0Eh ;# 
# 631 "C:\Program Files (x86)\Microchip\xc8\v1.33\include\pic16f877a.h"
TMR1H equ 0Fh ;# 
# 637 "C:\Program Files (x86)\Microchip\xc8\v1.33\include\pic16f877a.h"
T1CON equ 010h ;# 
# 711 "C:\Program Files (x86)\Microchip\xc8\v1.33\include\pic16f877a.h"
TMR2 equ 011h ;# 
# 717 "C:\Program Files (x86)\Microchip\xc8\v1.33\include\pic16f877a.h"
T2CON equ 012h ;# 
# 787 "C:\Program Files (x86)\Microchip\xc8\v1.33\include\pic16f877a.h"
SSPBUF equ 013h ;# 
# 793 "C:\Program Files (x86)\Microchip\xc8\v1.33\include\pic16f877a.h"
SSPCON equ 014h ;# 
# 862 "C:\Program Files (x86)\Microchip\xc8\v1.33\include\pic16f877a.h"
CCPR1 equ 015h ;# 
# 868 "C:\Program Files (x86)\Microchip\xc8\v1.33\include\pic16f877a.h"
CCPR1L equ 015h ;# 
# 874 "C:\Program Files (x86)\Microchip\xc8\v1.33\include\pic16f877a.h"
CCPR1H equ 016h ;# 
# 880 "C:\Program Files (x86)\Microchip\xc8\v1.33\include\pic16f877a.h"
CCP1CON equ 017h ;# 
# 937 "C:\Program Files (x86)\Microchip\xc8\v1.33\include\pic16f877a.h"
RCSTA equ 018h ;# 
# 1031 "C:\Program Files (x86)\Microchip\xc8\v1.33\include\pic16f877a.h"
TXREG equ 019h ;# 
# 1037 "C:\Program Files (x86)\Microchip\xc8\v1.33\include\pic16f877a.h"
RCREG equ 01Ah ;# 
# 1043 "C:\Program Files (x86)\Microchip\xc8\v1.33\include\pic16f877a.h"
CCPR2 equ 01Bh ;# 
# 1049 "C:\Program Files (x86)\Microchip\xc8\v1.33\include\pic16f877a.h"
CCPR2L equ 01Bh ;# 
# 1055 "C:\Program Files (x86)\Microchip\xc8\v1.33\include\pic16f877a.h"
CCPR2H equ 01Ch ;# 
# 1061 "C:\Program Files (x86)\Microchip\xc8\v1.33\include\pic16f877a.h"
CCP2CON equ 01Dh ;# 
# 1118 "C:\Program Files (x86)\Microchip\xc8\v1.33\include\pic16f877a.h"
ADRESH equ 01Eh ;# 
# 1124 "C:\Program Files (x86)\Microchip\xc8\v1.33\include\pic16f877a.h"
ADCON0 equ 01Fh ;# 
# 1219 "C:\Program Files (x86)\Microchip\xc8\v1.33\include\pic16f877a.h"
OPTION_REG equ 081h ;# 
# 1288 "C:\Program Files (x86)\Microchip\xc8\v1.33\include\pic16f877a.h"
TRISA equ 085h ;# 
# 1337 "C:\Program Files (x86)\Microchip\xc8\v1.33\include\pic16f877a.h"
TRISB equ 086h ;# 
# 1398 "C:\Program Files (x86)\Microchip\xc8\v1.33\include\pic16f877a.h"
TRISC equ 087h ;# 
# 1459 "C:\Program Files (x86)\Microchip\xc8\v1.33\include\pic16f877a.h"
TRISD equ 088h ;# 
# 1520 "C:\Program Files (x86)\Microchip\xc8\v1.33\include\pic16f877a.h"
TRISE equ 089h ;# 
# 1576 "C:\Program Files (x86)\Microchip\xc8\v1.33\include\pic16f877a.h"
PIE1 equ 08Ch ;# 
# 1637 "C:\Program Files (x86)\Microchip\xc8\v1.33\include\pic16f877a.h"
PIE2 equ 08Dh ;# 
# 1676 "C:\Program Files (x86)\Microchip\xc8\v1.33\include\pic16f877a.h"
PCON equ 08Eh ;# 
# 1709 "C:\Program Files (x86)\Microchip\xc8\v1.33\include\pic16f877a.h"
SSPCON2 equ 091h ;# 
# 1770 "C:\Program Files (x86)\Microchip\xc8\v1.33\include\pic16f877a.h"
PR2 equ 092h ;# 
# 1776 "C:\Program Files (x86)\Microchip\xc8\v1.33\include\pic16f877a.h"
SSPADD equ 093h ;# 
# 1782 "C:\Program Files (x86)\Microchip\xc8\v1.33\include\pic16f877a.h"
SSPSTAT equ 094h ;# 
# 1950 "C:\Program Files (x86)\Microchip\xc8\v1.33\include\pic16f877a.h"
TXSTA equ 098h ;# 
# 2030 "C:\Program Files (x86)\Microchip\xc8\v1.33\include\pic16f877a.h"
SPBRG equ 099h ;# 
# 2036 "C:\Program Files (x86)\Microchip\xc8\v1.33\include\pic16f877a.h"
CMCON equ 09Ch ;# 
# 2105 "C:\Program Files (x86)\Microchip\xc8\v1.33\include\pic16f877a.h"
CVRCON equ 09Dh ;# 
# 2169 "C:\Program Files (x86)\Microchip\xc8\v1.33\include\pic16f877a.h"
ADRESL equ 09Eh ;# 
# 2175 "C:\Program Files (x86)\Microchip\xc8\v1.33\include\pic16f877a.h"
ADCON1 equ 09Fh ;# 
# 2233 "C:\Program Files (x86)\Microchip\xc8\v1.33\include\pic16f877a.h"
EEDATA equ 010Ch ;# 
# 2239 "C:\Program Files (x86)\Microchip\xc8\v1.33\include\pic16f877a.h"
EEADR equ 010Dh ;# 
# 2245 "C:\Program Files (x86)\Microchip\xc8\v1.33\include\pic16f877a.h"
EEDATH equ 010Eh ;# 
# 2251 "C:\Program Files (x86)\Microchip\xc8\v1.33\include\pic16f877a.h"
EEADRH equ 010Fh ;# 
# 2257 "C:\Program Files (x86)\Microchip\xc8\v1.33\include\pic16f877a.h"
EECON1 equ 018Ch ;# 
# 2301 "C:\Program Files (x86)\Microchip\xc8\v1.33\include\pic16f877a.h"
EECON2 equ 018Dh ;# 
# 49 "C:\Program Files (x86)\Microchip\xc8\v1.33\include\pic16f877a.h"
INDF equ 00h ;# 
# 55 "C:\Program Files (x86)\Microchip\xc8\v1.33\include\pic16f877a.h"
TMR0 equ 01h ;# 
# 61 "C:\Program Files (x86)\Microchip\xc8\v1.33\include\pic16f877a.h"
PCL equ 02h ;# 
# 67 "C:\Program Files (x86)\Microchip\xc8\v1.33\include\pic16f877a.h"
STATUS equ 03h ;# 
# 154 "C:\Program Files (x86)\Microchip\xc8\v1.33\include\pic16f877a.h"
FSR equ 04h ;# 
# 160 "C:\Program Files (x86)\Microchip\xc8\v1.33\include\pic16f877a.h"
PORTA equ 05h ;# 
# 209 "C:\Program Files (x86)\Microchip\xc8\v1.33\include\pic16f877a.h"
PORTB equ 06h ;# 
# 270 "C:\Program Files (x86)\Microchip\xc8\v1.33\include\pic16f877a.h"
PORTC equ 07h ;# 
# 331 "C:\Program Files (x86)\Microchip\xc8\v1.33\include\pic16f877a.h"
PORTD equ 08h ;# 
# 392 "C:\Program Files (x86)\Microchip\xc8\v1.33\include\pic16f877a.h"
PORTE equ 09h ;# 
# 423 "C:\Program Files (x86)\Microchip\xc8\v1.33\include\pic16f877a.h"
PCLATH equ 0Ah ;# 
# 442 "C:\Program Files (x86)\Microchip\xc8\v1.33\include\pic16f877a.h"
INTCON equ 0Bh ;# 
# 519 "C:\Program Files (x86)\Microchip\xc8\v1.33\include\pic16f877a.h"
PIR1 equ 0Ch ;# 
# 580 "C:\Program Files (x86)\Microchip\xc8\v1.33\include\pic16f877a.h"
PIR2 equ 0Dh ;# 
# 619 "C:\Program Files (x86)\Microchip\xc8\v1.33\include\pic16f877a.h"
TMR1 equ 0Eh ;# 
# 625 "C:\Program Files (x86)\Microchip\xc8\v1.33\include\pic16f877a.h"
TMR1L equ 0Eh ;# 
# 631 "C:\Program Files (x86)\Microchip\xc8\v1.33\include\pic16f877a.h"
TMR1H equ 0Fh ;# 
# 637 "C:\Program Files (x86)\Microchip\xc8\v1.33\include\pic16f877a.h"
T1CON equ 010h ;# 
# 711 "C:\Program Files (x86)\Microchip\xc8\v1.33\include\pic16f877a.h"
TMR2 equ 011h ;# 
# 717 "C:\Program Files (x86)\Microchip\xc8\v1.33\include\pic16f877a.h"
T2CON equ 012h ;# 
# 787 "C:\Program Files (x86)\Microchip\xc8\v1.33\include\pic16f877a.h"
SSPBUF equ 013h ;# 
# 793 "C:\Program Files (x86)\Microchip\xc8\v1.33\include\pic16f877a.h"
SSPCON equ 014h ;# 
# 862 "C:\Program Files (x86)\Microchip\xc8\v1.33\include\pic16f877a.h"
CCPR1 equ 015h ;# 
# 868 "C:\Program Files (x86)\Microchip\xc8\v1.33\include\pic16f877a.h"
CCPR1L equ 015h ;# 
# 874 "C:\Program Files (x86)\Microchip\xc8\v1.33\include\pic16f877a.h"
CCPR1H equ 016h ;# 
# 880 "C:\Program Files (x86)\Microchip\xc8\v1.33\include\pic16f877a.h"
CCP1CON equ 017h ;# 
# 937 "C:\Program Files (x86)\Microchip\xc8\v1.33\include\pic16f877a.h"
RCSTA equ 018h ;# 
# 1031 "C:\Program Files (x86)\Microchip\xc8\v1.33\include\pic16f877a.h"
TXREG equ 019h ;# 
# 1037 "C:\Program Files (x86)\Microchip\xc8\v1.33\include\pic16f877a.h"
RCREG equ 01Ah ;# 
# 1043 "C:\Program Files (x86)\Microchip\xc8\v1.33\include\pic16f877a.h"
CCPR2 equ 01Bh ;# 
# 1049 "C:\Program Files (x86)\Microchip\xc8\v1.33\include\pic16f877a.h"
CCPR2L equ 01Bh ;# 
# 1055 "C:\Program Files (x86)\Microchip\xc8\v1.33\include\pic16f877a.h"
CCPR2H equ 01Ch ;# 
# 1061 "C:\Program Files (x86)\Microchip\xc8\v1.33\include\pic16f877a.h"
CCP2CON equ 01Dh ;# 
# 1118 "C:\Program Files (x86)\Microchip\xc8\v1.33\include\pic16f877a.h"
ADRESH equ 01Eh ;# 
# 1124 "C:\Program Files (x86)\Microchip\xc8\v1.33\include\pic16f877a.h"
ADCON0 equ 01Fh ;# 
# 1219 "C:\Program Files (x86)\Microchip\xc8\v1.33\include\pic16f877a.h"
OPTION_REG equ 081h ;# 
# 1288 "C:\Program Files (x86)\Microchip\xc8\v1.33\include\pic16f877a.h"
TRISA equ 085h ;# 
# 1337 "C:\Program Files (x86)\Microchip\xc8\v1.33\include\pic16f877a.h"
TRISB equ 086h ;# 
# 1398 "C:\Program Files (x86)\Microchip\xc8\v1.33\include\pic16f877a.h"
TRISC equ 087h ;# 
# 1459 "C:\Program Files (x86)\Microchip\xc8\v1.33\include\pic16f877a.h"
TRISD equ 088h ;# 
# 1520 "C:\Program Files (x86)\Microchip\xc8\v1.33\include\pic16f877a.h"
TRISE equ 089h ;# 
# 1576 "C:\Program Files (x86)\Microchip\xc8\v1.33\include\pic16f877a.h"
PIE1 equ 08Ch ;# 
# 1637 "C:\Program Files (x86)\Microchip\xc8\v1.33\include\pic16f877a.h"
PIE2 equ 08Dh ;# 
# 1676 "C:\Program Files (x86)\Microchip\xc8\v1.33\include\pic16f877a.h"
PCON equ 08Eh ;# 
# 1709 "C:\Program Files (x86)\Microchip\xc8\v1.33\include\pic16f877a.h"
SSPCON2 equ 091h ;# 
# 1770 "C:\Program Files (x86)\Microchip\xc8\v1.33\include\pic16f877a.h"
PR2 equ 092h ;# 
# 1776 "C:\Program Files (x86)\Microchip\xc8\v1.33\include\pic16f877a.h"
SSPADD equ 093h ;# 
# 1782 "C:\Program Files (x86)\Microchip\xc8\v1.33\include\pic16f877a.h"
SSPSTAT equ 094h ;# 
# 1950 "C:\Program Files (x86)\Microchip\xc8\v1.33\include\pic16f877a.h"
TXSTA equ 098h ;# 
# 2030 "C:\Program Files (x86)\Microchip\xc8\v1.33\include\pic16f877a.h"
SPBRG equ 099h ;# 
# 2036 "C:\Program Files (x86)\Microchip\xc8\v1.33\include\pic16f877a.h"
CMCON equ 09Ch ;# 
# 2105 "C:\Program Files (x86)\Microchip\xc8\v1.33\include\pic16f877a.h"
CVRCON equ 09Dh ;# 
# 2169 "C:\Program Files (x86)\Microchip\xc8\v1.33\include\pic16f877a.h"
ADRESL equ 09Eh ;# 
# 2175 "C:\Program Files (x86)\Microchip\xc8\v1.33\include\pic16f877a.h"
ADCON1 equ 09Fh ;# 
# 2233 "C:\Program Files (x86)\Microchip\xc8\v1.33\include\pic16f877a.h"
EEDATA equ 010Ch ;# 
# 2239 "C:\Program Files (x86)\Microchip\xc8\v1.33\include\pic16f877a.h"
EEADR equ 010Dh ;# 
# 2245 "C:\Program Files (x86)\Microchip\xc8\v1.33\include\pic16f877a.h"
EEDATH equ 010Eh ;# 
# 2251 "C:\Program Files (x86)\Microchip\xc8\v1.33\include\pic16f877a.h"
EEADRH equ 010Fh ;# 
# 2257 "C:\Program Files (x86)\Microchip\xc8\v1.33\include\pic16f877a.h"
EECON1 equ 018Ch ;# 
# 2301 "C:\Program Files (x86)\Microchip\xc8\v1.33\include\pic16f877a.h"
EECON2 equ 018Dh ;# 
# 49 "C:\Program Files (x86)\Microchip\xc8\v1.33\include\pic16f877a.h"
INDF equ 00h ;# 
# 55 "C:\Program Files (x86)\Microchip\xc8\v1.33\include\pic16f877a.h"
TMR0 equ 01h ;# 
# 61 "C:\Program Files (x86)\Microchip\xc8\v1.33\include\pic16f877a.h"
PCL equ 02h ;# 
# 67 "C:\Program Files (x86)\Microchip\xc8\v1.33\include\pic16f877a.h"
STATUS equ 03h ;# 
# 154 "C:\Program Files (x86)\Microchip\xc8\v1.33\include\pic16f877a.h"
FSR equ 04h ;# 
# 160 "C:\Program Files (x86)\Microchip\xc8\v1.33\include\pic16f877a.h"
PORTA equ 05h ;# 
# 209 "C:\Program Files (x86)\Microchip\xc8\v1.33\include\pic16f877a.h"
PORTB equ 06h ;# 
# 270 "C:\Program Files (x86)\Microchip\xc8\v1.33\include\pic16f877a.h"
PORTC equ 07h ;# 
# 331 "C:\Program Files (x86)\Microchip\xc8\v1.33\include\pic16f877a.h"
PORTD equ 08h ;# 
# 392 "C:\Program Files (x86)\Microchip\xc8\v1.33\include\pic16f877a.h"
PORTE equ 09h ;# 
# 423 "C:\Program Files (x86)\Microchip\xc8\v1.33\include\pic16f877a.h"
PCLATH equ 0Ah ;# 
# 442 "C:\Program Files (x86)\Microchip\xc8\v1.33\include\pic16f877a.h"
INTCON equ 0Bh ;# 
# 519 "C:\Program Files (x86)\Microchip\xc8\v1.33\include\pic16f877a.h"
PIR1 equ 0Ch ;# 
# 580 "C:\Program Files (x86)\Microchip\xc8\v1.33\include\pic16f877a.h"
PIR2 equ 0Dh ;# 
# 619 "C:\Program Files (x86)\Microchip\xc8\v1.33\include\pic16f877a.h"
TMR1 equ 0Eh ;# 
# 625 "C:\Program Files (x86)\Microchip\xc8\v1.33\include\pic16f877a.h"
TMR1L equ 0Eh ;# 
# 631 "C:\Program Files (x86)\Microchip\xc8\v1.33\include\pic16f877a.h"
TMR1H equ 0Fh ;# 
# 637 "C:\Program Files (x86)\Microchip\xc8\v1.33\include\pic16f877a.h"
T1CON equ 010h ;# 
# 711 "C:\Program Files (x86)\Microchip\xc8\v1.33\include\pic16f877a.h"
TMR2 equ 011h ;# 
# 717 "C:\Program Files (x86)\Microchip\xc8\v1.33\include\pic16f877a.h"
T2CON equ 012h ;# 
# 787 "C:\Program Files (x86)\Microchip\xc8\v1.33\include\pic16f877a.h"
SSPBUF equ 013h ;# 
# 793 "C:\Program Files (x86)\Microchip\xc8\v1.33\include\pic16f877a.h"
SSPCON equ 014h ;# 
# 862 "C:\Program Files (x86)\Microchip\xc8\v1.33\include\pic16f877a.h"
CCPR1 equ 015h ;# 
# 868 "C:\Program Files (x86)\Microchip\xc8\v1.33\include\pic16f877a.h"
CCPR1L equ 015h ;# 
# 874 "C:\Program Files (x86)\Microchip\xc8\v1.33\include\pic16f877a.h"
CCPR1H equ 016h ;# 
# 880 "C:\Program Files (x86)\Microchip\xc8\v1.33\include\pic16f877a.h"
CCP1CON equ 017h ;# 
# 937 "C:\Program Files (x86)\Microchip\xc8\v1.33\include\pic16f877a.h"
RCSTA equ 018h ;# 
# 1031 "C:\Program Files (x86)\Microchip\xc8\v1.33\include\pic16f877a.h"
TXREG equ 019h ;# 
# 1037 "C:\Program Files (x86)\Microchip\xc8\v1.33\include\pic16f877a.h"
RCREG equ 01Ah ;# 
# 1043 "C:\Program Files (x86)\Microchip\xc8\v1.33\include\pic16f877a.h"
CCPR2 equ 01Bh ;# 
# 1049 "C:\Program Files (x86)\Microchip\xc8\v1.33\include\pic16f877a.h"
CCPR2L equ 01Bh ;# 
# 1055 "C:\Program Files (x86)\Microchip\xc8\v1.33\include\pic16f877a.h"
CCPR2H equ 01Ch ;# 
# 1061 "C:\Program Files (x86)\Microchip\xc8\v1.33\include\pic16f877a.h"
CCP2CON equ 01Dh ;# 
# 1118 "C:\Program Files (x86)\Microchip\xc8\v1.33\include\pic16f877a.h"
ADRESH equ 01Eh ;# 
# 1124 "C:\Program Files (x86)\Microchip\xc8\v1.33\include\pic16f877a.h"
ADCON0 equ 01Fh ;# 
# 1219 "C:\Program Files (x86)\Microchip\xc8\v1.33\include\pic16f877a.h"
OPTION_REG equ 081h ;# 
# 1288 "C:\Program Files (x86)\Microchip\xc8\v1.33\include\pic16f877a.h"
TRISA equ 085h ;# 
# 1337 "C:\Program Files (x86)\Microchip\xc8\v1.33\include\pic16f877a.h"
TRISB equ 086h ;# 
# 1398 "C:\Program Files (x86)\Microchip\xc8\v1.33\include\pic16f877a.h"
TRISC equ 087h ;# 
# 1459 "C:\Program Files (x86)\Microchip\xc8\v1.33\include\pic16f877a.h"
TRISD equ 088h ;# 
# 1520 "C:\Program Files (x86)\Microchip\xc8\v1.33\include\pic16f877a.h"
TRISE equ 089h ;# 
# 1576 "C:\Program Files (x86)\Microchip\xc8\v1.33\include\pic16f877a.h"
PIE1 equ 08Ch ;# 
# 1637 "C:\Program Files (x86)\Microchip\xc8\v1.33\include\pic16f877a.h"
PIE2 equ 08Dh ;# 
# 1676 "C:\Program Files (x86)\Microchip\xc8\v1.33\include\pic16f877a.h"
PCON equ 08Eh ;# 
# 1709 "C:\Program Files (x86)\Microchip\xc8\v1.33\include\pic16f877a.h"
SSPCON2 equ 091h ;# 
# 1770 "C:\Program Files (x86)\Microchip\xc8\v1.33\include\pic16f877a.h"
PR2 equ 092h ;# 
# 1776 "C:\Program Files (x86)\Microchip\xc8\v1.33\include\pic16f877a.h"
SSPADD equ 093h ;# 
# 1782 "C:\Program Files (x86)\Microchip\xc8\v1.33\include\pic16f877a.h"
SSPSTAT equ 094h ;# 
# 1950 "C:\Program Files (x86)\Microchip\xc8\v1.33\include\pic16f877a.h"
TXSTA equ 098h ;# 
# 2030 "C:\Program Files (x86)\Microchip\xc8\v1.33\include\pic16f877a.h"
SPBRG equ 099h ;# 
# 2036 "C:\Program Files (x86)\Microchip\xc8\v1.33\include\pic16f877a.h"
CMCON equ 09Ch ;# 
# 2105 "C:\Program Files (x86)\Microchip\xc8\v1.33\include\pic16f877a.h"
CVRCON equ 09Dh ;# 
# 2169 "C:\Program Files (x86)\Microchip\xc8\v1.33\include\pic16f877a.h"
ADRESL equ 09Eh ;# 
# 2175 "C:\Program Files (x86)\Microchip\xc8\v1.33\include\pic16f877a.h"
ADCON1 equ 09Fh ;# 
# 2233 "C:\Program Files (x86)\Microchip\xc8\v1.33\include\pic16f877a.h"
EEDATA equ 010Ch ;# 
# 2239 "C:\Program Files (x86)\Microchip\xc8\v1.33\include\pic16f877a.h"
EEADR equ 010Dh ;# 
# 2245 "C:\Program Files (x86)\Microchip\xc8\v1.33\include\pic16f877a.h"
EEDATH equ 010Eh ;# 
# 2251 "C:\Program Files (x86)\Microchip\xc8\v1.33\include\pic16f877a.h"
EEADRH equ 010Fh ;# 
# 2257 "C:\Program Files (x86)\Microchip\xc8\v1.33\include\pic16f877a.h"
EECON1 equ 018Ch ;# 
# 2301 "C:\Program Files (x86)\Microchip\xc8\v1.33\include\pic16f877a.h"
EECON2 equ 018Dh ;# 
	FNCALL	_main,_ADC_Init
	FNCALL	_main,_LCD_Clear
	FNCALL	_main,_LCD_Cursor
	FNCALL	_main,_LCD_Init
	FNCALL	_main,_LCD_WriteString
	FNCALL	_main,_PWM_DutyCycle1
	FNCALL	_main,_PWM_DutyCycle2
	FNCALL	_main,_PWM_Init
	FNCALL	_main,_TIMER0_Init
	FNCALL	_main,_TIMER0_Set
	FNCALL	_main,_USART_Init
	FNCALL	_USART_Init,___aldiv
	FNCALL	_LCD_WriteString,_LCD_WriteData
	FNCALL	_LCD_Init,_LCD_WriteCmd
	FNCALL	_LCD_Clear,_LCD_WriteCmd
	FNROOT	_main
	FNCALL	_ISR,_Fuzzy
	FNCALL	_ISR,_USART_ReceiveChar
	FNCALL	_ISR,_USART_WriteString
	FNCALL	_ISR,___lwdiv
	FNCALL	_ISR,___wmul
	FNCALL	_ISR,_send
	FNCALL	_ISR,i1_PWM_DutyCycle2
	FNCALL	_ISR,i1_TIMER0_Set
	FNCALL	_send,_USART_WriteChar
	FNCALL	_send,___wmul
	FNCALL	_USART_ReceiveChar,_USART_WriteString
	FNCALL	_USART_WriteString,_USART_WriteChar
	FNCALL	_Fuzzy,___awtoft
	FNCALL	_Fuzzy,___ftadd
	FNCALL	_Fuzzy,___ftdiv
	FNCALL	_Fuzzy,___ftge
	FNCALL	_Fuzzy,___ftmul
	FNCALL	_Fuzzy,___fttol
	FNCALL	_Fuzzy,___lwdiv
	FNCALL	_Fuzzy,___lwtoft
	FNCALL	_Fuzzy,_max_val
	FNCALL	_Fuzzy,_trapmf
	FNCALL	_Fuzzy,_trimf
	FNCALL	_Fuzzy,i1_PWM_DutyCycle2
	FNCALL	_trimf,___ftadd
	FNCALL	_trimf,___ftdiv
	FNCALL	_trimf,___ftge
	FNCALL	_trimf,___ftneg
	FNCALL	_trapmf,___ftadd
	FNCALL	_trapmf,___ftdiv
	FNCALL	_trapmf,___ftge
	FNCALL	_trapmf,___ftneg
	FNCALL	___ftdiv,___ftpack
	FNCALL	___ftadd,___ftpack
	FNCALL	_max_val,___ftge
	FNCALL	___lwtoft,___ftpack
	FNCALL	___ftmul,___ftpack
	FNCALL	___awtoft,___ftpack
	FNCALL	intlevel1,_ISR
	global	intlevel1
	FNROOT	intlevel1
	global	_pas_cooler
	global	_pwm
	global	_antigo
	global	_setpoint
psect	idataBANK0,class=CODE,space=0,delta=2,noexec
global __pidataBANK0
__pidataBANK0:
	file	"R:\Note\Sistema I\Ultimo C no MPLAB\main.c"
	line	26

;initializer for _pas_cooler
	retlw	07h
	retlw	0

psect	idataBANK1,class=CODE,space=0,delta=2,noexec
global __pidataBANK1
__pidataBANK1:
	line	29

;initializer for _pwm
	retlw	032h
	retlw	0

psect	idataBANK3,class=CODE,space=0,delta=2,noexec
global __pidataBANK3
__pidataBANK3:
	line	55

;initializer for _antigo
	retlw	0x0
	retlw	0x48
	retlw	0x42

	line	56

;initializer for _setpoint
	retlw	0x0
	retlw	0xa0
	retlw	0x41

	global	_antigoUI
	global	_deltaV
	global	_pulsos
	global	_rpm
	global	_setpointUI
	global	_ativa_fan
	global	_fitemp
	global	_fop_rule1
	global	_fop_rule2
	global	_fop_rule3
	global	_sum
	global	_total_area
	global	_ADCResult
	global	_contagens_tm0
	global	_status
	global	_x
	global	_y
	global	_buffer
	global	_display_rpm
	global	_TMR1
_TMR1	set	0xE
	global	_ADCON0bits
_ADCON0bits	set	0x1F
	global	_ADRESH
_ADRESH	set	0x1E
	global	_CCP1CON
_CCP1CON	set	0x17
	global	_CCP1CONbits
_CCP1CONbits	set	0x17
	global	_CCP2CON
_CCP2CON	set	0x1D
	global	_CCP2CONbits
_CCP2CONbits	set	0x1D
	global	_CCPR1L
_CCPR1L	set	0x15
	global	_CCPR2L
_CCPR2L	set	0x1B
	global	_INTCONbits
_INTCONbits	set	0xB
	global	_PIR1bits
_PIR1bits	set	0xC
	global	_PIR2bits
_PIR2bits	set	0xD
	global	_PORTA
_PORTA	set	0x5
	global	_PORTB
_PORTB	set	0x6
	global	_PORTBbits
_PORTBbits	set	0x6
	global	_PORTC
_PORTC	set	0x7
	global	_PORTD
_PORTD	set	0x8
	global	_PORTE
_PORTE	set	0x9
	global	_PORTEbits
_PORTEbits	set	0x9
	global	_RCREG
_RCREG	set	0x1A
	global	_RCSTAbits
_RCSTAbits	set	0x18
	global	_SSPBUF
_SSPBUF	set	0x13
	global	_SSPCONbits
_SSPCONbits	set	0x14
	global	_T1CON
_T1CON	set	0x10
	global	_T1CONbits
_T1CONbits	set	0x10
	global	_T2CONbits
_T2CONbits	set	0x12
	global	_TMR0
_TMR0	set	0x1
	global	_TMR1H
_TMR1H	set	0xF
	global	_TMR1L
_TMR1L	set	0xE
	global	_TXREG
_TXREG	set	0x19
	global	_OERR
_OERR	set	0xC1
	global	_ADCON1bits
_ADCON1bits	set	0x9F
	global	_ADRESL
_ADRESL	set	0x9E
	global	_OPTION_REGbits
_OPTION_REGbits	set	0x81
	global	_PIE1bits
_PIE1bits	set	0x8C
	global	_PIE2bits
_PIE2bits	set	0x8D
	global	_PR2
_PR2	set	0x92
	global	_SPBRG
_SPBRG	set	0x99
	global	_SSPADD
_SSPADD	set	0x93
	global	_SSPCON2
_SSPCON2	set	0x91
	global	_SSPCON2bits
_SSPCON2bits	set	0x91
	global	_SSPSTATbits
_SSPSTATbits	set	0x94
	global	_TRISA
_TRISA	set	0x85
	global	_TRISB
_TRISB	set	0x86
	global	_TRISC
_TRISC	set	0x87
	global	_TRISD
_TRISD	set	0x88
	global	_TRISE
_TRISE	set	0x89
	global	_TXSTAbits
_TXSTAbits	set	0x98
	global	_EEADR
_EEADR	set	0x10D
	global	_EEDATA
_EEDATA	set	0x10C
	global	_EECON1bits
_EECON1bits	set	0x18C
	global	_EECON2
_EECON2	set	0x18D
psect	strings,class=STRING,delta=2,noexec
global __pstrings
__pstrings:
stringtab:
	global    __stringtab
__stringtab:
;	String table - string pointers are 1 byte each
	btfsc	(btemp+1),7
	ljmp	stringcode
	bcf	status,7
	btfsc	(btemp+1),0
	bsf	status,7
	movf	indf,w
	incf fsr
skipnz
incf btemp+1
	return
stringcode:stringdir:
movlw high(stringdir)
movwf pclath
movf fsr,w
incf fsr
	addwf pc
	global __stringbase
__stringbase:
	retlw	0
psect	strings
	global    __end_of__stringtab
__end_of__stringtab:
	global __stringdata
__stringdata:
	
STR_4:	
	retlw	10
	retlw	13
	retlw	32	;' '
	retlw	45	;'-'
	retlw	45	;'-'
	retlw	45	;'-'
	retlw	45	;'-'
	retlw	45	;'-'
	retlw	45	;'-'
	retlw	45	;'-'
	retlw	32	;' '
	retlw	69	;'E'
	retlw	83	;'S'
	retlw	84	;'T'
	retlw	79	;'O'
	retlw	85	;'U'
	retlw	82	;'R'
	retlw	79	;'O'
	retlw	32	;' '
	retlw	68	;'D'
	retlw	69	;'E'
	retlw	32	;' '
	retlw	80	;'P'
	retlw	73	;'I'
	retlw	76	;'L'
	retlw	72	;'H'
	retlw	65	;'A'
	retlw	32	;' '
	retlw	45	;'-'
	retlw	45	;'-'
	retlw	45	;'-'
	retlw	45	;'-'
	retlw	45	;'-'
	retlw	45	;'-'
	retlw	45	;'-'
	retlw	32	;' '
	retlw	10
	retlw	13
	retlw	32	;' '
	retlw	0
psect	strings
	
STR_2:	
	retlw	73	;'I'
	retlw	110	;'n'
	retlw	105	;'i'
	retlw	99	;'c'
	retlw	105	;'i'
	retlw	97	;'a'
	retlw	108	;'l'
	retlw	105	;'i'
	retlw	122	;'z'
	retlw	97	;'a'
	retlw	110	;'n'
	retlw	100	;'d'
	retlw	111	;'o'
	retlw	46	;'.'
	retlw	46	;'.'
	retlw	46	;'.'
	retlw	0
psect	strings
	
STR_1:	
	retlw	10
	retlw	13
	retlw	100	;'d'
	retlw	101	;'e'
	retlw	115	;'s'
	retlw	108	;'l'
	retlw	105	;'i'
	retlw	103	;'g'
	retlw	97	;'a'
	retlw	100	;'d'
	retlw	111	;'o'
	retlw	10
	retlw	13
	retlw	0
psect	strings
	
STR_3:	
	retlw	107	;'k'
	retlw	109	;'m'
	retlw	72	;'H'
	retlw	58	;':'
	retlw	32	;' '
	retlw	0
psect	strings
	global __end_of__stringdata
__end_of__stringdata:
; #config settings
global __CFG_WDTE$OFF
__CFG_WDTE$OFF equ 0x0
global __CFG_PWRTE$ON
__CFG_PWRTE$ON equ 0x0
global __CFG_CP$OFF
__CFG_CP$OFF equ 0x0
global __CFG_BOREN$OFF
__CFG_BOREN$OFF equ 0x0
global __CFG_LVP$OFF
__CFG_LVP$OFF equ 0x0
global __CFG_CPD$OFF
__CFG_CPD$OFF equ 0x0
global __CFG_FOSC$HS
__CFG_FOSC$HS equ 0x0
	file	"PIC16F877A.as"
	line	#
psect cinit,class=CODE,delta=2
global start_initialization
start_initialization:

global __initialization
__initialization:
psect	bssBANK0,class=BANK0,space=1,noexec
global __pbssBANK0
__pbssBANK0:
_antigoUI:
       ds      2

_deltaV:
       ds      2

_pulsos:
       ds      2

_rpm:
       ds      2

_setpointUI:
       ds      2

psect	dataBANK0,class=BANK0,space=1,noexec
global __pdataBANK0
__pdataBANK0:
	file	"R:\Note\Sistema I\Ultimo C no MPLAB\main.c"
	line	26
_pas_cooler:
       ds      2

psect	bssBANK1,class=BANK1,space=1,noexec
global __pbssBANK1
__pbssBANK1:
_ativa_fan:
       ds      3

_fitemp:
       ds      3

_fop_rule1:
       ds      3

_fop_rule2:
       ds      3

_fop_rule3:
       ds      3

_sum:
       ds      3

_total_area:
       ds      3

_ADCResult:
       ds      2

_contagens_tm0:
       ds      2

_status:
       ds      2

_x:
       ds      2

_y:
       ds      2

psect	dataBANK1,class=BANK1,space=1,noexec
global __pdataBANK1
__pdataBANK1:
	file	"R:\Note\Sistema I\Ultimo C no MPLAB\main.c"
	line	29
_pwm:
       ds      2

psect	bssBANK3,class=BANK3,space=1,noexec
global __pbssBANK3
__pbssBANK3:
_buffer:
       ds      16

_display_rpm:
       ds      10

psect	dataBANK3,class=BANK3,space=1,noexec
global __pdataBANK3
__pdataBANK3:
	file	"R:\Note\Sistema I\Ultimo C no MPLAB\main.c"
	line	55
_antigo:
       ds      3

psect	dataBANK3
	file	"R:\Note\Sistema I\Ultimo C no MPLAB\main.c"
	line	56
_setpoint:
       ds      3

	file	"PIC16F877A.as"
	line	#
psect clrtext,class=CODE,delta=2
global clear_ram0
;	Called with FSR containing the base address, and
;	W with the last address+1
clear_ram0:
	clrwdt			;clear the watchdog before getting into this loop
clrloop0:
	clrf	indf		;clear RAM location pointed to by FSR
	incf	fsr,f		;increment pointer
	xorwf	fsr,w		;XOR with final address
	btfsc	status,2	;have we reached the end yet?
	retlw	0		;all done for this memory range, return
	xorwf	fsr,w		;XOR again to restore value
	goto	clrloop0		;do the next byte

; Clear objects allocated to BANK0
psect cinit,class=CODE,delta=2,merge=1
	bcf	status, 7	;select IRP bank0
	movlw	low(__pbssBANK0)
	movwf	fsr
	movlw	low((__pbssBANK0)+0Ah)
	fcall	clear_ram0
; Clear objects allocated to BANK1
psect cinit,class=CODE,delta=2,merge=1
	movlw	low(__pbssBANK1)
	movwf	fsr
	movlw	low((__pbssBANK1)+01Fh)
	fcall	clear_ram0
; Clear objects allocated to BANK3
psect cinit,class=CODE,delta=2,merge=1
	bsf	status, 7	;select IRP bank2
	movlw	low(__pbssBANK3)
	movwf	fsr
	movlw	low((__pbssBANK3)+01Ah)
	fcall	clear_ram0
	line	#
; Initialize objects allocated to BANK3
	global __pidataBANK3
psect cinit,class=CODE,delta=2,merge=1
	bsf	status, 5	;RP0=1, select bank3
	bsf	status, 6	;RP1=1, select bank3
	fcall	__pidataBANK3+0		;fetch initializer
	movwf	__pdataBANK3+0&07fh		
	fcall	__pidataBANK3+1		;fetch initializer
	movwf	__pdataBANK3+1&07fh		
	fcall	__pidataBANK3+2		;fetch initializer
	movwf	__pdataBANK3+2&07fh		
	fcall	__pidataBANK3+3		;fetch initializer
	movwf	__pdataBANK3+3&07fh		
	fcall	__pidataBANK3+4		;fetch initializer
	movwf	__pdataBANK3+4&07fh		
	fcall	__pidataBANK3+5		;fetch initializer
	movwf	__pdataBANK3+5&07fh		
; Initialize objects allocated to BANK1
	global __pidataBANK1
psect cinit,class=CODE,delta=2,merge=1
	bsf	status, 5	;RP0=1, select bank1
	bcf	status, 6	;RP1=0, select bank1
	fcall	__pidataBANK1+0		;fetch initializer
	movwf	__pdataBANK1+0&07fh		
	fcall	__pidataBANK1+1		;fetch initializer
	movwf	__pdataBANK1+1&07fh		
; Initialize objects allocated to BANK0
	global __pidataBANK0
psect cinit,class=CODE,delta=2,merge=1
	bcf	status, 5	;RP0=0, select bank0
	bcf	status, 6	;RP1=0, select bank0
	fcall	__pidataBANK0+0		;fetch initializer
	movwf	__pdataBANK0+0&07fh		
	fcall	__pidataBANK0+1		;fetch initializer
	movwf	__pdataBANK0+1&07fh		
psect cinit,class=CODE,delta=2,merge=1
global end_of_initialization,__end_of__initialization

;End of C runtime variable initialization code

end_of_initialization:
__end_of__initialization:clrf status
ljmp _main	;jump to C main() function
psect	cstackBANK3,class=BANK3,space=1,noexec
global __pcstackBANK3
__pcstackBANK3:
	global	?___aldiv
?___aldiv:	; 4 bytes @ 0x0
	global	___aldiv@divisor
___aldiv@divisor:	; 4 bytes @ 0x0
	ds	4
	global	___aldiv@dividend
___aldiv@dividend:	; 4 bytes @ 0x4
	ds	4
?_USART_Init:	; 0 bytes @ 0x8
	global	USART_Init@BaudRate
USART_Init@BaudRate:	; 4 bytes @ 0x8
	ds	4
??_USART_Init:	; 0 bytes @ 0xC
	ds	4
??_main:	; 0 bytes @ 0x10
	ds	3
psect	cstackBANK1,class=BANK1,space=1,noexec
global __pcstackBANK1
__pcstackBANK1:
	global	Fuzzy@freio
Fuzzy@freio:	; 2 bytes @ 0x0
	ds	2
	global	Fuzzy@tip
Fuzzy@tip:	; 3 bytes @ 0x2
	ds	3
	global	Fuzzy@a
Fuzzy@a:	; 2 bytes @ 0x5
	ds	2
	global	Fuzzy@a_242
Fuzzy@a_242:	; 2 bytes @ 0x7
	ds	2
	global	Fuzzy@a_243
Fuzzy@a_243:	; 2 bytes @ 0x9
	ds	2
	global	Fuzzy@mantem
Fuzzy@mantem:	; 3 bytes @ 0xB
	ds	3
	global	Fuzzy@reduz
Fuzzy@reduz:	; 3 bytes @ 0xE
	ds	3
	global	Fuzzy@aumenta
Fuzzy@aumenta:	; 3 bytes @ 0x11
	ds	3
?_PWM_DutyCycle2:	; 0 bytes @ 0x14
??_TIMER0_Set:	; 0 bytes @ 0x14
??_TIMER0_Init:	; 0 bytes @ 0x14
??_ADC_Init:	; 0 bytes @ 0x14
??_PWM_Init:	; 0 bytes @ 0x14
?_LCD_Cursor:	; 0 bytes @ 0x14
?_PWM_DutyCycle1:	; 0 bytes @ 0x14
??_LCD_WriteCmd:	; 0 bytes @ 0x14
??_LCD_WriteData:	; 0 bytes @ 0x14
??___aldiv:	; 0 bytes @ 0x14
	global	TIMER0_Set@contagens
TIMER0_Set@contagens:	; 1 bytes @ 0x14
	global	LCD_Cursor@Col
LCD_Cursor@Col:	; 1 bytes @ 0x14
	global	PWM_DutyCycle1@valor
PWM_DutyCycle1@valor:	; 2 bytes @ 0x14
	global	PWM_DutyCycle2@valor
PWM_DutyCycle2@valor:	; 2 bytes @ 0x14
	ds	1
??_LCD_Cursor:	; 0 bytes @ 0x15
	global	LCD_WriteCmd@Byte
LCD_WriteCmd@Byte:	; 1 bytes @ 0x15
	global	LCD_WriteData@Byte
LCD_WriteData@Byte:	; 1 bytes @ 0x15
	global	___aldiv@counter
___aldiv@counter:	; 1 bytes @ 0x15
	ds	1
??_PWM_DutyCycle2:	; 0 bytes @ 0x16
??_LCD_Init:	; 0 bytes @ 0x16
?_LCD_WriteString:	; 0 bytes @ 0x16
??_PWM_DutyCycle1:	; 0 bytes @ 0x16
??_LCD_Clear:	; 0 bytes @ 0x16
	global	LCD_Cursor@Row
LCD_Cursor@Row:	; 1 bytes @ 0x16
	global	___aldiv@sign
___aldiv@sign:	; 1 bytes @ 0x16
	global	LCD_WriteString@Str
LCD_WriteString@Str:	; 2 bytes @ 0x16
	ds	1
	global	___aldiv@quotient
___aldiv@quotient:	; 4 bytes @ 0x17
	ds	1
??_LCD_WriteString:	; 0 bytes @ 0x18
	ds	3
psect	cstackCOMMON,class=COMMON,space=1,noexec
global __pcstackCOMMON
__pcstackCOMMON:
?_USART_WriteChar:	; 0 bytes @ 0x0
??_USART_WriteChar:	; 0 bytes @ 0x0
?_USART_WriteString:	; 0 bytes @ 0x0
?_TIMER0_Set:	; 0 bytes @ 0x0
?_TIMER0_Init:	; 0 bytes @ 0x0
?_ADC_Init:	; 0 bytes @ 0x0
?_PWM_Init:	; 0 bytes @ 0x0
?_LCD_Init:	; 0 bytes @ 0x0
?_LCD_Clear:	; 0 bytes @ 0x0
?_send:	; 0 bytes @ 0x0
?_Fuzzy:	; 0 bytes @ 0x0
?_ISR:	; 0 bytes @ 0x0
?_main:	; 0 bytes @ 0x0
?_LCD_WriteCmd:	; 0 bytes @ 0x0
?_LCD_WriteData:	; 0 bytes @ 0x0
?i1_TIMER0_Set:	; 0 bytes @ 0x0
??i1_TIMER0_Set:	; 0 bytes @ 0x0
?i1_PWM_DutyCycle2:	; 0 bytes @ 0x0
?_USART_ReceiveChar:	; 1 bytes @ 0x0
	global	?___lwdiv
?___lwdiv:	; 2 bytes @ 0x0
	global	?___ftpack
?___ftpack:	; 3 bytes @ 0x0
	global	?___ftneg
?___ftneg:	; 3 bytes @ 0x0
	global	USART_WriteChar@byte
USART_WriteChar@byte:	; 1 bytes @ 0x0
	global	i1TIMER0_Set@contagens
i1TIMER0_Set@contagens:	; 1 bytes @ 0x0
	global	___lwdiv@divisor
___lwdiv@divisor:	; 2 bytes @ 0x0
	global	i1PWM_DutyCycle2@valor
i1PWM_DutyCycle2@valor:	; 2 bytes @ 0x0
	global	___ftpack@arg
___ftpack@arg:	; 3 bytes @ 0x0
	global	___ftneg@f1
___ftneg@f1:	; 3 bytes @ 0x0
	ds	1
??_USART_WriteString:	; 0 bytes @ 0x1
	ds	1
??i1_PWM_DutyCycle2:	; 0 bytes @ 0x2
	global	USART_WriteString@str
USART_WriteString@str:	; 1 bytes @ 0x2
	global	___lwdiv@dividend
___lwdiv@dividend:	; 2 bytes @ 0x2
	ds	1
??_USART_ReceiveChar:	; 0 bytes @ 0x3
??___ftneg:	; 0 bytes @ 0x3
	global	___ftpack@exp
___ftpack@exp:	; 1 bytes @ 0x3
	ds	1
??___lwdiv:	; 0 bytes @ 0x4
	global	USART_ReceiveChar@byte
USART_ReceiveChar@byte:	; 1 bytes @ 0x4
	global	___ftpack@sign
___ftpack@sign:	; 1 bytes @ 0x4
	ds	1
??___ftpack:	; 0 bytes @ 0x5
	global	___lwdiv@quotient
___lwdiv@quotient:	; 2 bytes @ 0x5
	ds	2
	global	___lwdiv@counter
___lwdiv@counter:	; 1 bytes @ 0x7
	ds	1
	global	?___wmul
?___wmul:	; 2 bytes @ 0x8
	global	?___awtoft
?___awtoft:	; 3 bytes @ 0x8
	global	?___ftmul
?___ftmul:	; 3 bytes @ 0x8
	global	?___lwtoft
?___lwtoft:	; 3 bytes @ 0x8
	global	___wmul@multiplier
___wmul@multiplier:	; 2 bytes @ 0x8
	global	___awtoft@c
___awtoft@c:	; 2 bytes @ 0x8
	global	___lwtoft@c
___lwtoft@c:	; 2 bytes @ 0x8
	global	___ftmul@f1
___ftmul@f1:	; 3 bytes @ 0x8
	ds	2
	global	___wmul@multiplicand
___wmul@multiplicand:	; 2 bytes @ 0xA
	ds	1
??___awtoft:	; 0 bytes @ 0xB
??___lwtoft:	; 0 bytes @ 0xB
	global	___ftmul@f2
___ftmul@f2:	; 3 bytes @ 0xB
	ds	1
??___wmul:	; 0 bytes @ 0xC
	global	___wmul@product
___wmul@product:	; 2 bytes @ 0xC
	ds	1
	global	___awtoft@sign
___awtoft@sign:	; 1 bytes @ 0xD
	ds	1
??_trimf:	; 0 bytes @ 0xE
??_trapmf:	; 0 bytes @ 0xE
??_max_val:	; 0 bytes @ 0xE
psect	cstackBANK0,class=BANK0,space=1,noexec
global __pcstackBANK0
__pcstackBANK0:
??_send:	; 0 bytes @ 0x0
?___ftge:	; 1 bit 
??___ftmul:	; 0 bytes @ 0x0
	global	?___ftadd
?___ftadd:	; 3 bytes @ 0x0
	global	___ftadd@f1
___ftadd@f1:	; 3 bytes @ 0x0
	global	___ftge@ff1
___ftge@ff1:	; 3 bytes @ 0x0
	ds	1
	global	send@checksum
send@checksum:	; 1 bytes @ 0x1
	ds	1
	global	send@velocidade
send@velocidade:	; 2 bytes @ 0x2
	ds	1
	global	___ftadd@f2
___ftadd@f2:	; 3 bytes @ 0x3
	global	___ftge@ff2
___ftge@ff2:	; 3 bytes @ 0x3
	ds	1
	global	send@index
send@index:	; 1 bytes @ 0x4
	global	___ftmul@exp
___ftmul@exp:	; 1 bytes @ 0x4
	ds	1
	global	___ftmul@f3_as_product
___ftmul@f3_as_product:	; 3 bytes @ 0x5
	ds	1
??___ftadd:	; 0 bytes @ 0x6
??___ftge:	; 0 bytes @ 0x6
	ds	2
	global	___ftmul@cntr
___ftmul@cntr:	; 1 bytes @ 0x8
	ds	1
	global	___ftmul@sign
___ftmul@sign:	; 1 bytes @ 0x9
	ds	1
	global	___ftadd@sign
___ftadd@sign:	; 1 bytes @ 0xA
	ds	1
	global	___ftadd@exp2
___ftadd@exp2:	; 1 bytes @ 0xB
	ds	1
	global	?_max_val
?_max_val:	; 3 bytes @ 0xC
	global	___ftadd@exp1
___ftadd@exp1:	; 1 bytes @ 0xC
	global	max_val@a
max_val@a:	; 3 bytes @ 0xC
	ds	1
	global	?___ftdiv
?___ftdiv:	; 3 bytes @ 0xD
	global	___ftdiv@f2
___ftdiv@f2:	; 3 bytes @ 0xD
	ds	2
	global	max_val@b
max_val@b:	; 3 bytes @ 0xF
	ds	1
	global	___ftdiv@f1
___ftdiv@f1:	; 3 bytes @ 0x10
	ds	3
??___ftdiv:	; 0 bytes @ 0x13
	ds	4
	global	___ftdiv@cntr
___ftdiv@cntr:	; 1 bytes @ 0x17
	ds	1
	global	___ftdiv@f3
___ftdiv@f3:	; 3 bytes @ 0x18
	ds	3
	global	___ftdiv@exp
___ftdiv@exp:	; 1 bytes @ 0x1B
	ds	1
	global	___ftdiv@sign
___ftdiv@sign:	; 1 bytes @ 0x1C
	ds	1
	global	?_trimf
?_trimf:	; 3 bytes @ 0x1D
	global	?_trapmf
?_trapmf:	; 3 bytes @ 0x1D
	global	trimf@x
trimf@x:	; 3 bytes @ 0x1D
	global	trapmf@x
trapmf@x:	; 3 bytes @ 0x1D
	ds	3
	global	trimf@a
trimf@a:	; 3 bytes @ 0x20
	global	trapmf@a
trapmf@a:	; 3 bytes @ 0x20
	ds	3
	global	trimf@b
trimf@b:	; 3 bytes @ 0x23
	global	trapmf@b
trapmf@b:	; 3 bytes @ 0x23
	ds	3
	global	trimf@c
trimf@c:	; 3 bytes @ 0x26
	global	trapmf@c
trapmf@c:	; 3 bytes @ 0x26
	ds	3
	global	trimf@ua
trimf@ua:	; 3 bytes @ 0x29
	global	trapmf@d
trapmf@d:	; 3 bytes @ 0x29
	ds	3
	global	trapmf@ua
trapmf@ua:	; 3 bytes @ 0x2C
	ds	3
	global	?___fttol
?___fttol:	; 4 bytes @ 0x2F
	global	___fttol@f1
___fttol@f1:	; 3 bytes @ 0x2F
	ds	4
??___fttol:	; 0 bytes @ 0x33
	ds	4
	global	___fttol@sign1
___fttol@sign1:	; 1 bytes @ 0x37
	ds	1
	global	___fttol@lval
___fttol@lval:	; 4 bytes @ 0x38
	ds	4
	global	___fttol@exp1
___fttol@exp1:	; 1 bytes @ 0x3C
	ds	1
??_Fuzzy:	; 0 bytes @ 0x3D
	ds	2
??_ISR:	; 0 bytes @ 0x3F
	ds	4
;!
;!Data Sizes:
;!    Strings     77
;!    Constant    0
;!    Data        10
;!    BSS         67
;!    Persistent  0
;!    Stack       0
;!
;!Auto Spaces:
;!    Space          Size  Autos    Used
;!    COMMON           14     14      14
;!    BANK0            80     67      79
;!    BANK1            80     27      60
;!    BANK3            96     19      51
;!    BANK2            96      0       0

;!
;!Pointer List with Targets:
;!
;!    LCD_WriteString@Str	PTR const unsigned char  size(2) Largest target is 17
;!		 -> display_rpm(BANK3[10]), STR_3(CODE[6]), STR_2(CODE[17]), 
;!
;!    USART_WriteString@str	PTR const unsigned char  size(1) Largest target is 40
;!		 -> STR_4(CODE[40]), STR_1(CODE[14]), 
;!


;!
;!Critical Paths under _main in COMMON
;!
;!    None.
;!
;!Critical Paths under _ISR in COMMON
;!
;!    _ISR->___wmul
;!    _send->___wmul
;!    ___wmul->___lwdiv
;!    _USART_ReceiveChar->_USART_WriteString
;!    _USART_WriteString->_USART_WriteChar
;!    _Fuzzy->___awtoft
;!    _Fuzzy->___ftmul
;!    _trimf->___awtoft
;!    _trapmf->___awtoft
;!    ___ftadd->___awtoft
;!    ___ftge->___awtoft
;!    ___lwtoft->___ftpack
;!    ___fttol->___awtoft
;!    ___ftmul->___ftpack
;!    ___awtoft->___ftpack
;!
;!Critical Paths under _main in BANK0
;!
;!    None.
;!
;!Critical Paths under _ISR in BANK0
;!
;!    _ISR->_Fuzzy
;!    _Fuzzy->___fttol
;!    _trimf->___ftdiv
;!    _trapmf->___ftdiv
;!    ___ftdiv->___ftadd
;!    _max_val->___ftge
;!    ___fttol->_trapmf
;!
;!Critical Paths under _main in BANK1
;!
;!    _USART_Init->___aldiv
;!    _LCD_WriteString->_LCD_WriteData
;!    _LCD_Init->_LCD_WriteCmd
;!    _LCD_Clear->_LCD_WriteCmd
;!
;!Critical Paths under _ISR in BANK1
;!
;!    _ISR->_Fuzzy
;!
;!Critical Paths under _main in BANK3
;!
;!    _main->_USART_Init
;!    _USART_Init->___aldiv
;!
;!Critical Paths under _ISR in BANK3
;!
;!    None.
;!
;!Critical Paths under _main in BANK2
;!
;!    None.
;!
;!Critical Paths under _ISR in BANK2
;!
;!    None.

;;
;;Main: autosize = 0, tempsize = 3, incstack = 0, save=0
;;

;!
;!Call Graph Tables:
;!
;! ---------------------------------------------------------------------------------
;! (Depth) Function   	        Calls       Base Space   Used Autos Params    Refs
;! ---------------------------------------------------------------------------------
;! (0) _main                                                 3     3      0    1684
;!                                             16 BANK3      3     3      0
;!                           _ADC_Init
;!                          _LCD_Clear
;!                         _LCD_Cursor
;!                           _LCD_Init
;!                    _LCD_WriteString
;!                     _PWM_DutyCycle1
;!                     _PWM_DutyCycle2
;!                           _PWM_Init
;!                        _TIMER0_Init
;!                         _TIMER0_Set
;!                         _USART_Init
;! ---------------------------------------------------------------------------------
;! (1) _USART_Init                                           8     4      4     707
;!                                              8 BANK3      8     4      4
;!                            ___aldiv
;! ---------------------------------------------------------------------------------
;! (2) ___aldiv                                             15     7      8     599
;!                                             20 BANK1      7     7      0
;!                                              0 BANK3      8     0      8
;! ---------------------------------------------------------------------------------
;! (1) _TIMER0_Set                                           1     1      0      22
;!                                             20 BANK1      1     1      0
;! ---------------------------------------------------------------------------------
;! (1) _TIMER0_Init                                          0     0      0       0
;! ---------------------------------------------------------------------------------
;! (1) _PWM_Init                                             0     0      0       0
;! ---------------------------------------------------------------------------------
;! (1) _PWM_DutyCycle2                                       4     2      2     222
;!                                             20 BANK1      4     2      2
;! ---------------------------------------------------------------------------------
;! (1) _PWM_DutyCycle1                                       4     2      2     108
;!                                             20 BANK1      4     2      2
;! ---------------------------------------------------------------------------------
;! (1) _LCD_WriteString                                      2     0      2     259
;!                                             22 BANK1      2     0      2
;!                      _LCD_WriteData
;! ---------------------------------------------------------------------------------
;! (2) _LCD_WriteData                                        2     2      0      22
;!                                             20 BANK1      2     2      0
;! ---------------------------------------------------------------------------------
;! (1) _LCD_Init                                             2     2      0      22
;!                                             22 BANK1      2     2      0
;!                       _LCD_WriteCmd
;! ---------------------------------------------------------------------------------
;! (1) _LCD_Cursor                                           3     2      1     322
;!                                             20 BANK1      3     2      1
;! ---------------------------------------------------------------------------------
;! (1) _LCD_Clear                                            2     2      0      22
;!                                             22 BANK1      2     2      0
;!                       _LCD_WriteCmd
;! ---------------------------------------------------------------------------------
;! (2) _LCD_WriteCmd                                         2     2      0      22
;!                                             20 BANK1      2     2      0
;! ---------------------------------------------------------------------------------
;! (1) _ADC_Init                                             0     0      0       0
;! ---------------------------------------------------------------------------------
;! Estimated maximum stack depth 2
;! ---------------------------------------------------------------------------------
;! (Depth) Function   	        Calls       Base Space   Used Autos Params    Refs
;! ---------------------------------------------------------------------------------
;! (3) _ISR                                                  4     4      0   49467
;!                                             63 BANK0      4     4      0
;!                              _Fuzzy
;!                  _USART_ReceiveChar
;!                  _USART_WriteString
;!                            ___lwdiv
;!                             ___wmul
;!                               _send
;!                   i1_PWM_DutyCycle2
;!                       i1_TIMER0_Set
;! ---------------------------------------------------------------------------------
;! (4) i1_TIMER0_Set                                         1     1      0      22
;!                                              0 COMMON     1     1      0
;! ---------------------------------------------------------------------------------
;! (4) _send                                                 5     5      0     529
;!                                              0 BANK0      5     5      0
;!                    _USART_WriteChar
;!                             ___wmul
;! ---------------------------------------------------------------------------------
;! (5) ___wmul                                               6     2      4     348
;!                                              8 COMMON     6     2      4
;!                            ___lwdiv (ARG)
;! ---------------------------------------------------------------------------------
;! (4) _USART_ReceiveChar                                    2     2      0     151
;!                                              3 COMMON     2     2      0
;!                  _USART_WriteString
;! ---------------------------------------------------------------------------------
;! (4) _USART_WriteString                                    2     2      0     127
;!                                              1 COMMON     2     2      0
;!                    _USART_WriteChar
;! ---------------------------------------------------------------------------------
;! (5) _USART_WriteChar                                      1     1      0      22
;!                                              0 COMMON     1     1      0
;! ---------------------------------------------------------------------------------
;! (4) _Fuzzy                                               25    25      0   47622
;!                                             61 BANK0      2     2      0
;!                                              0 BANK1     20    20      0
;!                           ___awtoft
;!                            ___ftadd
;!                            ___ftdiv
;!                             ___ftge
;!                            ___ftmul
;!                            ___fttol
;!                            ___lwdiv
;!                           ___lwtoft
;!                            _max_val
;!                             _trapmf
;!                              _trimf
;!                   i1_PWM_DutyCycle2
;! ---------------------------------------------------------------------------------
;! (4) i1_PWM_DutyCycle2                                     4     2      2     122
;!                                              0 COMMON     4     2      2
;! ---------------------------------------------------------------------------------
;! (5) _trimf                                               15     3     12   12060
;!                                             29 BANK0     15     3     12
;!                           ___awtoft (ARG)
;!                            ___ftadd
;!                            ___ftdiv
;!                             ___ftge
;!                            ___ftneg
;!                           ___lwtoft (ARG)
;! ---------------------------------------------------------------------------------
;! (5) _trapmf                                              18     3     15   12917
;!                                             29 BANK0     18     3     15
;!                           ___awtoft (ARG)
;!                            ___ftadd
;!                            ___ftdiv
;!                             ___ftge
;!                            ___ftneg
;!                           ___lwtoft (ARG)
;! ---------------------------------------------------------------------------------
;! (6) ___ftneg                                              3     0      3     557
;!                                              0 COMMON     3     0      3
;! ---------------------------------------------------------------------------------
;! (6) ___ftdiv                                             16    10      6    3007
;!                                             13 BANK0     16    10      6
;!                            ___ftadd (ARG)
;!                            ___ftneg (ARG)
;!                           ___ftpack
;! ---------------------------------------------------------------------------------
;! (6) ___ftadd                                             13     7      6    4949
;!                                              0 BANK0     13     7      6
;!                           ___awtoft (ARG)
;!                            ___ftneg (ARG)
;!                           ___ftpack
;! ---------------------------------------------------------------------------------
;! (5) _max_val                                              6     0      6    3040
;!                                             12 BANK0      6     0      6
;!                             ___ftge
;! ---------------------------------------------------------------------------------
;! (6) ___ftge                                              12     6      6    2568
;!                                              0 BANK0     12     6      6
;!                           ___awtoft (ARG)
;! ---------------------------------------------------------------------------------
;! (5) ___lwtoft                                             4     1      3    2301
;!                                              8 COMMON     4     1      3
;!                           ___ftpack
;! ---------------------------------------------------------------------------------
;! (4) ___lwdiv                                              8     4      4     546
;!                                              0 COMMON     8     4      4
;! ---------------------------------------------------------------------------------
;! (5) ___fttol                                             14    10      4     444
;!                                             47 BANK0     14    10      4
;!                           ___awtoft (ARG)
;!                             _trapmf (ARG)
;!                              _trimf (ARG)
;! ---------------------------------------------------------------------------------
;! (5) ___ftmul                                             16    10      6    2541
;!                                              8 COMMON     6     0      6
;!                                              0 BANK0     10    10      0
;!                           ___ftpack
;! ---------------------------------------------------------------------------------
;! (5) ___awtoft                                             6     3      3    2754
;!                                              8 COMMON     6     3      3
;!                           ___ftpack
;! ---------------------------------------------------------------------------------
;! (7) ___ftpack                                             8     3      5    2087
;!                                              0 COMMON     8     3      5
;! ---------------------------------------------------------------------------------
;! Estimated maximum stack depth 7
;! ---------------------------------------------------------------------------------
;!
;! Call Graph Graphs:
;!
;! _main (ROOT)
;!   _ADC_Init
;!   _LCD_Clear
;!     _LCD_WriteCmd
;!   _LCD_Cursor
;!   _LCD_Init
;!     _LCD_WriteCmd
;!   _LCD_WriteString
;!     _LCD_WriteData
;!   _PWM_DutyCycle1
;!   _PWM_DutyCycle2
;!   _PWM_Init
;!   _TIMER0_Init
;!   _TIMER0_Set
;!   _USART_Init
;!     ___aldiv
;!
;! _ISR (ROOT)
;!   _Fuzzy
;!     ___awtoft
;!       ___ftpack
;!     ___ftadd
;!       ___awtoft (ARG)
;!         ___ftpack
;!       ___ftneg (ARG)
;!       ___ftpack (ARG)
;!     ___ftdiv
;!       ___ftadd (ARG)
;!         ___awtoft (ARG)
;!           ___ftpack
;!         ___ftneg (ARG)
;!         ___ftpack (ARG)
;!       ___ftneg (ARG)
;!       ___ftpack (ARG)
;!     ___ftge
;!       ___awtoft (ARG)
;!         ___ftpack
;!     ___ftmul
;!       ___ftpack
;!     ___fttol
;!       ___awtoft (ARG)
;!         ___ftpack
;!       _trapmf (ARG)
;!         ___awtoft (ARG)
;!           ___ftpack
;!         ___ftadd (ARG)
;!           ___awtoft (ARG)
;!             ___ftpack
;!           ___ftneg (ARG)
;!           ___ftpack (ARG)
;!         ___ftdiv (ARG)
;!           ___ftadd (ARG)
;!             ___awtoft (ARG)
;!               ___ftpack
;!             ___ftneg (ARG)
;!             ___ftpack (ARG)
;!           ___ftneg (ARG)
;!           ___ftpack (ARG)
;!         ___ftge (ARG)
;!           ___awtoft (ARG)
;!             ___ftpack
;!         ___ftneg (ARG)
;!         ___lwtoft (ARG)
;!           ___ftpack
;!       _trimf (ARG)
;!         ___awtoft (ARG)
;!           ___ftpack
;!         ___ftadd (ARG)
;!           ___awtoft (ARG)
;!             ___ftpack
;!           ___ftneg (ARG)
;!           ___ftpack (ARG)
;!         ___ftdiv (ARG)
;!           ___ftadd (ARG)
;!             ___awtoft (ARG)
;!               ___ftpack
;!             ___ftneg (ARG)
;!             ___ftpack (ARG)
;!           ___ftneg (ARG)
;!           ___ftpack (ARG)
;!         ___ftge (ARG)
;!           ___awtoft (ARG)
;!             ___ftpack
;!         ___ftneg (ARG)
;!         ___lwtoft (ARG)
;!           ___ftpack
;!     ___lwdiv
;!     ___lwtoft
;!       ___ftpack
;!     _max_val
;!       ___ftge
;!         ___awtoft (ARG)
;!           ___ftpack
;!     _trapmf
;!       ___awtoft (ARG)
;!         ___ftpack
;!       ___ftadd (ARG)
;!         ___awtoft (ARG)
;!           ___ftpack
;!         ___ftneg (ARG)
;!         ___ftpack (ARG)
;!       ___ftdiv (ARG)
;!         ___ftadd (ARG)
;!           ___awtoft (ARG)
;!             ___ftpack
;!           ___ftneg (ARG)
;!           ___ftpack (ARG)
;!         ___ftneg (ARG)
;!         ___ftpack (ARG)
;!       ___ftge (ARG)
;!         ___awtoft (ARG)
;!           ___ftpack
;!       ___ftneg (ARG)
;!       ___lwtoft (ARG)
;!         ___ftpack
;!     _trimf
;!       ___awtoft (ARG)
;!         ___ftpack
;!       ___ftadd (ARG)
;!         ___awtoft (ARG)
;!           ___ftpack
;!         ___ftneg (ARG)
;!         ___ftpack (ARG)
;!       ___ftdiv (ARG)
;!         ___ftadd (ARG)
;!           ___awtoft (ARG)
;!             ___ftpack
;!           ___ftneg (ARG)
;!           ___ftpack (ARG)
;!         ___ftneg (ARG)
;!         ___ftpack (ARG)
;!       ___ftge (ARG)
;!         ___awtoft (ARG)
;!           ___ftpack
;!       ___ftneg (ARG)
;!       ___lwtoft (ARG)
;!         ___ftpack
;!     i1_PWM_DutyCycle2
;!   _USART_ReceiveChar
;!     _USART_WriteString
;!       _USART_WriteChar
;!   _USART_WriteString
;!     _USART_WriteChar
;!   ___lwdiv
;!   ___wmul
;!     ___lwdiv (ARG)
;!   _send
;!     _USART_WriteChar
;!     ___wmul
;!       ___lwdiv (ARG)
;!   i1_PWM_DutyCycle2
;!   i1_TIMER0_Set
;!

;! Address spaces:

;!Name               Size   Autos  Total    Cost      Usage
;!BANK3               60     13      33       9       53.1%
;!BITBANK3            60      0       0       8        0.0%
;!SFR3                 0      0       0       4        0.0%
;!BITSFR3              0      0       0       4        0.0%
;!BANK2               60      0       0      11        0.0%
;!BITBANK2            60      0       0      10        0.0%
;!SFR2                 0      0       0       5        0.0%
;!BITSFR2              0      0       0       5        0.0%
;!BANK1               50     1B      3C       7       75.0%
;!BITBANK1            50      0       0       6        0.0%
;!SFR1                 0      0       0       2        0.0%
;!BITSFR1              0      0       0       2        0.0%
;!BANK0               50     43      4F       5       98.8%
;!BITBANK0            50      0       0       4        0.0%
;!SFR0                 0      0       0       1        0.0%
;!BITSFR0              0      0       0       1        0.0%
;!COMMON               E      E       E       1      100.0%
;!BITCOMMON            E      0       0       0        0.0%
;!CODE                 0      0       0       0        0.0%
;!DATA                 0      0      CC      12        0.0%
;!ABS                  0      0      CC       3        0.0%
;!NULL                 0      0       0       0        0.0%
;!STACK                0      0       0       2        0.0%
;!EEDATA             100      0       0       0        0.0%

	global	_main

;; *************** function _main *****************
;; Defined at:
;;		line 522 in file "R:\Note\Sistema I\Ultimo C no MPLAB\main.c"
;; Parameters:    Size  Location     Type
;;		None
;; Auto vars:     Size  Location     Type
;;		None
;; Return value:  Size  Location     Type
;;		None               void
;; Registers used:
;;		wreg, fsr0l, fsr0h, status,2, status,0, btemp+1, pclath, cstack
;; Tracked objects:
;;		On entry : 17F/0
;;		On exit  : 0/0
;;		Unchanged: 0/0
;; Data sizes:     COMMON   BANK0   BANK1   BANK3   BANK2
;;      Params:         0       0       0       0       0
;;      Locals:         0       0       0       0       0
;;      Temps:          0       0       0       3       0
;;      Totals:         0       0       0       3       0
;;Total ram usage:        3 bytes
;; Hardware stack levels required when called:    7
;; This function calls:
;;		_ADC_Init
;;		_LCD_Clear
;;		_LCD_Cursor
;;		_LCD_Init
;;		_LCD_WriteString
;;		_PWM_DutyCycle1
;;		_PWM_DutyCycle2
;;		_PWM_Init
;;		_TIMER0_Init
;;		_TIMER0_Set
;;		_USART_Init
;; This function is called by:
;;		Startup code after reset
;; This function uses a non-reentrant model
;;
psect	maintext,global,class=CODE,delta=2,split=1
	file	"R:\Note\Sistema I\Ultimo C no MPLAB\main.c"
	line	522
global __pmaintext
__pmaintext:	;psect for function _main
psect	maintext
	file	"R:\Note\Sistema I\Ultimo C no MPLAB\main.c"
	line	522
	global	__size_of_main
	__size_of_main	equ	__end_of_main-_main
	
_main:	
;incstack = 0
	opt	stack 1
; Regs used in _main: [wreg-fsr0h+status,2+status,0+btemp+1+pclath+cstack]
	line	524
	
l3060:	
;main.c: 524: TRISA = 0b00000001;
	movlw	(01h)
	bsf	status, 5	;RP0=1, select bank1
	bcf	status, 6	;RP1=0, select bank1
	movwf	(133)^080h	;volatile
	line	525
;main.c: 525: PORTA = 0b00000001;
	movlw	(01h)
	bcf	status, 5	;RP0=0, select bank0
	bcf	status, 6	;RP1=0, select bank0
	movwf	(5)	;volatile
	line	526
	
l3062:	
;main.c: 526: TRISB = 0b00000000;
	bsf	status, 5	;RP0=1, select bank1
	bcf	status, 6	;RP1=0, select bank1
	clrf	(134)^080h	;volatile
	line	527
	
l3064:	
;main.c: 527: PORTB = 0b00000000;
	bcf	status, 5	;RP0=0, select bank0
	bcf	status, 6	;RP1=0, select bank0
	clrf	(6)	;volatile
	line	528
;main.c: 528: TRISC = 0b10000001;
	movlw	(081h)
	bsf	status, 5	;RP0=1, select bank1
	bcf	status, 6	;RP1=0, select bank1
	movwf	(135)^080h	;volatile
	line	529
;main.c: 529: PORTC = 0b11000000;
	movlw	(0C0h)
	bcf	status, 5	;RP0=0, select bank0
	bcf	status, 6	;RP1=0, select bank0
	movwf	(7)	;volatile
	line	530
	
l3066:	
;main.c: 530: TRISD = 0b00000000;
	bsf	status, 5	;RP0=1, select bank1
	bcf	status, 6	;RP1=0, select bank1
	clrf	(136)^080h	;volatile
	line	531
	
l3068:	
;main.c: 531: PORTD = 0b00000000;
	bcf	status, 5	;RP0=0, select bank0
	bcf	status, 6	;RP1=0, select bank0
	clrf	(8)	;volatile
	line	532
	
l3070:	
;main.c: 532: TRISE = 0b00000000;
	bsf	status, 5	;RP0=1, select bank1
	bcf	status, 6	;RP1=0, select bank1
	clrf	(137)^080h	;volatile
	line	533
	
l3072:	
;main.c: 533: PORTE = 0b00000000;
	bcf	status, 5	;RP0=0, select bank0
	bcf	status, 6	;RP1=0, select bank0
	clrf	(9)	;volatile
	line	536
;main.c: 536: T1CON = 0x03;
	movlw	(03h)
	movwf	(16)	;volatile
	line	537
	
l3074:	
;main.c: 537: TMR1L = 0x00;
	clrf	(14)	;volatile
	line	538
	
l3076:	
;main.c: 538: TMR1H = 0x00;
	clrf	(15)	;volatile
	line	541
	
l3078:	
;main.c: 541: USART_Init(115200);
	movlw	0
	bsf	status, 5	;RP0=1, select bank3
	bsf	status, 6	;RP1=1, select bank3
	movwf	(USART_Init@BaudRate+3)^0180h
	movlw	01h
	movwf	(USART_Init@BaudRate+2)^0180h
	movlw	0C2h
	movwf	(USART_Init@BaudRate+1)^0180h
	movlw	0
	movwf	(USART_Init@BaudRate)^0180h

	fcall	_USART_Init
	line	542
;main.c: 542: TIMER0_Init();
	fcall	_TIMER0_Init
	line	543
;main.c: 543: ADC_Init();
	fcall	_ADC_Init
	line	544
	
l3080:	
;main.c: 544: PWM_Init();
	fcall	_PWM_Init
	line	545
	
l3082:	
;main.c: 545: LCD_Init();
	fcall	_LCD_Init
	line	548
	
l3084:	
;main.c: 548: INTCONbits.PEIE = 1;
	bsf	(11),6	;volatile
	line	549
	
l3086:	
;main.c: 549: INTCONbits.GIE = 1;
	bsf	(11),7	;volatile
	line	556
	
l3088:	
;main.c: 556: LCD_Init();
	fcall	_LCD_Init
	line	557
	
l3090:	
;main.c: 557: LCD_Cursor(0,0);
	bsf	status, 5	;RP0=1, select bank1
	bcf	status, 6	;RP1=0, select bank1
	clrf	(LCD_Cursor@Col)^080h
	movlw	(0)
	fcall	_LCD_Cursor
	line	558
	
l3092:	
;main.c: 558: LCD_WriteString("Inicializando...");
	movlw	low((STR_2)-__stringbase)
	bsf	status, 5	;RP0=1, select bank1
	bcf	status, 6	;RP1=0, select bank1
	movwf	(LCD_WriteString@Str)^080h
	movlw	80h
	movwf	(LCD_WriteString@Str+1)^080h
	fcall	_LCD_WriteString
	line	561
	
l3094:	
;main.c: 561: PWM_DutyCycle1(0);
	movlw	low(0)
	bsf	status, 5	;RP0=1, select bank1
	bcf	status, 6	;RP1=0, select bank1
	movwf	(PWM_DutyCycle1@valor)^080h
	movlw	high(0)
	movwf	((PWM_DutyCycle1@valor)^080h)+1
	fcall	_PWM_DutyCycle1
	line	562
	
l3096:	
;main.c: 562: PWM_DutyCycle2(0);
	movlw	low(0)
	bsf	status, 5	;RP0=1, select bank1
	bcf	status, 6	;RP1=0, select bank1
	movwf	(PWM_DutyCycle2@valor)^080h
	movlw	high(0)
	movwf	((PWM_DutyCycle2@valor)^080h)+1
	fcall	_PWM_DutyCycle2
	line	565
	
l3098:	
;main.c: 565: TIMER0_Set(238);
	movlw	(0EEh)
	fcall	_TIMER0_Set
	line	568
	
l3100:	
;main.c: 568: _delay((unsigned long)((1000)*(18432000/4000.0)));
	opt asmopt_off
movlw  24
	bsf	status, 5	;RP0=1, select bank3
	bsf	status, 6	;RP1=1, select bank3
movwf	((??_main+0)^0180h+0+2),f
movlw	97
movwf	((??_main+0)^0180h+0+1),f
	movlw	110
movwf	((??_main+0)^0180h+0),f
u3497:
	decfsz	((??_main+0)^0180h+0),f
	goto	u3497
	decfsz	((??_main+0)^0180h+0+1),f
	goto	u3497
	decfsz	((??_main+0)^0180h+0+2),f
	goto	u3497
	nop
opt asmopt_on

	goto	l3102
	line	571
;main.c: 571: while(1)
	
l200:	
	line	578
	
l3102:	
;main.c: 572: {
;main.c: 578: LCD_Clear();
	fcall	_LCD_Clear
	line	579
	
l3104:	
;main.c: 579: LCD_Cursor(0,0);
	bsf	status, 5	;RP0=1, select bank1
	bcf	status, 6	;RP1=0, select bank1
	clrf	(LCD_Cursor@Col)^080h
	movlw	(0)
	fcall	_LCD_Cursor
	line	580
;main.c: 580: LCD_WriteString("kmH: ");
	movlw	low((STR_3)-__stringbase)
	bsf	status, 5	;RP0=1, select bank1
	bcf	status, 6	;RP1=0, select bank1
	movwf	(LCD_WriteString@Str)^080h
	movlw	80h
	movwf	(LCD_WriteString@Str+1)^080h
	fcall	_LCD_WriteString
	line	581
	
l3106:	
;main.c: 581: LCD_Cursor(0,6);
	movlw	(06h)
	bsf	status, 5	;RP0=1, select bank3
	bsf	status, 6	;RP1=1, select bank3
	movwf	(??_main+0)^0180h+0
	movf	(??_main+0)^0180h+0,w
	bsf	status, 5	;RP0=1, select bank1
	bcf	status, 6	;RP1=0, select bank1
	movwf	(LCD_Cursor@Col)^080h
	movlw	(0)
	fcall	_LCD_Cursor
	line	582
	
l3108:	
;main.c: 582: LCD_WriteString(display_rpm);
	movlw	(_display_rpm&0ffh)
	bsf	status, 5	;RP0=1, select bank1
	bcf	status, 6	;RP1=0, select bank1
	movwf	(LCD_WriteString@Str)^080h
	movlw	(0x1)
	movwf	(LCD_WriteString@Str+1)^080h
	fcall	_LCD_WriteString
	line	583
;main.c: 583: LCD_Cursor(1,0);
	bsf	status, 5	;RP0=1, select bank1
	bcf	status, 6	;RP1=0, select bank1
	clrf	(LCD_Cursor@Col)^080h
	movlw	(01h)
	fcall	_LCD_Cursor
	line	588
	
l3110:	
;main.c: 588: _delay((unsigned long)((200)*(18432000/4000.0)));
	opt asmopt_off
movlw  5
	bsf	status, 5	;RP0=1, select bank3
	bsf	status, 6	;RP1=1, select bank3
movwf	((??_main+0)^0180h+0+2),f
movlw	173
movwf	((??_main+0)^0180h+0+1),f
	movlw	224
movwf	((??_main+0)^0180h+0),f
u3507:
	decfsz	((??_main+0)^0180h+0),f
	goto	u3507
	decfsz	((??_main+0)^0180h+0+1),f
	goto	u3507
	decfsz	((??_main+0)^0180h+0+2),f
	goto	u3507
opt asmopt_on

	goto	l3102
	line	589
	
l201:	
	line	571
	goto	l3102
	
l202:	
	line	590
	
l203:	
	global	start
	ljmp	start
	opt stack 0
GLOBAL	__end_of_main
	__end_of_main:
	signat	_main,88
	global	_USART_Init

;; *************** function _USART_Init *****************
;; Defined at:
;;		line 6 in file "R:\Note\Sistema I\Ultimo C no MPLAB\usart.c"
;; Parameters:    Size  Location     Type
;;  BaudRate        4    8[BANK3 ] long 
;; Auto vars:     Size  Location     Type
;;		None
;; Return value:  Size  Location     Type
;;		None               void
;; Registers used:
;;		wreg, status,2, status,0, pclath, cstack
;; Tracked objects:
;;		On entry : 0/0
;;		On exit  : 0/0
;;		Unchanged: 0/0
;; Data sizes:     COMMON   BANK0   BANK1   BANK3   BANK2
;;      Params:         0       0       0       4       0
;;      Locals:         0       0       0       0       0
;;      Temps:          0       0       0       4       0
;;      Totals:         0       0       0       8       0
;;Total ram usage:        8 bytes
;; Hardware stack levels used:    1
;; Hardware stack levels required when called:    6
;; This function calls:
;;		___aldiv
;; This function is called by:
;;		_main
;; This function uses a non-reentrant model
;;
psect	text1,local,class=CODE,delta=2,merge=1
	file	"R:\Note\Sistema I\Ultimo C no MPLAB\usart.c"
	line	6
global __ptext1
__ptext1:	;psect for function _USART_Init
psect	text1
	file	"R:\Note\Sistema I\Ultimo C no MPLAB\usart.c"
	line	6
	global	__size_of_USART_Init
	__size_of_USART_Init	equ	__end_of_USART_Init-_USART_Init
	
_USART_Init:	
;incstack = 0
	opt	stack 1
; Regs used in _USART_Init: [wreg+status,2+status,0+pclath+cstack]
	line	13
	
l3020:	
;usart.c: 13: SPBRG = (unsigned char)(18432000 / (16 * BaudRate)) - 1;
	bsf	status, 5	;RP0=1, select bank3
	bsf	status, 6	;RP1=1, select bank3
	movf	(USART_Init@BaudRate)^0180h,w
	movwf	(??_USART_Init+0)^0180h+0
	movf	(USART_Init@BaudRate+1)^0180h,w
	movwf	((??_USART_Init+0)^0180h+0+1)
	movf	(USART_Init@BaudRate+2)^0180h,w
	movwf	((??_USART_Init+0)^0180h+0+2)
	movf	(USART_Init@BaudRate+3)^0180h,w
	movwf	((??_USART_Init+0)^0180h+0+3)
	movlw	04h
u3485:
	clrc
	rlf	(??_USART_Init+0)^0180h+0,f
	rlf	(??_USART_Init+0)^0180h+1,f
	rlf	(??_USART_Init+0)^0180h+2,f
	rlf	(??_USART_Init+0)^0180h+3,f
u3480:
	addlw	-1
	skipz
	goto	u3485
	movf	3+(??_USART_Init+0)^0180h+0,w
	movwf	(___aldiv@divisor+3)^0180h
	movf	2+(??_USART_Init+0)^0180h+0,w
	movwf	(___aldiv@divisor+2)^0180h
	movf	1+(??_USART_Init+0)^0180h+0,w
	movwf	(___aldiv@divisor+1)^0180h
	movf	0+(??_USART_Init+0)^0180h+0,w
	movwf	(___aldiv@divisor)^0180h

	movlw	01h
	movwf	(___aldiv@dividend+3)^0180h
	movlw	019h
	movwf	(___aldiv@dividend+2)^0180h
	movlw	040h
	movwf	(___aldiv@dividend+1)^0180h
	movlw	0
	movwf	(___aldiv@dividend)^0180h

	fcall	___aldiv
	bsf	status, 5	;RP0=1, select bank3
	bsf	status, 6	;RP1=1, select bank3
	movf	0+(((0+(?___aldiv))^0180h)),w
	addlw	0FFh
	bsf	status, 5	;RP0=1, select bank1
	bcf	status, 6	;RP1=0, select bank1
	movwf	(153)^080h	;volatile
	line	16
	
l3022:	
;usart.c: 16: TXSTAbits.CSRC = 0;
	bcf	(152)^080h,7	;volatile
	line	17
	
l3024:	
;usart.c: 17: TXSTAbits.TX9 = 0;
	bcf	(152)^080h,6	;volatile
	line	18
	
l3026:	
;usart.c: 18: TXSTAbits.TXEN = 1;
	bsf	(152)^080h,5	;volatile
	line	19
	
l3028:	
;usart.c: 19: TXSTAbits.SYNC = 0;
	bcf	(152)^080h,4	;volatile
	line	21
	
l3030:	
;usart.c: 21: TXSTAbits.BRGH = 1;
	bsf	(152)^080h,2	;volatile
	line	22
	
l3032:	
;usart.c: 22: TXSTAbits.TRMT = 1;
	bsf	(152)^080h,1	;volatile
	line	23
	
l3034:	
;usart.c: 23: TXSTAbits.TX9D = 0;
	bcf	(152)^080h,0	;volatile
	line	26
	
l3036:	
;usart.c: 26: RCSTAbits.SPEN = 1;
	bcf	status, 5	;RP0=0, select bank0
	bcf	status, 6	;RP1=0, select bank0
	bsf	(24),7	;volatile
	line	27
	
l3038:	
;usart.c: 27: RCSTAbits.RX9 = 0;
	bcf	(24),6	;volatile
	line	28
	
l3040:	
;usart.c: 28: RCSTAbits.SREN = 0;
	bcf	(24),5	;volatile
	line	29
	
l3042:	
;usart.c: 29: RCSTAbits.CREN = 1;
	bsf	(24),4	;volatile
	line	30
	
l3044:	
;usart.c: 30: RCSTAbits.ADDEN = 0;
	bcf	(24),3	;volatile
	line	31
	
l3046:	
;usart.c: 31: RCSTAbits.FERR = 0;
	bcf	(24),2	;volatile
	line	32
	
l3048:	
;usart.c: 32: RCSTAbits.OERR = 0;
	bcf	(24),1	;volatile
	line	33
	
l3050:	
;usart.c: 33: RCSTAbits.RX9D = 0;
	bcf	(24),0	;volatile
	line	36
	
l3052:	
;usart.c: 36: PIE1bits.TXIE = 0;
	bsf	status, 5	;RP0=1, select bank1
	bcf	status, 6	;RP1=0, select bank1
	bcf	(140)^080h,4	;volatile
	line	37
	
l3054:	
;usart.c: 37: PIR1bits.TXIF = 0;
	bcf	status, 5	;RP0=0, select bank0
	bcf	status, 6	;RP1=0, select bank0
	bcf	(12),4	;volatile
	line	38
	
l3056:	
;usart.c: 38: PIE1bits.RCIE = 1;
	bsf	status, 5	;RP0=1, select bank1
	bcf	status, 6	;RP1=0, select bank1
	bsf	(140)^080h,5	;volatile
	line	39
	
l3058:	
;usart.c: 39: PIR1bits.RCIF = 0;
	bcf	status, 5	;RP0=0, select bank0
	bcf	status, 6	;RP1=0, select bank0
	bcf	(12),5	;volatile
	line	40
	
l222:	
	return
	opt stack 0
GLOBAL	__end_of_USART_Init
	__end_of_USART_Init:
	signat	_USART_Init,4216
	global	___aldiv

;; *************** function ___aldiv *****************
;; Defined at:
;;		line 6 in file "C:\Program Files (x86)\Microchip\xc8\v1.33\sources\common\aldiv.c"
;; Parameters:    Size  Location     Type
;;  divisor         4    0[BANK3 ] long 
;;  dividend        4    4[BANK3 ] long 
;; Auto vars:     Size  Location     Type
;;  quotient        4   23[BANK1 ] long 
;;  sign            1   22[BANK1 ] unsigned char 
;;  counter         1   21[BANK1 ] unsigned char 
;; Return value:  Size  Location     Type
;;                  4    0[BANK3 ] long 
;; Registers used:
;;		wreg, status,2, status,0
;; Tracked objects:
;;		On entry : 0/0
;;		On exit  : 0/0
;;		Unchanged: 0/0
;; Data sizes:     COMMON   BANK0   BANK1   BANK3   BANK2
;;      Params:         0       0       0       8       0
;;      Locals:         0       0       6       0       0
;;      Temps:          0       0       1       0       0
;;      Totals:         0       0       7       8       0
;;Total ram usage:       15 bytes
;; Hardware stack levels used:    1
;; Hardware stack levels required when called:    5
;; This function calls:
;;		Nothing
;; This function is called by:
;;		_USART_Init
;; This function uses a non-reentrant model
;;
psect	text2,local,class=CODE,delta=2,merge=1
	file	"C:\Program Files (x86)\Microchip\xc8\v1.33\sources\common\aldiv.c"
	line	6
global __ptext2
__ptext2:	;psect for function ___aldiv
psect	text2
	file	"C:\Program Files (x86)\Microchip\xc8\v1.33\sources\common\aldiv.c"
	line	6
	global	__size_of___aldiv
	__size_of___aldiv	equ	__end_of___aldiv-___aldiv
	
___aldiv:	
;incstack = 0
	opt	stack 1
; Regs used in ___aldiv: [wreg+status,2+status,0]
	line	14
	
l2980:	
	bsf	status, 5	;RP0=1, select bank1
	bcf	status, 6	;RP1=0, select bank1
	clrf	(___aldiv@sign)^080h
	line	15
	
l2982:	
	bsf	status, 5	;RP0=1, select bank3
	bsf	status, 6	;RP1=1, select bank3
	btfss	(___aldiv@divisor+3)^0180h,7
	goto	u3381
	goto	u3380
u3381:
	goto	l600
u3380:
	line	16
	
l2984:	
	comf	(___aldiv@divisor)^0180h,f
	comf	(___aldiv@divisor+1)^0180h,f
	comf	(___aldiv@divisor+2)^0180h,f
	comf	(___aldiv@divisor+3)^0180h,f
	incf	(___aldiv@divisor)^0180h,f
	skipnz
	incf	(___aldiv@divisor+1)^0180h,f
	skipnz
	incf	(___aldiv@divisor+2)^0180h,f
	skipnz
	incf	(___aldiv@divisor+3)^0180h,f
	line	17
	bsf	status, 5	;RP0=1, select bank1
	bcf	status, 6	;RP1=0, select bank1
	clrf	(___aldiv@sign)^080h
	incf	(___aldiv@sign)^080h,f
	line	18
	
l600:	
	line	19
	bsf	status, 5	;RP0=1, select bank3
	bsf	status, 6	;RP1=1, select bank3
	btfss	(___aldiv@dividend+3)^0180h,7
	goto	u3391
	goto	u3390
u3391:
	goto	l2990
u3390:
	line	20
	
l2986:	
	comf	(___aldiv@dividend)^0180h,f
	comf	(___aldiv@dividend+1)^0180h,f
	comf	(___aldiv@dividend+2)^0180h,f
	comf	(___aldiv@dividend+3)^0180h,f
	incf	(___aldiv@dividend)^0180h,f
	skipnz
	incf	(___aldiv@dividend+1)^0180h,f
	skipnz
	incf	(___aldiv@dividend+2)^0180h,f
	skipnz
	incf	(___aldiv@dividend+3)^0180h,f
	line	21
	
l2988:	
	movlw	(01h)
	bsf	status, 5	;RP0=1, select bank1
	bcf	status, 6	;RP1=0, select bank1
	movwf	(??___aldiv+0)^080h+0
	movf	(??___aldiv+0)^080h+0,w
	xorwf	(___aldiv@sign)^080h,f
	goto	l2990
	line	22
	
l601:	
	line	23
	
l2990:	
	movlw	0
	bcf	status, 6	;RP1=0, select bank1
	movwf	(___aldiv@quotient+3)^080h
	movlw	0
	movwf	(___aldiv@quotient+2)^080h
	movlw	0
	movwf	(___aldiv@quotient+1)^080h
	movlw	0
	movwf	(___aldiv@quotient)^080h

	line	24
	
l2992:	
	bsf	status, 5	;RP0=1, select bank3
	bsf	status, 6	;RP1=1, select bank3
	movf	(___aldiv@divisor+3)^0180h,w
	iorwf	(___aldiv@divisor+2)^0180h,w
	iorwf	(___aldiv@divisor+1)^0180h,w
	iorwf	(___aldiv@divisor)^0180h,w
	skipnz
	goto	u3401
	goto	u3400
u3401:
	goto	l3012
u3400:
	line	25
	
l2994:	
	bsf	status, 5	;RP0=1, select bank1
	bcf	status, 6	;RP1=0, select bank1
	clrf	(___aldiv@counter)^080h
	incf	(___aldiv@counter)^080h,f
	line	26
	goto	l2998
	
l604:	
	line	27
	
l2996:	
	movlw	01h
	bcf	status, 6	;RP1=0, select bank1
	movwf	(??___aldiv+0)^080h+0
u3415:
	clrc
	bsf	status, 5	;RP0=1, select bank3
	bsf	status, 6	;RP1=1, select bank3
	rlf	(___aldiv@divisor)^0180h,f
	rlf	(___aldiv@divisor+1)^0180h,f
	rlf	(___aldiv@divisor+2)^0180h,f
	rlf	(___aldiv@divisor+3)^0180h,f
	bsf	status, 5	;RP0=1, select bank1
	bcf	status, 6	;RP1=0, select bank1
	decfsz	(??___aldiv+0)^080h+0
	goto	u3415
	line	28
	movlw	(01h)
	movwf	(??___aldiv+0)^080h+0
	movf	(??___aldiv+0)^080h+0,w
	addwf	(___aldiv@counter)^080h,f
	goto	l2998
	line	29
	
l603:	
	line	26
	
l2998:	
	bsf	status, 5	;RP0=1, select bank3
	bsf	status, 6	;RP1=1, select bank3
	btfss	(___aldiv@divisor+3)^0180h,(31)&7
	goto	u3421
	goto	u3420
u3421:
	goto	l2996
u3420:
	goto	l3000
	
l605:	
	goto	l3000
	line	30
	
l606:	
	line	31
	
l3000:	
	movlw	01h
	bcf	status, 6	;RP1=0, select bank1
	movwf	(??___aldiv+0)^080h+0
u3435:
	clrc
	rlf	(___aldiv@quotient)^080h,f
	rlf	(___aldiv@quotient+1)^080h,f
	rlf	(___aldiv@quotient+2)^080h,f
	rlf	(___aldiv@quotient+3)^080h,f
	decfsz	(??___aldiv+0)^080h+0
	goto	u3435
	line	32
	
l3002:	
	bsf	status, 5	;RP0=1, select bank3
	bsf	status, 6	;RP1=1, select bank3
	movf	(___aldiv@divisor+3)^0180h,w
	subwf	(___aldiv@dividend+3)^0180h,w
	skipz
	goto	u3445
	movf	(___aldiv@divisor+2)^0180h,w
	subwf	(___aldiv@dividend+2)^0180h,w
	skipz
	goto	u3445
	movf	(___aldiv@divisor+1)^0180h,w
	subwf	(___aldiv@dividend+1)^0180h,w
	skipz
	goto	u3445
	movf	(___aldiv@divisor)^0180h,w
	subwf	(___aldiv@dividend)^0180h,w
u3445:
	skipc
	goto	u3441
	goto	u3440
u3441:
	goto	l3008
u3440:
	line	33
	
l3004:	
	movf	(___aldiv@divisor)^0180h,w
	subwf	(___aldiv@dividend)^0180h,f
	movf	(___aldiv@divisor+1)^0180h,w
	skipc
	incfsz	(___aldiv@divisor+1)^0180h,w
	subwf	(___aldiv@dividend+1)^0180h,f
	movf	(___aldiv@divisor+2)^0180h,w
	skipc
	incfsz	(___aldiv@divisor+2)^0180h,w
	subwf	(___aldiv@dividend+2)^0180h,f
	movf	(___aldiv@divisor+3)^0180h,w
	skipc
	incfsz	(___aldiv@divisor+3)^0180h,w
	subwf	(___aldiv@dividend+3)^0180h,f
	line	34
	
l3006:	
	bsf	status, 5	;RP0=1, select bank1
	bcf	status, 6	;RP1=0, select bank1
	bsf	(___aldiv@quotient)^080h+(0/8),(0)&7
	goto	l3008
	line	35
	
l607:	
	line	36
	
l3008:	
	movlw	01h
u3455:
	clrc
	bsf	status, 5	;RP0=1, select bank3
	bsf	status, 6	;RP1=1, select bank3
	rrf	(___aldiv@divisor+3)^0180h,f
	rrf	(___aldiv@divisor+2)^0180h,f
	rrf	(___aldiv@divisor+1)^0180h,f
	rrf	(___aldiv@divisor)^0180h,f
	addlw	-1
	skipz
	goto	u3455

	line	37
	
l3010:	
	movlw	low(01h)
	bsf	status, 5	;RP0=1, select bank1
	bcf	status, 6	;RP1=0, select bank1
	subwf	(___aldiv@counter)^080h,f
	btfss	status,2
	goto	u3461
	goto	u3460
u3461:
	goto	l3000
u3460:
	goto	l3012
	
l608:	
	goto	l3012
	line	38
	
l602:	
	line	39
	
l3012:	
	bcf	status, 6	;RP1=0, select bank1
	movf	(___aldiv@sign)^080h,w
	skipz
	goto	u3470
	goto	l3016
u3470:
	line	40
	
l3014:	
	comf	(___aldiv@quotient)^080h,f
	comf	(___aldiv@quotient+1)^080h,f
	comf	(___aldiv@quotient+2)^080h,f
	comf	(___aldiv@quotient+3)^080h,f
	incf	(___aldiv@quotient)^080h,f
	skipnz
	incf	(___aldiv@quotient+1)^080h,f
	skipnz
	incf	(___aldiv@quotient+2)^080h,f
	skipnz
	incf	(___aldiv@quotient+3)^080h,f
	goto	l3016
	
l609:	
	line	41
	
l3016:	
	movf	(___aldiv@quotient+3)^080h,w
	bsf	status, 5	;RP0=1, select bank3
	bsf	status, 6	;RP1=1, select bank3
	movwf	(?___aldiv+3)^0180h
	bsf	status, 5	;RP0=1, select bank1
	bcf	status, 6	;RP1=0, select bank1
	movf	(___aldiv@quotient+2)^080h,w
	bsf	status, 5	;RP0=1, select bank3
	bsf	status, 6	;RP1=1, select bank3
	movwf	(?___aldiv+2)^0180h
	bsf	status, 5	;RP0=1, select bank1
	bcf	status, 6	;RP1=0, select bank1
	movf	(___aldiv@quotient+1)^080h,w
	bsf	status, 5	;RP0=1, select bank3
	bsf	status, 6	;RP1=1, select bank3
	movwf	(?___aldiv+1)^0180h
	bsf	status, 5	;RP0=1, select bank1
	bcf	status, 6	;RP1=0, select bank1
	movf	(___aldiv@quotient)^080h,w
	bsf	status, 5	;RP0=1, select bank3
	bsf	status, 6	;RP1=1, select bank3
	movwf	(?___aldiv)^0180h

	goto	l610
	
l3018:	
	line	42
	
l610:	
	return
	opt stack 0
GLOBAL	__end_of___aldiv
	__end_of___aldiv:
	signat	___aldiv,8316
	global	_TIMER0_Set

;; *************** function _TIMER0_Set *****************
;; Defined at:
;;		line 20 in file "R:\Note\Sistema I\Ultimo C no MPLAB\timers.c"
;; Parameters:    Size  Location     Type
;;  contagens       1    wreg     unsigned char 
;; Auto vars:     Size  Location     Type
;;  contagens       1   20[BANK1 ] unsigned char 
;; Return value:  Size  Location     Type
;;		None               void
;; Registers used:
;;		wreg
;; Tracked objects:
;;		On entry : 0/0
;;		On exit  : 0/0
;;		Unchanged: 0/0
;; Data sizes:     COMMON   BANK0   BANK1   BANK3   BANK2
;;      Params:         0       0       0       0       0
;;      Locals:         0       0       1       0       0
;;      Temps:          0       0       0       0       0
;;      Totals:         0       0       1       0       0
;;Total ram usage:        1 bytes
;; Hardware stack levels used:    1
;; Hardware stack levels required when called:    5
;; This function calls:
;;		Nothing
;; This function is called by:
;;		_main
;; This function uses a non-reentrant model
;;
psect	text3,local,class=CODE,delta=2,merge=1
	file	"R:\Note\Sistema I\Ultimo C no MPLAB\timers.c"
	line	20
global __ptext3
__ptext3:	;psect for function _TIMER0_Set
psect	text3
	file	"R:\Note\Sistema I\Ultimo C no MPLAB\timers.c"
	line	20
	global	__size_of_TIMER0_Set
	__size_of_TIMER0_Set	equ	__end_of_TIMER0_Set-_TIMER0_Set
	
_TIMER0_Set:	
;incstack = 0
	opt	stack 2
; Regs used in _TIMER0_Set: [wreg]
;TIMER0_Set@contagens stored from wreg
	bsf	status, 5	;RP0=1, select bank1
	bcf	status, 6	;RP1=0, select bank1
	movwf	(TIMER0_Set@contagens)^080h
	line	22
	
l2696:	
;timers.c: 22: TMR0 = contagens;
	movf	(TIMER0_Set@contagens)^080h,w
	bcf	status, 5	;RP0=0, select bank0
	bcf	status, 6	;RP1=0, select bank0
	movwf	(1)	;volatile
	line	23
	
l282:	
	return
	opt stack 0
GLOBAL	__end_of_TIMER0_Set
	__end_of_TIMER0_Set:
	signat	_TIMER0_Set,4216
	global	_TIMER0_Init

;; *************** function _TIMER0_Init *****************
;; Defined at:
;;		line 6 in file "R:\Note\Sistema I\Ultimo C no MPLAB\timers.c"
;; Parameters:    Size  Location     Type
;;		None
;; Auto vars:     Size  Location     Type
;;		None
;; Return value:  Size  Location     Type
;;		None               void
;; Registers used:
;;		None
;; Tracked objects:
;;		On entry : 0/0
;;		On exit  : 0/0
;;		Unchanged: 0/0
;; Data sizes:     COMMON   BANK0   BANK1   BANK3   BANK2
;;      Params:         0       0       0       0       0
;;      Locals:         0       0       0       0       0
;;      Temps:          0       0       0       0       0
;;      Totals:         0       0       0       0       0
;;Total ram usage:        0 bytes
;; Hardware stack levels used:    1
;; Hardware stack levels required when called:    5
;; This function calls:
;;		Nothing
;; This function is called by:
;;		_main
;; This function uses a non-reentrant model
;;
psect	text4,local,class=CODE,delta=2,merge=1
	line	6
global __ptext4
__ptext4:	;psect for function _TIMER0_Init
psect	text4
	file	"R:\Note\Sistema I\Ultimo C no MPLAB\timers.c"
	line	6
	global	__size_of_TIMER0_Init
	__size_of_TIMER0_Init	equ	__end_of_TIMER0_Init-_TIMER0_Init
	
_TIMER0_Init:	
;incstack = 0
	opt	stack 2
; Regs used in _TIMER0_Init: []
	line	8
	
l2738:	
;timers.c: 8: OPTION_REGbits.T0CS = 0;
	bsf	status, 5	;RP0=1, select bank1
	bcf	status, 6	;RP1=0, select bank1
	bcf	(129)^080h,5	;volatile
	line	9
;timers.c: 9: OPTION_REGbits.T0SE = 0;
	bcf	(129)^080h,4	;volatile
	line	10
;timers.c: 10: OPTION_REGbits.PSA = 0;
	bcf	(129)^080h,3	;volatile
	line	11
;timers.c: 11: OPTION_REGbits.PS2 = 1;
	bsf	(129)^080h,2	;volatile
	line	12
;timers.c: 12: OPTION_REGbits.PS1 = 1;
	bsf	(129)^080h,1	;volatile
	line	13
;timers.c: 13: OPTION_REGbits.PS0 = 1;
	bsf	(129)^080h,0	;volatile
	line	14
;timers.c: 14: INTCONbits.TMR0IF = 0;
	bcf	(11),2	;volatile
	line	15
;timers.c: 15: INTCONbits.TMR0IE = 1;
	bsf	(11),5	;volatile
	line	16
	
l279:	
	return
	opt stack 0
GLOBAL	__end_of_TIMER0_Init
	__end_of_TIMER0_Init:
	signat	_TIMER0_Init,88
	global	_PWM_Init

;; *************** function _PWM_Init *****************
;; Defined at:
;;		line 5 in file "R:\Note\Sistema I\Ultimo C no MPLAB\pwm.c"
;; Parameters:    Size  Location     Type
;;		None
;; Auto vars:     Size  Location     Type
;;		None
;; Return value:  Size  Location     Type
;;		None               void
;; Registers used:
;;		wreg
;; Tracked objects:
;;		On entry : 0/0
;;		On exit  : 0/0
;;		Unchanged: 0/0
;; Data sizes:     COMMON   BANK0   BANK1   BANK3   BANK2
;;      Params:         0       0       0       0       0
;;      Locals:         0       0       0       0       0
;;      Temps:          0       0       0       0       0
;;      Totals:         0       0       0       0       0
;;Total ram usage:        0 bytes
;; Hardware stack levels used:    1
;; Hardware stack levels required when called:    5
;; This function calls:
;;		Nothing
;; This function is called by:
;;		_main
;; This function uses a non-reentrant model
;;
psect	text5,local,class=CODE,delta=2,merge=1
	file	"R:\Note\Sistema I\Ultimo C no MPLAB\pwm.c"
	line	5
global __ptext5
__ptext5:	;psect for function _PWM_Init
psect	text5
	file	"R:\Note\Sistema I\Ultimo C no MPLAB\pwm.c"
	line	5
	global	__size_of_PWM_Init
	__size_of_PWM_Init	equ	__end_of_PWM_Init-_PWM_Init
	
_PWM_Init:	
;incstack = 0
	opt	stack 2
; Regs used in _PWM_Init: [wreg]
	line	14
	
l2742:	
;pwm.c: 14: T2CONbits.T2CKPS1 = 1;
	bcf	status, 5	;RP0=0, select bank0
	bcf	status, 6	;RP1=0, select bank0
	bsf	(18),1	;volatile
	line	15
;pwm.c: 15: T2CONbits.T2CKPS0 = 0;
	bcf	(18),0	;volatile
	line	18
;pwm.c: 18: T2CONbits.TOUTPS3 = 0;
	bcf	(18),6	;volatile
	line	19
;pwm.c: 19: T2CONbits.TOUTPS2 = 0;
	bcf	(18),5	;volatile
	line	20
;pwm.c: 20: T2CONbits.TOUTPS1 = 0;
	bcf	(18),4	;volatile
	line	21
;pwm.c: 21: T2CONbits.TOUTPS0 = 0;
	bcf	(18),3	;volatile
	line	24
;pwm.c: 24: T2CONbits.TMR2ON = 1;
	bsf	(18),2	;volatile
	line	27
	
l2744:	
;pwm.c: 27: PR2 = 255;
	movlw	(0FFh)
	bsf	status, 5	;RP0=1, select bank1
	bcf	status, 6	;RP1=0, select bank1
	movwf	(146)^080h	;volatile
	line	43
	
l2746:	
;pwm.c: 43: CCP1CONbits.CCP1M3 = 1;
	bcf	status, 5	;RP0=0, select bank0
	bcf	status, 6	;RP1=0, select bank0
	bsf	(23),3	;volatile
	line	44
	
l2748:	
;pwm.c: 44: CCP1CONbits.CCP1M2 = 1;
	bsf	(23),2	;volatile
	line	45
	
l2750:	
;pwm.c: 45: CCP1CONbits.CCP1M1 = 1;
	bsf	(23),1	;volatile
	line	46
	
l2752:	
;pwm.c: 46: CCP1CONbits.CCP1M0 = 1;
	bsf	(23),0	;volatile
	line	49
	
l2754:	
;pwm.c: 49: PIE1bits.CCP1IE = 1;
	bsf	status, 5	;RP0=1, select bank1
	bcf	status, 6	;RP1=0, select bank1
	bsf	(140)^080h,2	;volatile
	line	50
	
l2756:	
;pwm.c: 50: PIR1bits.CCP1IF = 0;
	bcf	status, 5	;RP0=0, select bank0
	bcf	status, 6	;RP1=0, select bank0
	bcf	(12),2	;volatile
	line	53
	
l2758:	
;pwm.c: 53: CCP2CONbits.CCP2M3 = 1;
	bsf	(29),3	;volatile
	line	54
	
l2760:	
;pwm.c: 54: CCP2CONbits.CCP2M2 = 1;
	bsf	(29),2	;volatile
	line	55
	
l2762:	
;pwm.c: 55: CCP2CONbits.CCP2M1 = 1;
	bsf	(29),1	;volatile
	line	56
	
l2764:	
;pwm.c: 56: CCP2CONbits.CCP2M0 = 1;
	bsf	(29),0	;volatile
	line	59
	
l2766:	
;pwm.c: 59: PIE2bits.CCP2IE = 1;
	bsf	status, 5	;RP0=1, select bank1
	bcf	status, 6	;RP1=0, select bank1
	bsf	(141)^080h,0	;volatile
	line	60
	
l2768:	
;pwm.c: 60: PIR2bits.CCP2IF = 0;
	bcf	status, 5	;RP0=0, select bank0
	bcf	status, 6	;RP1=0, select bank0
	bcf	(13),0	;volatile
	line	61
	
l430:	
	return
	opt stack 0
GLOBAL	__end_of_PWM_Init
	__end_of_PWM_Init:
	signat	_PWM_Init,88
	global	_PWM_DutyCycle2

;; *************** function _PWM_DutyCycle2 *****************
;; Defined at:
;;		line 96 in file "R:\Note\Sistema I\Ultimo C no MPLAB\pwm.c"
;; Parameters:    Size  Location     Type
;;  valor           2   20[BANK1 ] int 
;; Auto vars:     Size  Location     Type
;;		None
;; Return value:  Size  Location     Type
;;		None               void
;; Registers used:
;;		wreg, status,2, status,0
;; Tracked objects:
;;		On entry : 0/0
;;		On exit  : 0/0
;;		Unchanged: 0/0
;; Data sizes:     COMMON   BANK0   BANK1   BANK3   BANK2
;;      Params:         0       0       2       0       0
;;      Locals:         0       0       0       0       0
;;      Temps:          0       0       2       0       0
;;      Totals:         0       0       4       0       0
;;Total ram usage:        4 bytes
;; Hardware stack levels used:    1
;; Hardware stack levels required when called:    5
;; This function calls:
;;		Nothing
;; This function is called by:
;;		_main
;; This function uses a non-reentrant model
;;
psect	text6,local,class=CODE,delta=2,merge=1
	line	96
global __ptext6
__ptext6:	;psect for function _PWM_DutyCycle2
psect	text6
	file	"R:\Note\Sistema I\Ultimo C no MPLAB\pwm.c"
	line	96
	global	__size_of_PWM_DutyCycle2
	__size_of_PWM_DutyCycle2	equ	__end_of_PWM_DutyCycle2-_PWM_DutyCycle2
	
_PWM_DutyCycle2:	
;incstack = 0
	opt	stack 2
; Regs used in _PWM_DutyCycle2: [wreg+status,2+status,0]
	line	98
	
l2672:	
;pwm.c: 98: CCPR2L = valor >> 2;
	bsf	status, 5	;RP0=1, select bank1
	bcf	status, 6	;RP1=0, select bank1
	movf	(PWM_DutyCycle2@valor+1)^080h,w
	movwf	(??_PWM_DutyCycle2+0)^080h+0+1
	movf	(PWM_DutyCycle2@valor)^080h,w
	movwf	(??_PWM_DutyCycle2+0)^080h+0
	rlf	(??_PWM_DutyCycle2+0)^080h+1,w
	rrf	(??_PWM_DutyCycle2+0)^080h+1,f
	rrf	(??_PWM_DutyCycle2+0)^080h+0,f
	rlf	(??_PWM_DutyCycle2+0)^080h+1,w
	rrf	(??_PWM_DutyCycle2+0)^080h+1,f
	rrf	(??_PWM_DutyCycle2+0)^080h+0,f
	movf	0+(??_PWM_DutyCycle2+0)^080h+0,w
	bcf	status, 5	;RP0=0, select bank0
	bcf	status, 6	;RP1=0, select bank0
	movwf	(27)	;volatile
	line	99
	
l2674:	
;pwm.c: 99: CCP2CON = (valor << 4)|0X0C;
	bsf	status, 5	;RP0=1, select bank1
	bcf	status, 6	;RP1=0, select bank1
	movf	(PWM_DutyCycle2@valor)^080h,w
	movwf	(??_PWM_DutyCycle2+0)^080h+0
	movlw	(04h)-1
u3155:
	clrc
	rlf	(??_PWM_DutyCycle2+0)^080h+0,f
	addlw	-1
	skipz
	goto	u3155
	clrc
	rlf	(??_PWM_DutyCycle2+0)^080h+0,w
	iorlw	0Ch
	bcf	status, 5	;RP0=0, select bank0
	bcf	status, 6	;RP1=0, select bank0
	movwf	(29)	;volatile
	line	100
	
l436:	
	return
	opt stack 0
GLOBAL	__end_of_PWM_DutyCycle2
	__end_of_PWM_DutyCycle2:
	signat	_PWM_DutyCycle2,4216
	global	_PWM_DutyCycle1

;; *************** function _PWM_DutyCycle1 *****************
;; Defined at:
;;		line 64 in file "R:\Note\Sistema I\Ultimo C no MPLAB\pwm.c"
;; Parameters:    Size  Location     Type
;;  valor           2   20[BANK1 ] int 
;; Auto vars:     Size  Location     Type
;;		None
;; Return value:  Size  Location     Type
;;		None               void
;; Registers used:
;;		wreg, status,2, status,0
;; Tracked objects:
;;		On entry : 0/0
;;		On exit  : 0/0
;;		Unchanged: 0/0
;; Data sizes:     COMMON   BANK0   BANK1   BANK3   BANK2
;;      Params:         0       0       2       0       0
;;      Locals:         0       0       0       0       0
;;      Temps:          0       0       2       0       0
;;      Totals:         0       0       4       0       0
;;Total ram usage:        4 bytes
;; Hardware stack levels used:    1
;; Hardware stack levels required when called:    5
;; This function calls:
;;		Nothing
;; This function is called by:
;;		_main
;; This function uses a non-reentrant model
;;
psect	text7,local,class=CODE,delta=2,merge=1
	line	64
global __ptext7
__ptext7:	;psect for function _PWM_DutyCycle1
psect	text7
	file	"R:\Note\Sistema I\Ultimo C no MPLAB\pwm.c"
	line	64
	global	__size_of_PWM_DutyCycle1
	__size_of_PWM_DutyCycle1	equ	__end_of_PWM_DutyCycle1-_PWM_DutyCycle1
	
_PWM_DutyCycle1:	
;incstack = 0
	opt	stack 2
; Regs used in _PWM_DutyCycle1: [wreg+status,2+status,0]
	line	91
	
l2816:	
;pwm.c: 91: CCPR1L = valor >> 2;
	bsf	status, 5	;RP0=1, select bank1
	bcf	status, 6	;RP1=0, select bank1
	movf	(PWM_DutyCycle1@valor+1)^080h,w
	movwf	(??_PWM_DutyCycle1+0)^080h+0+1
	movf	(PWM_DutyCycle1@valor)^080h,w
	movwf	(??_PWM_DutyCycle1+0)^080h+0
	rlf	(??_PWM_DutyCycle1+0)^080h+1,w
	rrf	(??_PWM_DutyCycle1+0)^080h+1,f
	rrf	(??_PWM_DutyCycle1+0)^080h+0,f
	rlf	(??_PWM_DutyCycle1+0)^080h+1,w
	rrf	(??_PWM_DutyCycle1+0)^080h+1,f
	rrf	(??_PWM_DutyCycle1+0)^080h+0,f
	movf	0+(??_PWM_DutyCycle1+0)^080h+0,w
	bcf	status, 5	;RP0=0, select bank0
	bcf	status, 6	;RP1=0, select bank0
	movwf	(21)	;volatile
	line	92
	
l2818:	
;pwm.c: 92: CCP1CON = (valor << 4)|0X0C;
	bsf	status, 5	;RP0=1, select bank1
	bcf	status, 6	;RP1=0, select bank1
	movf	(PWM_DutyCycle1@valor)^080h,w
	movwf	(??_PWM_DutyCycle1+0)^080h+0
	movlw	(04h)-1
u3205:
	clrc
	rlf	(??_PWM_DutyCycle1+0)^080h+0,f
	addlw	-1
	skipz
	goto	u3205
	clrc
	rlf	(??_PWM_DutyCycle1+0)^080h+0,w
	iorlw	0Ch
	bcf	status, 5	;RP0=0, select bank0
	bcf	status, 6	;RP1=0, select bank0
	movwf	(23)	;volatile
	line	94
	
l433:	
	return
	opt stack 0
GLOBAL	__end_of_PWM_DutyCycle1
	__end_of_PWM_DutyCycle1:
	signat	_PWM_DutyCycle1,4216
	global	_LCD_WriteString

;; *************** function _LCD_WriteString *****************
;; Defined at:
;;		line 61 in file "R:\Note\Sistema I\Ultimo C no MPLAB\lcd.c"
;; Parameters:    Size  Location     Type
;;  Str             2   22[BANK1 ] PTR const unsigned char 
;;		 -> display_rpm(10), STR_3(6), STR_2(17), 
;; Auto vars:     Size  Location     Type
;;		None
;; Return value:  Size  Location     Type
;;		None               void
;; Registers used:
;;		wreg, fsr0l, fsr0h, status,2, status,0, btemp+1, pclath, cstack
;; Tracked objects:
;;		On entry : 0/0
;;		On exit  : 0/0
;;		Unchanged: 0/0
;; Data sizes:     COMMON   BANK0   BANK1   BANK3   BANK2
;;      Params:         0       0       2       0       0
;;      Locals:         0       0       0       0       0
;;      Temps:          0       0       0       0       0
;;      Totals:         0       0       2       0       0
;;Total ram usage:        2 bytes
;; Hardware stack levels used:    1
;; Hardware stack levels required when called:    6
;; This function calls:
;;		_LCD_WriteData
;; This function is called by:
;;		_main
;; This function uses a non-reentrant model
;;
psect	text8,local,class=CODE,delta=2,merge=1
	file	"R:\Note\Sistema I\Ultimo C no MPLAB\lcd.c"
	line	61
global __ptext8
__ptext8:	;psect for function _LCD_WriteString
psect	text8
	file	"R:\Note\Sistema I\Ultimo C no MPLAB\lcd.c"
	line	61
	global	__size_of_LCD_WriteString
	__size_of_LCD_WriteString	equ	__end_of_LCD_WriteString-_LCD_WriteString
	
_LCD_WriteString:	
;incstack = 0
	opt	stack 1
; Regs used in _LCD_WriteString: [wreg-fsr0h+status,2+status,0+btemp+1+pclath+cstack]
	line	63
	
l2808:	
;lcd.c: 63: while(*Str != '\0')
	goto	l2814
	
l311:	
	line	65
	
l2810:	
;lcd.c: 64: {
;lcd.c: 65: LCD_WriteData(*Str);
	bsf	status, 5	;RP0=1, select bank1
	bcf	status, 6	;RP1=0, select bank1
	movf	(LCD_WriteString@Str+1)^080h,w
	bcf	status, 5	;RP0=0, select bank0
	bcf	status, 6	;RP1=0, select bank0
	movwf	btemp+1
	bsf	status, 5	;RP0=1, select bank1
	bcf	status, 6	;RP1=0, select bank1
	movf	(LCD_WriteString@Str)^080h,w
	movwf	fsr0
	bcf	status, 5	;RP0=0, select bank0
	bcf	status, 6	;RP1=0, select bank0
	fcall	stringtab
	fcall	_LCD_WriteData
	line	66
	
l2812:	
;lcd.c: 66: Str++;
	movlw	01h
	bsf	status, 5	;RP0=1, select bank1
	bcf	status, 6	;RP1=0, select bank1
	addwf	(LCD_WriteString@Str)^080h,f
	skipnc
	incf	(LCD_WriteString@Str+1)^080h,f
	goto	l2814
	line	67
	
l310:	
	line	63
	
l2814:	
	bsf	status, 5	;RP0=1, select bank1
	bcf	status, 6	;RP1=0, select bank1
	movf	(LCD_WriteString@Str+1)^080h,w
	bcf	status, 5	;RP0=0, select bank0
	bcf	status, 6	;RP1=0, select bank0
	movwf	btemp+1
	bsf	status, 5	;RP0=1, select bank1
	bcf	status, 6	;RP1=0, select bank1
	movf	(LCD_WriteString@Str)^080h,w
	movwf	fsr0
	bcf	status, 5	;RP0=0, select bank0
	bcf	status, 6	;RP1=0, select bank0
	fcall	stringtab
	iorlw	0
	skipz
	goto	u3191
	goto	u3190
u3191:
	goto	l2810
u3190:
	goto	l313
	
l312:	
	line	68
	
l313:	
	return
	opt stack 0
GLOBAL	__end_of_LCD_WriteString
	__end_of_LCD_WriteString:
	signat	_LCD_WriteString,4216
	global	_LCD_WriteData

;; *************** function _LCD_WriteData *****************
;; Defined at:
;;		line 47 in file "R:\Note\Sistema I\Ultimo C no MPLAB\lcd.c"
;; Parameters:    Size  Location     Type
;;  Byte            1    wreg     unsigned char 
;; Auto vars:     Size  Location     Type
;;  Byte            1   21[BANK1 ] unsigned char 
;; Return value:  Size  Location     Type
;;		None               void
;; Registers used:
;;		wreg
;; Tracked objects:
;;		On entry : 0/0
;;		On exit  : 0/0
;;		Unchanged: 0/0
;; Data sizes:     COMMON   BANK0   BANK1   BANK3   BANK2
;;      Params:         0       0       0       0       0
;;      Locals:         0       0       1       0       0
;;      Temps:          0       0       1       0       0
;;      Totals:         0       0       2       0       0
;;Total ram usage:        2 bytes
;; Hardware stack levels used:    1
;; Hardware stack levels required when called:    5
;; This function calls:
;;		Nothing
;; This function is called by:
;;		_LCD_WriteString
;; This function uses a non-reentrant model
;;
psect	text9,local,class=CODE,delta=2,merge=1
	line	47
global __ptext9
__ptext9:	;psect for function _LCD_WriteData
psect	text9
	file	"R:\Note\Sistema I\Ultimo C no MPLAB\lcd.c"
	line	47
	global	__size_of_LCD_WriteData
	__size_of_LCD_WriteData	equ	__end_of_LCD_WriteData-_LCD_WriteData
	
_LCD_WriteData:	
;incstack = 0
	opt	stack 1
; Regs used in _LCD_WriteData: [wreg]
;LCD_WriteData@Byte stored from wreg
	bsf	status, 5	;RP0=1, select bank1
	bcf	status, 6	;RP1=0, select bank1
	movwf	(LCD_WriteData@Byte)^080h
	line	49
	
l2288:	
;lcd.c: 49: PORTEbits.RE0 = 1;
	bcf	status, 5	;RP0=0, select bank0
	bcf	status, 6	;RP1=0, select bank0
	bsf	(9),0	;volatile
	line	51
	
l2290:	
;lcd.c: 51: PORTD = Byte;
	bsf	status, 5	;RP0=1, select bank1
	bcf	status, 6	;RP1=0, select bank1
	movf	(LCD_WriteData@Byte)^080h,w
	bcf	status, 5	;RP0=0, select bank0
	bcf	status, 6	;RP1=0, select bank0
	movwf	(8)	;volatile
	line	53
	
l2292:	
;lcd.c: 53: PORTEbits.RE1 = 1;
	bsf	(9),1	;volatile
	line	55
;lcd.c: 55: _delay((unsigned long)((40)*(18432000/4000000.0)));
	opt asmopt_off
movlw	61
	bsf	status, 5	;RP0=1, select bank1
	bcf	status, 6	;RP1=0, select bank1
movwf	(??_LCD_WriteData+0)^080h+0,f
u3517:
decfsz	(??_LCD_WriteData+0)^080h+0,f
	goto	u3517
opt asmopt_on

	line	57
	
l2294:	
;lcd.c: 57: PORTEbits.RE1 = 0;
	bcf	status, 5	;RP0=0, select bank0
	bcf	status, 6	;RP1=0, select bank0
	bcf	(9),1	;volatile
	line	58
	
l307:	
	return
	opt stack 0
GLOBAL	__end_of_LCD_WriteData
	__end_of_LCD_WriteData:
	signat	_LCD_WriteData,4216
	global	_LCD_Init

;; *************** function _LCD_Init *****************
;; Defined at:
;;		line 87 in file "R:\Note\Sistema I\Ultimo C no MPLAB\lcd.c"
;; Parameters:    Size  Location     Type
;;		None
;; Auto vars:     Size  Location     Type
;;		None
;; Return value:  Size  Location     Type
;;		None               void
;; Registers used:
;;		wreg, status,2, status,0, pclath, cstack
;; Tracked objects:
;;		On entry : 0/0
;;		On exit  : 0/0
;;		Unchanged: 0/0
;; Data sizes:     COMMON   BANK0   BANK1   BANK3   BANK2
;;      Params:         0       0       0       0       0
;;      Locals:         0       0       0       0       0
;;      Temps:          0       0       2       0       0
;;      Totals:         0       0       2       0       0
;;Total ram usage:        2 bytes
;; Hardware stack levels used:    1
;; Hardware stack levels required when called:    6
;; This function calls:
;;		_LCD_WriteCmd
;; This function is called by:
;;		_main
;; This function uses a non-reentrant model
;;
psect	text10,local,class=CODE,delta=2,merge=1
	line	87
global __ptext10
__ptext10:	;psect for function _LCD_Init
psect	text10
	file	"R:\Note\Sistema I\Ultimo C no MPLAB\lcd.c"
	line	87
	global	__size_of_LCD_Init
	__size_of_LCD_Init	equ	__end_of_LCD_Init-_LCD_Init
	
_LCD_Init:	
;incstack = 0
	opt	stack 1
; Regs used in _LCD_Init: [wreg+status,2+status,0+pclath+cstack]
	line	90
	
l2770:	
;lcd.c: 90: ADCON1bits.PCFG3 = 0;
	bsf	status, 5	;RP0=1, select bank1
	bcf	status, 6	;RP1=0, select bank1
	bcf	(159)^080h,3	;volatile
	line	91
;lcd.c: 91: ADCON1bits.PCFG2 = 1;
	bsf	(159)^080h,2	;volatile
	line	92
;lcd.c: 92: ADCON1bits.PCFG1 = 0;
	bcf	(159)^080h,1	;volatile
	line	93
;lcd.c: 93: ADCON1bits.PCFG0 = 0;
	bcf	(159)^080h,0	;volatile
	line	95
	
l2772:	
;lcd.c: 95: _delay((unsigned long)((15)*(18432000/4000.0)));
	opt asmopt_off
movlw	90
movwf	((??_LCD_Init+0)^080h+0+1),f
	movlw	195
movwf	((??_LCD_Init+0)^080h+0),f
u3527:
	decfsz	((??_LCD_Init+0)^080h+0),f
	goto	u3527
	decfsz	((??_LCD_Init+0)^080h+0+1),f
	goto	u3527
opt asmopt_on

	line	97
	
l2774:	
;lcd.c: 97: LCD_WriteCmd(0x30);
	movlw	(030h)
	fcall	_LCD_WriteCmd
	line	98
	
l2776:	
;lcd.c: 98: _delay((unsigned long)((4)*(18432000/4000.0)));
	opt asmopt_off
movlw	24
	bsf	status, 5	;RP0=1, select bank1
	bcf	status, 6	;RP1=0, select bank1
movwf	((??_LCD_Init+0)^080h+0+1),f
	movlw	239
movwf	((??_LCD_Init+0)^080h+0),f
u3537:
	decfsz	((??_LCD_Init+0)^080h+0),f
	goto	u3537
	decfsz	((??_LCD_Init+0)^080h+0+1),f
	goto	u3537
opt asmopt_on

	line	100
;lcd.c: 100: LCD_WriteCmd(0x30);
	movlw	(030h)
	fcall	_LCD_WriteCmd
	line	101
	
l2778:	
;lcd.c: 101: _delay((unsigned long)((100)*(18432000/4000000.0)));
	opt asmopt_off
movlw	153
	bsf	status, 5	;RP0=1, select bank1
	bcf	status, 6	;RP1=0, select bank1
movwf	(??_LCD_Init+0)^080h+0,f
u3547:
decfsz	(??_LCD_Init+0)^080h+0,f
	goto	u3547
opt asmopt_on

	line	103
	
l2780:	
;lcd.c: 103: LCD_WriteCmd(0x30);
	movlw	(030h)
	fcall	_LCD_WriteCmd
	line	104
;lcd.c: 104: _delay((unsigned long)((40)*(18432000/4000000.0)));
	opt asmopt_off
movlw	61
	bsf	status, 5	;RP0=1, select bank1
	bcf	status, 6	;RP1=0, select bank1
movwf	(??_LCD_Init+0)^080h+0,f
u3557:
decfsz	(??_LCD_Init+0)^080h+0,f
	goto	u3557
opt asmopt_on

	line	106
	
l2782:	
;lcd.c: 106: LCD_WriteCmd(0x38);
	movlw	(038h)
	fcall	_LCD_WriteCmd
	line	107
	
l2784:	
;lcd.c: 107: _delay((unsigned long)((40)*(18432000/4000000.0)));
	opt asmopt_off
movlw	61
	bsf	status, 5	;RP0=1, select bank1
	bcf	status, 6	;RP1=0, select bank1
movwf	(??_LCD_Init+0)^080h+0,f
u3567:
decfsz	(??_LCD_Init+0)^080h+0,f
	goto	u3567
opt asmopt_on

	line	109
;lcd.c: 109: LCD_WriteCmd(0x01);
	movlw	(01h)
	fcall	_LCD_WriteCmd
	line	110
	
l2786:	
;lcd.c: 110: _delay((unsigned long)((2)*(18432000/4000.0)));
	opt asmopt_off
movlw	12
	bsf	status, 5	;RP0=1, select bank1
	bcf	status, 6	;RP1=0, select bank1
movwf	((??_LCD_Init+0)^080h+0+1),f
	movlw	247
movwf	((??_LCD_Init+0)^080h+0),f
u3577:
	decfsz	((??_LCD_Init+0)^080h+0),f
	goto	u3577
	decfsz	((??_LCD_Init+0)^080h+0+1),f
	goto	u3577
opt asmopt_on

	line	112
	
l2788:	
;lcd.c: 112: LCD_WriteCmd(0x0C);
	movlw	(0Ch)
	fcall	_LCD_WriteCmd
	line	113
;lcd.c: 113: _delay((unsigned long)((40)*(18432000/4000000.0)));
	opt asmopt_off
movlw	61
	bsf	status, 5	;RP0=1, select bank1
	bcf	status, 6	;RP1=0, select bank1
movwf	(??_LCD_Init+0)^080h+0,f
u3587:
decfsz	(??_LCD_Init+0)^080h+0,f
	goto	u3587
opt asmopt_on

	line	115
	
l2790:	
;lcd.c: 115: LCD_WriteCmd(0x06);
	movlw	(06h)
	fcall	_LCD_WriteCmd
	line	116
	
l2792:	
;lcd.c: 116: _delay((unsigned long)((40)*(18432000/4000000.0)));
	opt asmopt_off
movlw	61
	bsf	status, 5	;RP0=1, select bank1
	bcf	status, 6	;RP1=0, select bank1
movwf	(??_LCD_Init+0)^080h+0,f
u3597:
decfsz	(??_LCD_Init+0)^080h+0,f
	goto	u3597
opt asmopt_on

	line	117
	
l319:	
	return
	opt stack 0
GLOBAL	__end_of_LCD_Init
	__end_of_LCD_Init:
	signat	_LCD_Init,88
	global	_LCD_Cursor

;; *************** function _LCD_Cursor *****************
;; Defined at:
;;		line 10 in file "R:\Note\Sistema I\Ultimo C no MPLAB\lcd.c"
;; Parameters:    Size  Location     Type
;;  Row             1    wreg     unsigned char 
;;  Col             1   20[BANK1 ] unsigned char 
;; Auto vars:     Size  Location     Type
;;  Row             1   22[BANK1 ] unsigned char 
;; Return value:  Size  Location     Type
;;		None               void
;; Registers used:
;;		wreg, status,2, status,0
;; Tracked objects:
;;		On entry : 0/0
;;		On exit  : 0/0
;;		Unchanged: 0/0
;; Data sizes:     COMMON   BANK0   BANK1   BANK3   BANK2
;;      Params:         0       0       1       0       0
;;      Locals:         0       0       1       0       0
;;      Temps:          0       0       1       0       0
;;      Totals:         0       0       3       0       0
;;Total ram usage:        3 bytes
;; Hardware stack levels used:    1
;; Hardware stack levels required when called:    5
;; This function calls:
;;		Nothing
;; This function is called by:
;;		_main
;; This function uses a non-reentrant model
;;
psect	text11,local,class=CODE,delta=2,merge=1
	line	10
global __ptext11
__ptext11:	;psect for function _LCD_Cursor
psect	text11
	file	"R:\Note\Sistema I\Ultimo C no MPLAB\lcd.c"
	line	10
	global	__size_of_LCD_Cursor
	__size_of_LCD_Cursor	equ	__end_of_LCD_Cursor-_LCD_Cursor
	
_LCD_Cursor:	
;incstack = 0
	opt	stack 2
; Regs used in _LCD_Cursor: [wreg+status,2+status,0]
;LCD_Cursor@Row stored from wreg
	bsf	status, 5	;RP0=1, select bank1
	bcf	status, 6	;RP1=0, select bank1
	movwf	(LCD_Cursor@Row)^080h
	line	12
	
l2794:	
;lcd.c: 12: PORTEbits.RE0 = 0;
	bcf	status, 5	;RP0=0, select bank0
	bcf	status, 6	;RP1=0, select bank0
	bcf	(9),0	;volatile
	line	14
	
l2796:	
;lcd.c: 14: if (Row == 0)
	bsf	status, 5	;RP0=1, select bank1
	bcf	status, 6	;RP1=0, select bank1
	movf	(LCD_Cursor@Row)^080h,f
	skipz
	goto	u3181
	goto	u3180
u3181:
	goto	l2800
u3180:
	line	16
	
l2798:	
;lcd.c: 15: {
;lcd.c: 16: PORTD = 0x80 + Col;
	movf	(LCD_Cursor@Col)^080h,w
	addlw	080h
	bcf	status, 5	;RP0=0, select bank0
	bcf	status, 6	;RP1=0, select bank0
	movwf	(8)	;volatile
	line	17
;lcd.c: 17: }
	goto	l2802
	line	18
	
l299:	
	line	20
	
l2800:	
;lcd.c: 18: else
;lcd.c: 19: {
;lcd.c: 20: PORTD = 0xC0 + Col;
	bsf	status, 5	;RP0=1, select bank1
	bcf	status, 6	;RP1=0, select bank1
	movf	(LCD_Cursor@Col)^080h,w
	addlw	0C0h
	bcf	status, 5	;RP0=0, select bank0
	bcf	status, 6	;RP1=0, select bank0
	movwf	(8)	;volatile
	goto	l2802
	line	21
	
l300:	
	line	24
	
l2802:	
;lcd.c: 21: }
;lcd.c: 24: PORTEbits.RE1 = 1;
	bsf	(9),1	;volatile
	line	26
	
l2804:	
;lcd.c: 26: _delay((unsigned long)((40)*(18432000/4000000.0)));
	opt asmopt_off
movlw	61
	bsf	status, 5	;RP0=1, select bank1
	bcf	status, 6	;RP1=0, select bank1
movwf	(??_LCD_Cursor+0)^080h+0,f
u3607:
decfsz	(??_LCD_Cursor+0)^080h+0,f
	goto	u3607
opt asmopt_on

	line	28
	
l2806:	
;lcd.c: 28: PORTEbits.RE1 = 0;
	bcf	status, 5	;RP0=0, select bank0
	bcf	status, 6	;RP1=0, select bank0
	bcf	(9),1	;volatile
	line	29
	
l301:	
	return
	opt stack 0
GLOBAL	__end_of_LCD_Cursor
	__end_of_LCD_Cursor:
	signat	_LCD_Cursor,8312
	global	_LCD_Clear

;; *************** function _LCD_Clear *****************
;; Defined at:
;;		line 71 in file "R:\Note\Sistema I\Ultimo C no MPLAB\lcd.c"
;; Parameters:    Size  Location     Type
;;		None
;; Auto vars:     Size  Location     Type
;;		None
;; Return value:  Size  Location     Type
;;		None               void
;; Registers used:
;;		wreg, status,2, status,0, pclath, cstack
;; Tracked objects:
;;		On entry : 0/0
;;		On exit  : 0/0
;;		Unchanged: 0/0
;; Data sizes:     COMMON   BANK0   BANK1   BANK3   BANK2
;;      Params:         0       0       0       0       0
;;      Locals:         0       0       0       0       0
;;      Temps:          0       0       2       0       0
;;      Totals:         0       0       2       0       0
;;Total ram usage:        2 bytes
;; Hardware stack levels used:    1
;; Hardware stack levels required when called:    6
;; This function calls:
;;		_LCD_WriteCmd
;; This function is called by:
;;		_main
;; This function uses a non-reentrant model
;;
psect	text12,local,class=CODE,delta=2,merge=1
	line	71
global __ptext12
__ptext12:	;psect for function _LCD_Clear
psect	text12
	file	"R:\Note\Sistema I\Ultimo C no MPLAB\lcd.c"
	line	71
	global	__size_of_LCD_Clear
	__size_of_LCD_Clear	equ	__end_of_LCD_Clear-_LCD_Clear
	
_LCD_Clear:	
;incstack = 0
	opt	stack 1
; Regs used in _LCD_Clear: [wreg+status,2+status,0+pclath+cstack]
	line	73
	
l2820:	
;lcd.c: 73: LCD_WriteCmd(0x01);
	movlw	(01h)
	fcall	_LCD_WriteCmd
	line	75
	
l2822:	
;lcd.c: 75: _delay((unsigned long)((2)*(18432000/4000.0)));
	opt asmopt_off
movlw	12
	bsf	status, 5	;RP0=1, select bank1
	bcf	status, 6	;RP1=0, select bank1
movwf	((??_LCD_Clear+0)^080h+0+1),f
	movlw	247
movwf	((??_LCD_Clear+0)^080h+0),f
u3617:
	decfsz	((??_LCD_Clear+0)^080h+0),f
	goto	u3617
	decfsz	((??_LCD_Clear+0)^080h+0+1),f
	goto	u3617
opt asmopt_on

	line	77
	
l2824:	
;lcd.c: 77: LCD_WriteCmd(0x0C);
	movlw	(0Ch)
	fcall	_LCD_WriteCmd
	line	79
;lcd.c: 79: _delay((unsigned long)((40)*(18432000/4000000.0)));
	opt asmopt_off
movlw	61
	bsf	status, 5	;RP0=1, select bank1
	bcf	status, 6	;RP1=0, select bank1
movwf	(??_LCD_Clear+0)^080h+0,f
u3627:
decfsz	(??_LCD_Clear+0)^080h+0,f
	goto	u3627
opt asmopt_on

	line	81
	
l2826:	
;lcd.c: 81: LCD_WriteCmd(0x06);
	movlw	(06h)
	fcall	_LCD_WriteCmd
	line	83
	
l2828:	
;lcd.c: 83: _delay((unsigned long)((40)*(18432000/4000000.0)));
	opt asmopt_off
movlw	61
	bsf	status, 5	;RP0=1, select bank1
	bcf	status, 6	;RP1=0, select bank1
movwf	(??_LCD_Clear+0)^080h+0,f
u3637:
decfsz	(??_LCD_Clear+0)^080h+0,f
	goto	u3637
opt asmopt_on

	line	84
	
l316:	
	return
	opt stack 0
GLOBAL	__end_of_LCD_Clear
	__end_of_LCD_Clear:
	signat	_LCD_Clear,88
	global	_LCD_WriteCmd

;; *************** function _LCD_WriteCmd *****************
;; Defined at:
;;		line 32 in file "R:\Note\Sistema I\Ultimo C no MPLAB\lcd.c"
;; Parameters:    Size  Location     Type
;;  Byte            1    wreg     unsigned char 
;; Auto vars:     Size  Location     Type
;;  Byte            1   21[BANK1 ] unsigned char 
;; Return value:  Size  Location     Type
;;		None               void
;; Registers used:
;;		wreg
;; Tracked objects:
;;		On entry : 0/0
;;		On exit  : 0/0
;;		Unchanged: 0/0
;; Data sizes:     COMMON   BANK0   BANK1   BANK3   BANK2
;;      Params:         0       0       0       0       0
;;      Locals:         0       0       1       0       0
;;      Temps:          0       0       1       0       0
;;      Totals:         0       0       2       0       0
;;Total ram usage:        2 bytes
;; Hardware stack levels used:    1
;; Hardware stack levels required when called:    5
;; This function calls:
;;		Nothing
;; This function is called by:
;;		_LCD_Clear
;;		_LCD_Init
;; This function uses a non-reentrant model
;;
psect	text13,local,class=CODE,delta=2,merge=1
	line	32
global __ptext13
__ptext13:	;psect for function _LCD_WriteCmd
psect	text13
	file	"R:\Note\Sistema I\Ultimo C no MPLAB\lcd.c"
	line	32
	global	__size_of_LCD_WriteCmd
	__size_of_LCD_WriteCmd	equ	__end_of_LCD_WriteCmd-_LCD_WriteCmd
	
_LCD_WriteCmd:	
;incstack = 0
	opt	stack 1
; Regs used in _LCD_WriteCmd: [wreg]
;LCD_WriteCmd@Byte stored from wreg
	bsf	status, 5	;RP0=1, select bank1
	bcf	status, 6	;RP1=0, select bank1
	movwf	(LCD_WriteCmd@Byte)^080h
	line	34
	
l2280:	
;lcd.c: 34: PORTEbits.RE0 = 0;
	bcf	status, 5	;RP0=0, select bank0
	bcf	status, 6	;RP1=0, select bank0
	bcf	(9),0	;volatile
	line	36
	
l2282:	
;lcd.c: 36: PORTD = Byte;
	bsf	status, 5	;RP0=1, select bank1
	bcf	status, 6	;RP1=0, select bank1
	movf	(LCD_WriteCmd@Byte)^080h,w
	bcf	status, 5	;RP0=0, select bank0
	bcf	status, 6	;RP1=0, select bank0
	movwf	(8)	;volatile
	line	39
	
l2284:	
;lcd.c: 39: PORTEbits.RE1 = 1;
	bsf	(9),1	;volatile
	line	41
;lcd.c: 41: _delay((unsigned long)((40)*(18432000/4000000.0)));
	opt asmopt_off
movlw	61
	bsf	status, 5	;RP0=1, select bank1
	bcf	status, 6	;RP1=0, select bank1
movwf	(??_LCD_WriteCmd+0)^080h+0,f
u3647:
decfsz	(??_LCD_WriteCmd+0)^080h+0,f
	goto	u3647
opt asmopt_on

	line	43
	
l2286:	
;lcd.c: 43: PORTEbits.RE1 = 0;
	bcf	status, 5	;RP0=0, select bank0
	bcf	status, 6	;RP1=0, select bank0
	bcf	(9),1	;volatile
	line	44
	
l304:	
	return
	opt stack 0
GLOBAL	__end_of_LCD_WriteCmd
	__end_of_LCD_WriteCmd:
	signat	_LCD_WriteCmd,4216
	global	_ADC_Init

;; *************** function _ADC_Init *****************
;; Defined at:
;;		line 6 in file "R:\Note\Sistema I\Ultimo C no MPLAB\adc.c"
;; Parameters:    Size  Location     Type
;;		None
;; Auto vars:     Size  Location     Type
;;		None
;; Return value:  Size  Location     Type
;;		None               void
;; Registers used:
;;		None
;; Tracked objects:
;;		On entry : 0/0
;;		On exit  : 0/0
;;		Unchanged: 0/0
;; Data sizes:     COMMON   BANK0   BANK1   BANK3   BANK2
;;      Params:         0       0       0       0       0
;;      Locals:         0       0       0       0       0
;;      Temps:          0       0       0       0       0
;;      Totals:         0       0       0       0       0
;;Total ram usage:        0 bytes
;; Hardware stack levels used:    1
;; Hardware stack levels required when called:    5
;; This function calls:
;;		Nothing
;; This function is called by:
;;		_main
;; This function uses a non-reentrant model
;;
psect	text14,local,class=CODE,delta=2,merge=1
	file	"R:\Note\Sistema I\Ultimo C no MPLAB\adc.c"
	line	6
global __ptext14
__ptext14:	;psect for function _ADC_Init
psect	text14
	file	"R:\Note\Sistema I\Ultimo C no MPLAB\adc.c"
	line	6
	global	__size_of_ADC_Init
	__size_of_ADC_Init	equ	__end_of_ADC_Init-_ADC_Init
	
_ADC_Init:	
;incstack = 0
	opt	stack 2
; Regs used in _ADC_Init: []
	line	9
	
l2740:	
;adc.c: 9: ADCON1bits.ADFM = 1;
	bsf	status, 5	;RP0=1, select bank1
	bcf	status, 6	;RP1=0, select bank1
	bsf	(159)^080h,7	;volatile
	line	32
;adc.c: 32: ADCON1bits.PCFG3 = 1;
	bsf	(159)^080h,3	;volatile
	line	33
;adc.c: 33: ADCON1bits.PCFG2 = 1;
	bsf	(159)^080h,2	;volatile
	line	34
;adc.c: 34: ADCON1bits.PCFG1 = 1;
	bsf	(159)^080h,1	;volatile
	line	35
;adc.c: 35: ADCON1bits.PCFG0 = 0;
	bcf	(159)^080h,0	;volatile
	line	38
;adc.c: 38: ADCON0bits.ADCS1 = 1;
	bcf	status, 5	;RP0=0, select bank0
	bcf	status, 6	;RP1=0, select bank0
	bsf	(31),7	;volatile
	line	39
;adc.c: 39: ADCON0bits.ADCS0 = 0;
	bcf	(31),6	;volatile
	line	42
;adc.c: 42: PIE1bits.ADIE = 0;
	bsf	status, 5	;RP0=1, select bank1
	bcf	status, 6	;RP1=0, select bank1
	bcf	(140)^080h,6	;volatile
	line	43
;adc.c: 43: PIR1bits.ADIF = 0;
	bcf	status, 5	;RP0=0, select bank0
	bcf	status, 6	;RP1=0, select bank0
	bcf	(12),6	;volatile
	line	44
	
l256:	
	return
	opt stack 0
GLOBAL	__end_of_ADC_Init
	__end_of_ADC_Init:
	signat	_ADC_Init,88
	global	_ISR

;; *************** function _ISR *****************
;; Defined at:
;;		line 371 in file "R:\Note\Sistema I\Ultimo C no MPLAB\main.c"
;; Parameters:    Size  Location     Type
;;		None
;; Auto vars:     Size  Location     Type
;;		None
;; Return value:  Size  Location     Type
;;		None               void
;; Registers used:
;;		wreg, fsr0l, fsr0h, status,2, status,0, btemp+1, pclath, cstack
;; Tracked objects:
;;		On entry : 0/0
;;		On exit  : 0/0
;;		Unchanged: 0/0
;; Data sizes:     COMMON   BANK0   BANK1   BANK3   BANK2
;;      Params:         0       0       0       0       0
;;      Locals:         0       0       0       0       0
;;      Temps:          0       4       0       0       0
;;      Totals:         0       4       0       0       0
;;Total ram usage:        4 bytes
;; Hardware stack levels used:    1
;; Hardware stack levels required when called:    4
;; This function calls:
;;		_Fuzzy
;;		_USART_ReceiveChar
;;		_USART_WriteString
;;		___lwdiv
;;		___wmul
;;		_send
;;		i1_PWM_DutyCycle2
;;		i1_TIMER0_Set
;; This function is called by:
;;		Interrupt level 1
;; This function uses a non-reentrant model
;;
psect	text15,local,class=CODE,delta=2,merge=1
	file	"R:\Note\Sistema I\Ultimo C no MPLAB\main.c"
	line	371
global __ptext15
__ptext15:	;psect for function _ISR
psect	text15
	file	"R:\Note\Sistema I\Ultimo C no MPLAB\main.c"
	line	371
	global	__size_of_ISR
	__size_of_ISR	equ	__end_of_ISR-_ISR
	
_ISR:	
;incstack = 0
	opt	stack 1
; Regs used in _ISR: [wreg-fsr0h+status,2+status,0+btemp+1+pclath+cstack]
psect	intentry,class=CODE,delta=2
global __pintentry
__pintentry:
global interrupt_function
interrupt_function:
	global saved_w
	saved_w	set	btemp+0
	movwf	saved_w
	swapf	status,w
	bcf	status, 5	;RP0=0, select bank0
	bcf	status, 6	;RP1=0, select bank0
	movwf	(??_ISR+0)
	movf	fsr0,w
	movwf	(??_ISR+1)
	movf	pclath,w
	movwf	(??_ISR+2)
	movf	btemp+1,w
	movwf	(??_ISR+3)
	ljmp	_ISR
psect	text15
	line	374
	
i1l2838:	
;main.c: 374: if (PIR1bits.RCIF)
	btfss	(12),5	;volatile
	goto	u321_21
	goto	u321_20
u321_21:
	goto	i1l2894
u321_20:
	line	376
	
i1l2840:	
;main.c: 375: {
;main.c: 376: if (USART_ReceiveChar() == '0')
	fcall	_USART_ReceiveChar
	xorlw	030h
	skipz
	goto	u322_21
	goto	u322_20
u322_21:
	goto	i1l2848
u322_20:
	line	378
	
i1l2842:	
;main.c: 377: {
;main.c: 378: USART_WriteString("\n\rdesligado\n\r");
	movlw	((STR_1)-__stringbase)&0ffh
	fcall	_USART_WriteString
	line	380
	
i1l2844:	
;main.c: 380: PWM_DutyCycle2(0);
	movlw	low(0)
	movwf	(i1PWM_DutyCycle2@valor)
	movlw	high(0)
	movwf	((i1PWM_DutyCycle2@valor))+1
	fcall	i1_PWM_DutyCycle2
	goto	i1l181
	line	381
	
i1l2846:	
;main.c: 381: return;
	goto	i1l181
	line	382
	
i1l180:	
	line	384
	
i1l2848:	
;main.c: 382: }
;main.c: 384: if (USART_ReceiveChar() == '1')
	fcall	_USART_ReceiveChar
	xorlw	031h
	skipz
	goto	u323_21
	goto	u323_20
u323_21:
	goto	i1l2852
u323_20:
	line	386
	
i1l2850:	
;main.c: 385: {
;main.c: 386: setpointUI = 720;
	movlw	low(02D0h)
	bcf	status, 5	;RP0=0, select bank0
	bcf	status, 6	;RP1=0, select bank0
	movwf	(_setpointUI)
	movlw	high(02D0h)
	movwf	((_setpointUI))+1
	goto	i1l2852
	line	388
	
i1l182:	
	line	390
	
i1l2852:	
;main.c: 388: }
;main.c: 390: if (USART_ReceiveChar() == '2')
	fcall	_USART_ReceiveChar
	xorlw	032h
	skipz
	goto	u324_21
	goto	u324_20
u324_21:
	goto	i1l2856
u324_20:
	line	392
	
i1l2854:	
;main.c: 391: {
;main.c: 392: setpointUI = 1450;
	movlw	low(05AAh)
	bcf	status, 5	;RP0=0, select bank0
	bcf	status, 6	;RP1=0, select bank0
	movwf	(_setpointUI)
	movlw	high(05AAh)
	movwf	((_setpointUI))+1
	goto	i1l2856
	line	394
	
i1l183:	
	line	396
	
i1l2856:	
;main.c: 394: }
;main.c: 396: if (USART_ReceiveChar() == '3')
	fcall	_USART_ReceiveChar
	xorlw	033h
	skipz
	goto	u325_21
	goto	u325_20
u325_21:
	goto	i1l2860
u325_20:
	line	398
	
i1l2858:	
;main.c: 397: {
;main.c: 398: setpointUI = 2828;
	movlw	low(0B0Ch)
	bcf	status, 5	;RP0=0, select bank0
	bcf	status, 6	;RP1=0, select bank0
	movwf	(_setpointUI)
	movlw	high(0B0Ch)
	movwf	((_setpointUI))+1
	goto	i1l2860
	line	400
	
i1l184:	
	line	402
	
i1l2860:	
;main.c: 400: }
;main.c: 402: if (USART_ReceiveChar() == '4')
	fcall	_USART_ReceiveChar
	xorlw	034h
	skipz
	goto	u326_21
	goto	u326_20
u326_21:
	goto	i1l2864
u326_20:
	line	404
	
i1l2862:	
;main.c: 403: {
;main.c: 404: setpointUI = 3256;
	movlw	low(0CB8h)
	bcf	status, 5	;RP0=0, select bank0
	bcf	status, 6	;RP1=0, select bank0
	movwf	(_setpointUI)
	movlw	high(0CB8h)
	movwf	((_setpointUI))+1
	goto	i1l2864
	line	406
	
i1l185:	
	line	408
	
i1l2864:	
;main.c: 406: }
;main.c: 408: if (USART_ReceiveChar() == '5')
	fcall	_USART_ReceiveChar
	xorlw	035h
	skipz
	goto	u327_21
	goto	u327_20
u327_21:
	goto	i1l2868
u327_20:
	line	410
	
i1l2866:	
;main.c: 409: {
;main.c: 410: setpointUI = 4510;
	movlw	low(0119Eh)
	bcf	status, 5	;RP0=0, select bank0
	bcf	status, 6	;RP1=0, select bank0
	movwf	(_setpointUI)
	movlw	high(0119Eh)
	movwf	((_setpointUI))+1
	goto	i1l2868
	line	412
	
i1l186:	
	line	414
	
i1l2868:	
;main.c: 412: }
;main.c: 414: if (USART_ReceiveChar() == '6')
	fcall	_USART_ReceiveChar
	xorlw	036h
	skipz
	goto	u328_21
	goto	u328_20
u328_21:
	goto	i1l2872
u328_20:
	line	416
	
i1l2870:	
;main.c: 415: {
;main.c: 416: setpointUI = 5760;
	movlw	low(01680h)
	bcf	status, 5	;RP0=0, select bank0
	bcf	status, 6	;RP1=0, select bank0
	movwf	(_setpointUI)
	movlw	high(01680h)
	movwf	((_setpointUI))+1
	goto	i1l2872
	line	418
	
i1l187:	
	line	420
	
i1l2872:	
;main.c: 418: }
;main.c: 420: if (USART_ReceiveChar() == '7')
	fcall	_USART_ReceiveChar
	xorlw	037h
	skipz
	goto	u329_21
	goto	u329_20
u329_21:
	goto	i1l2876
u329_20:
	line	422
	
i1l2874:	
;main.c: 421: {
;main.c: 422: setpointUI = 6890;
	movlw	low(01AEAh)
	bcf	status, 5	;RP0=0, select bank0
	bcf	status, 6	;RP1=0, select bank0
	movwf	(_setpointUI)
	movlw	high(01AEAh)
	movwf	((_setpointUI))+1
	goto	i1l2876
	line	424
	
i1l188:	
	line	426
	
i1l2876:	
;main.c: 424: }
;main.c: 426: if (USART_ReceiveChar() == '8')
	fcall	_USART_ReceiveChar
	xorlw	038h
	skipz
	goto	u330_21
	goto	u330_20
u330_21:
	goto	i1l2880
u330_20:
	line	428
	
i1l2878:	
;main.c: 427: {
;main.c: 428: setpointUI = 8100;
	movlw	low(01FA4h)
	bcf	status, 5	;RP0=0, select bank0
	bcf	status, 6	;RP1=0, select bank0
	movwf	(_setpointUI)
	movlw	high(01FA4h)
	movwf	((_setpointUI))+1
	goto	i1l2880
	line	430
	
i1l189:	
	line	432
	
i1l2880:	
;main.c: 430: }
;main.c: 432: if (USART_ReceiveChar() == '9')
	fcall	_USART_ReceiveChar
	xorlw	039h
	skipz
	goto	u331_21
	goto	u331_20
u331_21:
	goto	i1l2884
u331_20:
	line	434
	
i1l2882:	
;main.c: 433: {
;main.c: 434: setpointUI = 9000;
	movlw	low(02328h)
	bcf	status, 5	;RP0=0, select bank0
	bcf	status, 6	;RP1=0, select bank0
	movwf	(_setpointUI)
	movlw	high(02328h)
	movwf	((_setpointUI))+1
	goto	i1l2884
	line	436
	
i1l190:	
	line	440
	
i1l2884:	
;main.c: 436: }
;main.c: 440: Fuzzy();
	fcall	_Fuzzy
	line	441
	
i1l2886:	
;main.c: 441: antigoUI = setpointUI;
	bcf	status, 5	;RP0=0, select bank0
	bcf	status, 6	;RP1=0, select bank0
	movf	(_setpointUI+1),w
	clrf	(_antigoUI+1)
	addwf	(_antigoUI+1)
	movf	(_setpointUI),w
	clrf	(_antigoUI)
	addwf	(_antigoUI)

	line	444
	
i1l2888:	
;main.c: 444: if(USART_ReceiveChar() == 'X')
	fcall	_USART_ReceiveChar
	xorlw	058h
	skipz
	goto	u332_21
	goto	u332_20
u332_21:
	goto	i1l2892
u332_20:
	line	446
	
i1l2890:	
;main.c: 445: {
;main.c: 446: send();
	fcall	_send
	goto	i1l2892
	line	447
	
i1l191:	
	line	449
	
i1l2892:	
;main.c: 447: }
;main.c: 449: PIR1bits.RCIF = 0;
	bcf	status, 5	;RP0=0, select bank0
	bcf	status, 6	;RP1=0, select bank0
	bcf	(12),5	;volatile
	goto	i1l2894
	line	450
	
i1l179:	
	line	453
	
i1l2894:	
;main.c: 450: }
;main.c: 453: if (PIR1bits.ADIF)
	btfss	(12),6	;volatile
	goto	u333_21
	goto	u333_20
u333_21:
	goto	i1l192
u333_20:
	line	458
	
i1l2896:	
;main.c: 454: {
;main.c: 458: PIR1bits.ADIF = 0;
	bcf	(12),6	;volatile
	line	459
	
i1l192:	
	line	463
;main.c: 459: }
;main.c: 463: if (INTCONbits.T0IF)
	btfss	(11),2	;volatile
	goto	u334_21
	goto	u334_20
u334_21:
	goto	i1l2922
u334_20:
	line	466
	
i1l2898:	
;main.c: 464: {
;main.c: 466: TIMER0_Set(238);
	movlw	(0EEh)
	fcall	i1_TIMER0_Set
	line	469
	
i1l2900:	
;main.c: 469: if (contagens_tm0 < 499)
	movlw	high(01F3h)
	bsf	status, 5	;RP0=1, select bank1
	bcf	status, 6	;RP1=0, select bank1
	subwf	(_contagens_tm0+1)^080h,w
	movlw	low(01F3h)
	skipnz
	subwf	(_contagens_tm0)^080h,w
	skipnc
	goto	u335_21
	goto	u335_20
u335_21:
	goto	i1l2906
u335_20:
	line	472
	
i1l2902:	
;main.c: 470: {
;main.c: 472: contagens_tm0++;
	movlw	low(01h)
	addwf	(_contagens_tm0)^080h,f
	skipnc
	incf	(_contagens_tm0+1)^080h,f
	movlw	high(01h)
	addwf	(_contagens_tm0+1)^080h,f
	line	475
	
i1l2904:	
;main.c: 475: PORTBbits.RB6 = 1;
	bcf	status, 5	;RP0=0, select bank0
	bcf	status, 6	;RP1=0, select bank0
	bsf	(6),6	;volatile
	line	476
;main.c: 476: }
	goto	i1l2920
	line	477
	
i1l194:	
	line	480
	
i1l2906:	
;main.c: 477: else
;main.c: 478: {
;main.c: 480: contagens_tm0 = 0;
	bsf	status, 5	;RP0=1, select bank1
	bcf	status, 6	;RP1=0, select bank1
	clrf	(_contagens_tm0)^080h
	clrf	(_contagens_tm0+1)^080h
	line	483
	
i1l2908:	
;main.c: 483: pulsos = (TMR1H << 8) + TMR1L;
	bcf	status, 5	;RP0=0, select bank0
	bcf	status, 6	;RP1=0, select bank0
	movf	(15),w	;volatile
	clrf	(_pulsos+1)
	addwf	(_pulsos+1)
	movf	(14),w	;volatile
	clrf	(_pulsos)
	addwf	(_pulsos)

	line	484
	
i1l2910:	
;main.c: 484: rpm = ((pulsos / pas_cooler) * 120);
	movf	(_pas_cooler+1),w
	clrf	(___lwdiv@divisor+1)
	addwf	(___lwdiv@divisor+1)
	movf	(_pas_cooler),w
	clrf	(___lwdiv@divisor)
	addwf	(___lwdiv@divisor)

	movf	(_pulsos+1),w
	clrf	(___lwdiv@dividend+1)
	addwf	(___lwdiv@dividend+1)
	movf	(_pulsos),w
	clrf	(___lwdiv@dividend)
	addwf	(___lwdiv@dividend)

	fcall	___lwdiv
	movf	(1+(?___lwdiv)),w
	clrf	(___wmul@multiplier+1)
	addwf	(___wmul@multiplier+1)
	movf	(0+(?___lwdiv)),w
	clrf	(___wmul@multiplier)
	addwf	(___wmul@multiplier)

	movlw	low(078h)
	movwf	(___wmul@multiplicand)
	movlw	high(078h)
	movwf	((___wmul@multiplicand))+1
	fcall	___wmul
	movf	(1+(?___wmul)),w
	bcf	status, 5	;RP0=0, select bank0
	bcf	status, 6	;RP1=0, select bank0
	clrf	(_rpm+1)
	addwf	(_rpm+1)
	movf	(0+(?___wmul)),w
	clrf	(_rpm)
	addwf	(_rpm)

	line	488
	
i1l2912:	
;main.c: 488: rpm = rpm / 40;
	movlw	low(028h)
	movwf	(___lwdiv@divisor)
	movlw	high(028h)
	movwf	((___lwdiv@divisor))+1
	movf	(_rpm+1),w
	clrf	(___lwdiv@dividend+1)
	addwf	(___lwdiv@dividend+1)
	movf	(_rpm),w
	clrf	(___lwdiv@dividend)
	addwf	(___lwdiv@dividend)

	fcall	___lwdiv
	movf	(1+(?___lwdiv)),w
	bcf	status, 5	;RP0=0, select bank0
	bcf	status, 6	;RP1=0, select bank0
	clrf	(_rpm+1)
	addwf	(_rpm+1)
	movf	(0+(?___lwdiv)),w
	clrf	(_rpm)
	addwf	(_rpm)

	line	491
	
i1l2914:	
;main.c: 491: TMR1L = 0x00;
	clrf	(14)	;volatile
	line	492
	
i1l2916:	
;main.c: 492: TMR1H = 0x00;
	clrf	(15)	;volatile
	line	495
	
i1l2918:	
;main.c: 495: PORTBbits.RB6 = 0;
	bcf	(6),6	;volatile
	goto	i1l2920
	line	496
	
i1l195:	
	line	499
	
i1l2920:	
;main.c: 496: }
;main.c: 499: INTCONbits.T0IF = 0;
	bcf	(11),2	;volatile
	goto	i1l2922
	line	500
	
i1l193:	
	line	503
	
i1l2922:	
;main.c: 500: }
;main.c: 503: if (PIR1bits.TMR1IF)
	btfss	(12),0	;volatile
	goto	u336_21
	goto	u336_20
u336_21:
	goto	i1l196
u336_20:
	line	508
	
i1l2924:	
;main.c: 504: {
;main.c: 508: PIR1bits.TMR1IF = 0;
	bcf	(12),0	;volatile
	line	509
	
i1l196:	
	line	512
;main.c: 509: }
;main.c: 512: if (PIR1bits.SSPIF)
	btfss	(12),3	;volatile
	goto	u337_21
	goto	u337_20
u337_21:
	goto	i1l181
u337_20:
	line	517
	
i1l2926:	
;main.c: 513: {
;main.c: 517: PIR1bits.SSPIF = 0;
	bcf	(12),3	;volatile
	goto	i1l181
	line	518
	
i1l197:	
	line	519
	
i1l181:	
	bcf	status, 5	;RP0=0, select bank0
	bcf	status, 6	;RP1=0, select bank0
	movf	(??_ISR+3),w
	movwf	btemp+1
	movf	(??_ISR+2),w
	movwf	pclath
	movf	(??_ISR+1),w
	movwf	fsr0
	swapf	(??_ISR+0)^00h,w
	movwf	status
	swapf	saved_w,f
	swapf	saved_w,w
	retfie
	opt stack 0
GLOBAL	__end_of_ISR
	__end_of_ISR:
	signat	_ISR,88
	global	i1_TIMER0_Set

;; *************** function i1_TIMER0_Set *****************
;; Defined at:
;;		line 20 in file "R:\Note\Sistema I\Ultimo C no MPLAB\timers.c"
;; Parameters:    Size  Location     Type
;;  contagens       1    wreg     unsigned char 
;; Auto vars:     Size  Location     Type
;;  contagens       1    0[COMMON] unsigned char 
;; Return value:  Size  Location     Type
;;		None               void
;; Registers used:
;;		wreg
;; Tracked objects:
;;		On entry : 0/0
;;		On exit  : 0/0
;;		Unchanged: 0/0
;; Data sizes:     COMMON   BANK0   BANK1   BANK3   BANK2
;;      Params:         0       0       0       0       0
;;      Locals:         1       0       0       0       0
;;      Temps:          0       0       0       0       0
;;      Totals:         1       0       0       0       0
;;Total ram usage:        1 bytes
;; Hardware stack levels used:    1
;; This function calls:
;;		Nothing
;; This function is called by:
;;		_ISR
;; This function uses a non-reentrant model
;;
psect	text16,local,class=CODE,delta=2,merge=1
	file	"R:\Note\Sistema I\Ultimo C no MPLAB\timers.c"
	line	20
global __ptext16
__ptext16:	;psect for function i1_TIMER0_Set
psect	text16
	file	"R:\Note\Sistema I\Ultimo C no MPLAB\timers.c"
	line	20
	global	__size_ofi1_TIMER0_Set
	__size_ofi1_TIMER0_Set	equ	__end_ofi1_TIMER0_Set-i1_TIMER0_Set
	
i1_TIMER0_Set:	
;incstack = 0
	opt	stack 4
; Regs used in i1_TIMER0_Set: [wreg]
;i1TIMER0_Set@contagens stored from wreg
	movwf	(i1TIMER0_Set@contagens)
	line	22
	
i1l2830:	
;timers.c: 22: TMR0 = contagens;
	movf	(i1TIMER0_Set@contagens),w
	bcf	status, 5	;RP0=0, select bank0
	bcf	status, 6	;RP1=0, select bank0
	movwf	(1)	;volatile
	line	23
	
i1l282:	
	return
	opt stack 0
GLOBAL	__end_ofi1_TIMER0_Set
	__end_ofi1_TIMER0_Set:
	signat	i1_TIMER0_Set,88
	global	_send

;; *************** function _send *****************
;; Defined at:
;;		line 105 in file "R:\Note\Sistema I\Ultimo C no MPLAB\main.c"
;; Parameters:    Size  Location     Type
;;		None
;; Auto vars:     Size  Location     Type
;;  index           1    4[BANK0 ] unsigned char 
;;  velocidade      2    2[BANK0 ] unsigned int 
;;  checksum        1    1[BANK0 ] unsigned char 
;; Return value:  Size  Location     Type
;;		None               void
;; Registers used:
;;		wreg, fsr0l, fsr0h, status,2, status,0, pclath, cstack
;; Tracked objects:
;;		On entry : 0/0
;;		On exit  : 0/0
;;		Unchanged: 0/0
;; Data sizes:     COMMON   BANK0   BANK1   BANK3   BANK2
;;      Params:         0       0       0       0       0
;;      Locals:         0       4       0       0       0
;;      Temps:          0       1       0       0       0
;;      Totals:         0       5       0       0       0
;;Total ram usage:        5 bytes
;; Hardware stack levels used:    1
;; Hardware stack levels required when called:    1
;; This function calls:
;;		_USART_WriteChar
;;		___wmul
;; This function is called by:
;;		_ISR
;; This function uses a non-reentrant model
;;
psect	text17,local,class=CODE,delta=2,merge=1
	file	"R:\Note\Sistema I\Ultimo C no MPLAB\main.c"
	line	105
global __ptext17
__ptext17:	;psect for function _send
psect	text17
	file	"R:\Note\Sistema I\Ultimo C no MPLAB\main.c"
	line	105
	global	__size_of_send
	__size_of_send	equ	__end_of_send-_send
	
_send:	
;incstack = 0
	opt	stack 3
; Regs used in _send: [wreg-fsr0h+status,2+status,0+pclath+cstack]
	line	108
	
i1l2488:	
;main.c: 108: buffer[0] = '#';
	movlw	(023h)
	bcf	status, 5	;RP0=0, select bank0
	bcf	status, 6	;RP1=0, select bank0
	movwf	(??_send+0)+0
	movf	(??_send+0)+0,w
	bsf	status, 5	;RP0=1, select bank3
	bsf	status, 6	;RP1=1, select bank3
	movwf	(_buffer)^0180h
	line	109
;main.c: 109: buffer[1] = '$';
	movlw	(024h)
	bcf	status, 5	;RP0=0, select bank0
	bcf	status, 6	;RP1=0, select bank0
	movwf	(??_send+0)+0
	movf	(??_send+0)+0,w
	bsf	status, 5	;RP0=1, select bank3
	bsf	status, 6	;RP1=1, select bank3
	movwf	0+(_buffer)^0180h+01h
	line	110
;main.c: 110: buffer[2] = ':';
	movlw	(03Ah)
	bcf	status, 5	;RP0=0, select bank0
	bcf	status, 6	;RP1=0, select bank0
	movwf	(??_send+0)+0
	movf	(??_send+0)+0,w
	bsf	status, 5	;RP0=1, select bank3
	bsf	status, 6	;RP1=1, select bank3
	movwf	0+(_buffer)^0180h+02h
	line	112
	
i1l2490:	
;main.c: 112: unsigned int velocidade = rpm * 40;
	bcf	status, 5	;RP0=0, select bank0
	bcf	status, 6	;RP1=0, select bank0
	movf	(_rpm+1),w
	clrf	(___wmul@multiplier+1)
	addwf	(___wmul@multiplier+1)
	movf	(_rpm),w
	clrf	(___wmul@multiplier)
	addwf	(___wmul@multiplier)

	movlw	low(028h)
	movwf	(___wmul@multiplicand)
	movlw	high(028h)
	movwf	((___wmul@multiplicand))+1
	fcall	___wmul
	movf	(1+(?___wmul)),w
	bcf	status, 5	;RP0=0, select bank0
	bcf	status, 6	;RP1=0, select bank0
	clrf	(send@velocidade+1)
	addwf	(send@velocidade+1)
	movf	(0+(?___wmul)),w
	clrf	(send@velocidade)
	addwf	(send@velocidade)

	line	114
	
i1l2492:	
;main.c: 114: buffer[3] = (velocidade >> 8) & 0xFF;
	movf	(send@velocidade+1),w
	movwf	(??_send+0)+0
	movf	(??_send+0)+0,w
	bsf	status, 5	;RP0=1, select bank3
	bsf	status, 6	;RP1=1, select bank3
	movwf	0+(_buffer)^0180h+03h
	line	115
	
i1l2494:	
;main.c: 115: buffer[4] = velocidade & 0xFF;
	bcf	status, 5	;RP0=0, select bank0
	bcf	status, 6	;RP1=0, select bank0
	movf	(send@velocidade),w
	movwf	(??_send+0)+0
	movf	(??_send+0)+0,w
	bsf	status, 5	;RP0=1, select bank3
	bsf	status, 6	;RP1=1, select bank3
	movwf	0+(_buffer)^0180h+04h
	line	116
	
i1l2496:	
;main.c: 116: buffer[5] = 'V';
	movlw	(056h)
	bcf	status, 5	;RP0=0, select bank0
	bcf	status, 6	;RP1=0, select bank0
	movwf	(??_send+0)+0
	movf	(??_send+0)+0,w
	bsf	status, 5	;RP0=1, select bank3
	bsf	status, 6	;RP1=1, select bank3
	movwf	0+(_buffer)^0180h+05h
	line	119
	
i1l2498:	
;main.c: 119: buffer[6] = (setpointUI >> 8) & 0xFF;
	bcf	status, 5	;RP0=0, select bank0
	bcf	status, 6	;RP1=0, select bank0
	movf	(_setpointUI+1),w
	movwf	(??_send+0)+0
	movf	(??_send+0)+0,w
	bsf	status, 5	;RP0=1, select bank3
	bsf	status, 6	;RP1=1, select bank3
	movwf	0+(_buffer)^0180h+06h
	line	120
	
i1l2500:	
;main.c: 120: buffer[7] = setpointUI & 0xFF;
	bcf	status, 5	;RP0=0, select bank0
	bcf	status, 6	;RP1=0, select bank0
	movf	(_setpointUI),w
	movwf	(??_send+0)+0
	movf	(??_send+0)+0,w
	bsf	status, 5	;RP0=1, select bank3
	bsf	status, 6	;RP1=1, select bank3
	movwf	0+(_buffer)^0180h+07h
	line	121
	
i1l2502:	
;main.c: 121: buffer[8] = 'S';
	movlw	(053h)
	bcf	status, 5	;RP0=0, select bank0
	bcf	status, 6	;RP1=0, select bank0
	movwf	(??_send+0)+0
	movf	(??_send+0)+0,w
	bsf	status, 5	;RP0=1, select bank3
	bsf	status, 6	;RP1=1, select bank3
	movwf	0+(_buffer)^0180h+08h
	line	124
	
i1l2504:	
;main.c: 124: buffer[9] = (deltaV >> 8) & 0xFF;
	bcf	status, 5	;RP0=0, select bank0
	bcf	status, 6	;RP1=0, select bank0
	movf	(_deltaV+1),w
	movwf	(??_send+0)+0
	movf	(??_send+0)+0,w
	bsf	status, 5	;RP0=1, select bank3
	bsf	status, 6	;RP1=1, select bank3
	movwf	0+(_buffer)^0180h+09h
	line	125
	
i1l2506:	
;main.c: 125: buffer[10] = deltaV & 0xFF;
	bcf	status, 5	;RP0=0, select bank0
	bcf	status, 6	;RP1=0, select bank0
	movf	(_deltaV),w
	movwf	(??_send+0)+0
	movf	(??_send+0)+0,w
	bsf	status, 5	;RP0=1, select bank3
	bsf	status, 6	;RP1=1, select bank3
	movwf	0+(_buffer)^0180h+0Ah
	line	126
	
i1l2508:	
;main.c: 126: buffer[11] = 'S';
	movlw	(053h)
	bcf	status, 5	;RP0=0, select bank0
	bcf	status, 6	;RP1=0, select bank0
	movwf	(??_send+0)+0
	movf	(??_send+0)+0,w
	bsf	status, 5	;RP0=1, select bank3
	bsf	status, 6	;RP1=1, select bank3
	movwf	0+(_buffer)^0180h+0Bh
	line	129
	
i1l2510:	
;main.c: 129: buffer[12] = (antigoUI >> 8) & 0xFF;
	bcf	status, 5	;RP0=0, select bank0
	bcf	status, 6	;RP1=0, select bank0
	movf	(_antigoUI+1),w
	movwf	(??_send+0)+0
	movf	(??_send+0)+0,w
	bsf	status, 5	;RP0=1, select bank3
	bsf	status, 6	;RP1=1, select bank3
	movwf	0+(_buffer)^0180h+0Ch
	line	130
	
i1l2512:	
;main.c: 130: buffer[13] = antigoUI & 0xFF;
	bcf	status, 5	;RP0=0, select bank0
	bcf	status, 6	;RP1=0, select bank0
	movf	(_antigoUI),w
	movwf	(??_send+0)+0
	movf	(??_send+0)+0,w
	bsf	status, 5	;RP0=1, select bank3
	bsf	status, 6	;RP1=1, select bank3
	movwf	0+(_buffer)^0180h+0Dh
	line	131
	
i1l2514:	
;main.c: 131: buffer[14] = 'S';
	movlw	(053h)
	bcf	status, 5	;RP0=0, select bank0
	bcf	status, 6	;RP1=0, select bank0
	movwf	(??_send+0)+0
	movf	(??_send+0)+0,w
	bsf	status, 5	;RP0=1, select bank3
	bsf	status, 6	;RP1=1, select bank3
	movwf	0+(_buffer)^0180h+0Eh
	line	133
	
i1l2516:	
;main.c: 133: unsigned char checksum = 0x00;
	bcf	status, 5	;RP0=0, select bank0
	bcf	status, 6	;RP1=0, select bank0
	clrf	(send@checksum)
	line	134
	
i1l2518:	
;main.c: 134: for (unsigned char index = 0; index < 15; index++)
	clrf	(send@index)
	
i1l2520:	
	movlw	(0Fh)
	subwf	(send@index),w
	skipc
	goto	u289_21
	goto	u289_20
u289_21:
	goto	i1l2524
u289_20:
	goto	i1l2532
	
i1l2522:	
	goto	i1l2532
	line	135
	
i1l133:	
	line	136
	
i1l2524:	
;main.c: 135: {
;main.c: 136: USART_WriteChar(buffer[index]);
	movf	(send@index),w
	addlw	_buffer&0ffh
	movwf	fsr0
	bsf	status, 7	;select IRP bank3
	movf	indf,w
	fcall	_USART_WriteChar
	line	137
	
i1l2526:	
;main.c: 137: checksum ^= buffer[index];
	bcf	status, 5	;RP0=0, select bank0
	bcf	status, 6	;RP1=0, select bank0
	movf	(send@index),w
	addlw	_buffer&0ffh
	movwf	fsr0
	bsf	status, 7	;select IRP bank3
	movf	indf,w
	movwf	(??_send+0)+0
	movf	(??_send+0)+0,w
	xorwf	(send@checksum),f
	line	134
	
i1l2528:	
	movlw	(01h)
	movwf	(??_send+0)+0
	movf	(??_send+0)+0,w
	addwf	(send@index),f
	
i1l2530:	
	movlw	(0Fh)
	subwf	(send@index),w
	skipc
	goto	u290_21
	goto	u290_20
u290_21:
	goto	i1l2524
u290_20:
	goto	i1l2532
	
i1l134:	
	line	139
	
i1l2532:	
;main.c: 138: }
;main.c: 139: buffer[15] = checksum;
	movf	(send@checksum),w
	movwf	(??_send+0)+0
	movf	(??_send+0)+0,w
	bsf	status, 5	;RP0=1, select bank3
	bsf	status, 6	;RP1=1, select bank3
	movwf	0+(_buffer)^0180h+0Fh
	line	140
	
i1l2534:	
;main.c: 140: USART_WriteChar(buffer[15]);
	movf	0+(_buffer)^0180h+0Fh,w
	fcall	_USART_WriteChar
	line	141
	
i1l135:	
	return
	opt stack 0
GLOBAL	__end_of_send
	__end_of_send:
	signat	_send,88
	global	___wmul

;; *************** function ___wmul *****************
;; Defined at:
;;		line 15 in file "C:\Program Files (x86)\Microchip\xc8\v1.33\sources\common\Umul16.c"
;; Parameters:    Size  Location     Type
;;  multiplier      2    8[COMMON] unsigned int 
;;  multiplicand    2   10[COMMON] unsigned int 
;; Auto vars:     Size  Location     Type
;;  product         2   12[COMMON] unsigned int 
;; Return value:  Size  Location     Type
;;                  2    8[COMMON] unsigned int 
;; Registers used:
;;		wreg, status,2, status,0
;; Tracked objects:
;;		On entry : 0/0
;;		On exit  : 0/0
;;		Unchanged: 0/0
;; Data sizes:     COMMON   BANK0   BANK1   BANK3   BANK2
;;      Params:         4       0       0       0       0
;;      Locals:         2       0       0       0       0
;;      Temps:          0       0       0       0       0
;;      Totals:         6       0       0       0       0
;;Total ram usage:        6 bytes
;; Hardware stack levels used:    1
;; This function calls:
;;		Nothing
;; This function is called by:
;;		_send
;;		_ISR
;; This function uses a non-reentrant model
;;
psect	text18,local,class=CODE,delta=2,merge=1
	file	"C:\Program Files (x86)\Microchip\xc8\v1.33\sources\common\Umul16.c"
	line	15
global __ptext18
__ptext18:	;psect for function ___wmul
psect	text18
	file	"C:\Program Files (x86)\Microchip\xc8\v1.33\sources\common\Umul16.c"
	line	15
	global	__size_of___wmul
	__size_of___wmul	equ	__end_of___wmul-___wmul
	
___wmul:	
;incstack = 0
	opt	stack 3
; Regs used in ___wmul: [wreg+status,2+status,0]
	line	43
	
i1l2296:	
	clrf	(___wmul@product)
	clrf	(___wmul@product+1)
	goto	i1l2298
	line	44
	
i1l544:	
	line	45
	
i1l2298:	
	btfss	(___wmul@multiplier),(0)&7
	goto	u242_21
	goto	u242_20
u242_21:
	goto	i1l545
u242_20:
	line	46
	
i1l2300:	
	movf	(___wmul@multiplicand),w
	addwf	(___wmul@product),f
	skipnc
	incf	(___wmul@product+1),f
	movf	(___wmul@multiplicand+1),w
	addwf	(___wmul@product+1),f
	
i1l545:	
	line	47
	movlw	01h
	
u243_25:
	clrc
	rlf	(___wmul@multiplicand),f
	rlf	(___wmul@multiplicand+1),f
	addlw	-1
	skipz
	goto	u243_25
	line	48
	
i1l2302:	
	movlw	01h
	
u244_25:
	clrc
	rrf	(___wmul@multiplier+1),f
	rrf	(___wmul@multiplier),f
	addlw	-1
	skipz
	goto	u244_25
	line	49
	movf	((___wmul@multiplier+1)),w
	iorwf	((___wmul@multiplier)),w
	skipz
	goto	u245_21
	goto	u245_20
u245_21:
	goto	i1l2298
u245_20:
	goto	i1l2304
	
i1l546:	
	line	52
	
i1l2304:	
	movf	(___wmul@product+1),w
	clrf	(?___wmul+1)
	addwf	(?___wmul+1)
	movf	(___wmul@product),w
	clrf	(?___wmul)
	addwf	(?___wmul)

	goto	i1l547
	
i1l2306:	
	line	53
	
i1l547:	
	return
	opt stack 0
GLOBAL	__end_of___wmul
	__end_of___wmul:
	signat	___wmul,8314
	global	_USART_ReceiveChar

;; *************** function _USART_ReceiveChar *****************
;; Defined at:
;;		line 63 in file "R:\Note\Sistema I\Ultimo C no MPLAB\usart.c"
;; Parameters:    Size  Location     Type
;;		None
;; Auto vars:     Size  Location     Type
;;  byte            1    4[COMMON] unsigned char 
;; Return value:  Size  Location     Type
;;                  1    wreg      unsigned char 
;; Registers used:
;;		wreg, fsr0l, fsr0h, status,2, status,0, pclath, cstack
;; Tracked objects:
;;		On entry : 0/0
;;		On exit  : 0/0
;;		Unchanged: 0/0
;; Data sizes:     COMMON   BANK0   BANK1   BANK3   BANK2
;;      Params:         0       0       0       0       0
;;      Locals:         1       0       0       0       0
;;      Temps:          1       0       0       0       0
;;      Totals:         2       0       0       0       0
;;Total ram usage:        2 bytes
;; Hardware stack levels used:    1
;; Hardware stack levels required when called:    2
;; This function calls:
;;		_USART_WriteString
;; This function is called by:
;;		_ISR
;; This function uses a non-reentrant model
;;
psect	text19,local,class=CODE,delta=2,merge=1
	file	"R:\Note\Sistema I\Ultimo C no MPLAB\usart.c"
	line	63
global __ptext19
__ptext19:	;psect for function _USART_ReceiveChar
psect	text19
	file	"R:\Note\Sistema I\Ultimo C no MPLAB\usart.c"
	line	63
	global	__size_of_USART_ReceiveChar
	__size_of_USART_ReceiveChar	equ	__end_of_USART_ReceiveChar-_USART_ReceiveChar
	
_USART_ReceiveChar:	
;incstack = 0
	opt	stack 2
; Regs used in _USART_ReceiveChar: [wreg-fsr0h+status,2+status,0+pclath+cstack]
	line	67
	
i1l2676:	
;usart.c: 65: unsigned char byte;
;usart.c: 67: if (!OERR)
	bcf	status, 5	;RP0=0, select bank0
	bcf	status, 6	;RP1=0, select bank0
	btfsc	(193/8),(193)&7	;volatile
	goto	u316_21
	goto	u316_20
u316_21:
	goto	i1l2682
u316_20:
	line	69
	
i1l2678:	
;usart.c: 68: {
;usart.c: 69: byte = RCREG;
	movf	(26),w	;volatile
	movwf	(??_USART_ReceiveChar+0)+0
	movf	(??_USART_ReceiveChar+0)+0,w
	movwf	(USART_ReceiveChar@byte)
	line	70
	
i1l2680:	
;usart.c: 70: PIR1bits.RCIF = 0;
	bcf	(12),5	;volatile
	line	71
;usart.c: 71: }
	goto	i1l2692
	line	72
	
i1l237:	
	line	74
	
i1l2682:	
;usart.c: 72: else
;usart.c: 73: {
;usart.c: 74: USART_WriteString("\n\r ------- ESTOURO DE PILHA ------- \n\r ");
	movlw	((STR_4)-__stringbase)&0ffh
	fcall	_USART_WriteString
	line	76
	
i1l2684:	
;usart.c: 76: RCSTAbits.CREN = 0;
	bcf	status, 5	;RP0=0, select bank0
	bcf	status, 6	;RP1=0, select bank0
	bcf	(24),4	;volatile
	line	77
	
i1l2686:	
;usart.c: 77: byte = RCREG;
	movf	(26),w	;volatile
	movwf	(??_USART_ReceiveChar+0)+0
	movf	(??_USART_ReceiveChar+0)+0,w
	movwf	(USART_ReceiveChar@byte)
	line	78
	
i1l2688:	
;usart.c: 78: RCSTAbits.CREN = 1;
	bsf	(24),4	;volatile
	line	79
	
i1l2690:	
;usart.c: 79: PIR1bits.RCIF = 0;
	bcf	(12),5	;volatile
	goto	i1l2692
	line	80
	
i1l238:	
	line	82
	
i1l2692:	
;usart.c: 80: }
;usart.c: 82: return(byte);
	movf	(USART_ReceiveChar@byte),w
	goto	i1l239
	
i1l2694:	
	line	83
	
i1l239:	
	return
	opt stack 0
GLOBAL	__end_of_USART_ReceiveChar
	__end_of_USART_ReceiveChar:
	signat	_USART_ReceiveChar,89
	global	_USART_WriteString

;; *************** function _USART_WriteString *****************
;; Defined at:
;;		line 52 in file "R:\Note\Sistema I\Ultimo C no MPLAB\usart.c"
;; Parameters:    Size  Location     Type
;;  str             1    wreg     PTR const unsigned char 
;;		 -> STR_4(40), STR_1(14), 
;; Auto vars:     Size  Location     Type
;;  str             1    2[COMMON] PTR const unsigned char 
;;		 -> STR_4(40), STR_1(14), 
;; Return value:  Size  Location     Type
;;		None               void
;; Registers used:
;;		wreg, fsr0l, fsr0h, status,2, status,0, pclath, cstack
;; Tracked objects:
;;		On entry : 0/0
;;		On exit  : 0/0
;;		Unchanged: 0/0
;; Data sizes:     COMMON   BANK0   BANK1   BANK3   BANK2
;;      Params:         0       0       0       0       0
;;      Locals:         1       0       0       0       0
;;      Temps:          1       0       0       0       0
;;      Totals:         2       0       0       0       0
;;Total ram usage:        2 bytes
;; Hardware stack levels used:    1
;; Hardware stack levels required when called:    1
;; This function calls:
;;		_USART_WriteChar
;; This function is called by:
;;		_ISR
;;		_USART_ReceiveChar
;; This function uses a non-reentrant model
;;
psect	text20,local,class=CODE,delta=2,merge=1
	line	52
global __ptext20
__ptext20:	;psect for function _USART_WriteString
psect	text20
	file	"R:\Note\Sistema I\Ultimo C no MPLAB\usart.c"
	line	52
	global	__size_of_USART_WriteString
	__size_of_USART_WriteString	equ	__end_of_USART_WriteString-_USART_WriteString
	
_USART_WriteString:	
;incstack = 0
	opt	stack 3
; Regs used in _USART_WriteString: [wreg-fsr0h+status,2+status,0+pclath+cstack]
;USART_WriteString@str stored from wreg
	movwf	(USART_WriteString@str)
	line	54
	
i1l2272:	
;usart.c: 54: while(*str != '\0')
	goto	i1l2278
	
i1l232:	
	line	56
	
i1l2274:	
;usart.c: 55: {
;usart.c: 56: USART_WriteChar(*str);
	movf	(USART_WriteString@str),w
	movwf	fsr0
	fcall	stringdir
	fcall	_USART_WriteChar
	line	57
	
i1l2276:	
;usart.c: 57: str++;
	movlw	(01h)
	movwf	(??_USART_WriteString+0)+0
	movf	(??_USART_WriteString+0)+0,w
	addwf	(USART_WriteString@str),f
	goto	i1l2278
	line	58
	
i1l231:	
	line	54
	
i1l2278:	
	movf	(USART_WriteString@str),w
	movwf	fsr0
	fcall	stringdir
	iorlw	0
	skipz
	goto	u241_21
	goto	u241_20
u241_21:
	goto	i1l2274
u241_20:
	goto	i1l234
	
i1l233:	
	line	59
	
i1l234:	
	return
	opt stack 0
GLOBAL	__end_of_USART_WriteString
	__end_of_USART_WriteString:
	signat	_USART_WriteString,4216
	global	_USART_WriteChar

;; *************** function _USART_WriteChar *****************
;; Defined at:
;;		line 44 in file "R:\Note\Sistema I\Ultimo C no MPLAB\usart.c"
;; Parameters:    Size  Location     Type
;;  byte            1    wreg     unsigned char 
;; Auto vars:     Size  Location     Type
;;  byte            1    0[COMMON] unsigned char 
;; Return value:  Size  Location     Type
;;		None               void
;; Registers used:
;;		wreg
;; Tracked objects:
;;		On entry : 0/0
;;		On exit  : 0/0
;;		Unchanged: 0/0
;; Data sizes:     COMMON   BANK0   BANK1   BANK3   BANK2
;;      Params:         0       0       0       0       0
;;      Locals:         1       0       0       0       0
;;      Temps:          0       0       0       0       0
;;      Totals:         1       0       0       0       0
;;Total ram usage:        1 bytes
;; Hardware stack levels used:    1
;; This function calls:
;;		Nothing
;; This function is called by:
;;		_send
;;		_USART_WriteString
;; This function uses a non-reentrant model
;;
psect	text21,local,class=CODE,delta=2,merge=1
	line	44
global __ptext21
__ptext21:	;psect for function _USART_WriteChar
psect	text21
	file	"R:\Note\Sistema I\Ultimo C no MPLAB\usart.c"
	line	44
	global	__size_of_USART_WriteChar
	__size_of_USART_WriteChar	equ	__end_of_USART_WriteChar-_USART_WriteChar
	
_USART_WriteChar:	
;incstack = 0
	opt	stack 3
; Regs used in _USART_WriteChar: [wreg]
;USART_WriteChar@byte stored from wreg
	movwf	(USART_WriteChar@byte)
	line	46
	
i1l2062:	
;usart.c: 46: while(!PIR1bits.TXIF);
	goto	i1l225
	
i1l226:	
	
i1l225:	
	bcf	status, 5	;RP0=0, select bank0
	bcf	status, 6	;RP1=0, select bank0
	btfss	(12),4	;volatile
	goto	u187_21
	goto	u187_20
u187_21:
	goto	i1l225
u187_20:
	goto	i1l2064
	
i1l227:	
	line	47
	
i1l2064:	
;usart.c: 47: TXREG = byte;
	movf	(USART_WriteChar@byte),w
	movwf	(25)	;volatile
	line	48
	
i1l228:	
	return
	opt stack 0
GLOBAL	__end_of_USART_WriteChar
	__end_of_USART_WriteChar:
	signat	_USART_WriteChar,4216
	global	_Fuzzy

;; *************** function _Fuzzy *****************
;; Defined at:
;;		line 165 in file "R:\Note\Sistema I\Ultimo C no MPLAB\main.c"
;; Parameters:    Size  Location     Type
;;		None
;; Auto vars:     Size  Location     Type
;;  a               2    9[BANK1 ] int 
;;  a               2    7[BANK1 ] int 
;;  a               2    5[BANK1 ] int 
;;  aumenta         3   17[BANK1 ] float 
;;  reduz           3   14[BANK1 ] float 
;;  mantem          3   11[BANK1 ] float 
;;  tip             3    2[BANK1 ] float 
;;  deltaFuzzy      3    0        float 
;;  freio           2    0[BANK1 ] unsigned int 
;; Return value:  Size  Location     Type
;;		None               void
;; Registers used:
;;		wreg, status,2, status,0, btemp+1, pclath, cstack
;; Tracked objects:
;;		On entry : 0/0
;;		On exit  : 0/0
;;		Unchanged: 0/0
;; Data sizes:     COMMON   BANK0   BANK1   BANK3   BANK2
;;      Params:         0       0       0       0       0
;;      Locals:         0       0      20       0       0
;;      Temps:          0       2       0       0       0
;;      Totals:         0       2      20       0       0
;;Total ram usage:       22 bytes
;; Hardware stack levels used:    1
;; Hardware stack levels required when called:    3
;; This function calls:
;;		___awtoft
;;		___ftadd
;;		___ftdiv
;;		___ftge
;;		___ftmul
;;		___fttol
;;		___lwdiv
;;		___lwtoft
;;		_max_val
;;		_trapmf
;;		_trimf
;;		i1_PWM_DutyCycle2
;; This function is called by:
;;		_ISR
;; This function uses a non-reentrant model
;;
psect	text22,local,class=CODE,delta=2,merge=1
	file	"R:\Note\Sistema I\Ultimo C no MPLAB\main.c"
	line	165
global __ptext22
__ptext22:	;psect for function _Fuzzy
psect	text22
	file	"R:\Note\Sistema I\Ultimo C no MPLAB\main.c"
	line	165
	global	__size_of_Fuzzy
	__size_of_Fuzzy	equ	__end_of_Fuzzy-_Fuzzy
	
_Fuzzy:	
;incstack = 0
	opt	stack 1
; Regs used in _Fuzzy: [wreg+status,2+status,0+btemp+1+pclath+cstack]
	line	178
	
i1l2536:	
;main.c: 178: unsigned int freio = 0;
	bsf	status, 5	;RP0=1, select bank1
	bcf	status, 6	;RP1=0, select bank1
	clrf	(Fuzzy@freio)^080h
	clrf	(Fuzzy@freio+1)^080h
	line	185
	
i1l2538:	
;main.c: 179: float deltaFuzzy;
;main.c: 185: float mantem = 0;
	movlw	0x0
	movwf	(Fuzzy@mantem)^080h
	movlw	0x0
	movwf	(Fuzzy@mantem+1)^080h
	movlw	0x0
	movwf	(Fuzzy@mantem+2)^080h
	line	186
	
i1l2540:	
;main.c: 186: float reduz = 0;
	movlw	0x0
	movwf	(Fuzzy@reduz)^080h
	movlw	0x0
	movwf	(Fuzzy@reduz+1)^080h
	movlw	0x0
	movwf	(Fuzzy@reduz+2)^080h
	line	187
	
i1l2542:	
;main.c: 187: float aumenta = 0;
	movlw	0x0
	movwf	(Fuzzy@aumenta)^080h
	movlw	0x0
	movwf	(Fuzzy@aumenta+1)^080h
	movlw	0x0
	movwf	(Fuzzy@aumenta+2)^080h
	line	189
	
i1l2544:	
;main.c: 188: float tip;
;main.c: 189: fitemp = 0;
	movlw	0x0
	movwf	(_fitemp)^080h
	movlw	0x0
	movwf	(_fitemp+1)^080h
	movlw	0x0
	movwf	(_fitemp+2)^080h
	line	192
	
i1l2546:	
;main.c: 192: if (setpointUI == antigoUI)
	bcf	status, 5	;RP0=0, select bank0
	bcf	status, 6	;RP1=0, select bank0
	movf	(_antigoUI+1),w
	xorwf	(_setpointUI+1),w
	skipz
	goto	u291_25
	movf	(_antigoUI),w
	xorwf	(_setpointUI),w
u291_25:

	skipz
	goto	u291_21
	goto	u291_20
u291_21:
	goto	i1l2550
u291_20:
	goto	i1l149
	line	194
	
i1l2548:	
;main.c: 193: {
;main.c: 194: return;
	goto	i1l149
	line	195
	
i1l148:	
	line	197
	
i1l2550:	
;main.c: 195: }
;main.c: 197: deltaV = (setpointUI - antigoUI)/50;
	movlw	low(032h)
	movwf	(___lwdiv@divisor)
	movlw	high(032h)
	movwf	((___lwdiv@divisor))+1
	comf	(_antigoUI),w
	movwf	(??_Fuzzy+0)+0
	comf	(_antigoUI+1),w
	movwf	((??_Fuzzy+0)+0+1)
	incf	(??_Fuzzy+0)+0,f
	skipnz
	incf	((??_Fuzzy+0)+0+1),f
	movf	(_setpointUI),w
	addwf	0+(??_Fuzzy+0)+0,w
	movwf	(___lwdiv@dividend)
	movf	(_setpointUI+1),w
	skipnc
	incf	(_setpointUI+1),w
	addwf	1+(??_Fuzzy+0)+0,w
	movwf	1+(___lwdiv@dividend)
	fcall	___lwdiv
	movf	(1+(?___lwdiv)),w
	bcf	status, 5	;RP0=0, select bank0
	bcf	status, 6	;RP1=0, select bank0
	clrf	(_deltaV+1)
	addwf	(_deltaV+1)
	movf	(0+(?___lwdiv)),w
	clrf	(_deltaV)
	addwf	(_deltaV)

	line	200
	
i1l2552:	
;main.c: 200: if (setpointUI < antigoUI)
	movf	(_antigoUI+1),w
	subwf	(_setpointUI+1),w
	skipz
	goto	u292_25
	movf	(_antigoUI),w
	subwf	(_setpointUI),w
u292_25:
	skipnc
	goto	u292_21
	goto	u292_20
u292_21:
	goto	i1l150
u292_20:
	line	202
	
i1l2554:	
;main.c: 201: {
;main.c: 202: if(PORTBbits.RB1 == 1)
	btfss	(6),1	;volatile
	goto	u293_21
	goto	u293_20
u293_21:
	goto	i1l151
u293_20:
	line	204
	
i1l2556:	
;main.c: 203: {
;main.c: 204: PORTBbits.RB1 = 0;
	bcf	(6),1	;volatile
	line	205
;main.c: 205: }else{
	goto	i1l2558
	
i1l151:	
	line	206
;main.c: 206: PORTBbits.RB1 = 1;
	bsf	(6),1	;volatile
	goto	i1l2558
	line	207
	
i1l152:	
	line	209
	
i1l2558:	
;main.c: 207: }
;main.c: 209: freio = 1;
	movlw	low(01h)
	bsf	status, 5	;RP0=1, select bank1
	bcf	status, 6	;RP1=0, select bank1
	movwf	(Fuzzy@freio)^080h
	movlw	high(01h)
	movwf	((Fuzzy@freio)^080h)+1
	line	210
	
i1l150:	
	line	212
;main.c: 210: }
;main.c: 212: if (deltaV >90) deltaV = 90;
	movlw	high(05Bh)
	bcf	status, 5	;RP0=0, select bank0
	subwf	(_deltaV+1),w
	movlw	low(05Bh)
	skipnz
	subwf	(_deltaV),w
	skipc
	goto	u294_21
	goto	u294_20
u294_21:
	goto	i1l153
u294_20:
	
i1l2560:	
	movlw	low(05Ah)
	movwf	(_deltaV)
	movlw	high(05Ah)
	movwf	((_deltaV))+1
	
i1l153:	
	line	217
;main.c: 217: if (deltaV < 20)
	movlw	high(014h)
	subwf	(_deltaV+1),w
	movlw	low(014h)
	skipnz
	subwf	(_deltaV),w
	skipnc
	goto	u295_21
	goto	u295_20
u295_21:
	goto	i1l2586
u295_20:
	line	222
	
i1l2562:	
;main.c: 218: {
;main.c: 222: fitemp = trapmf(deltaV, 0,0,13,32);
	movf	(_deltaV+1),w
	clrf	(___lwtoft@c+1)
	addwf	(___lwtoft@c+1)
	movf	(_deltaV),w
	clrf	(___lwtoft@c)
	addwf	(___lwtoft@c)

	fcall	___lwtoft
	movf	(0+(?___lwtoft)),w
	bcf	status, 5	;RP0=0, select bank0
	bcf	status, 6	;RP1=0, select bank0
	movwf	(trapmf@x)
	movf	(1+(?___lwtoft)),w
	movwf	(trapmf@x+1)
	movf	(2+(?___lwtoft)),w
	movwf	(trapmf@x+2)
	movlw	0x0
	movwf	(trapmf@a)
	movlw	0x0
	movwf	(trapmf@a+1)
	movlw	0x0
	movwf	(trapmf@a+2)
	movlw	0x0
	movwf	(trapmf@b)
	movlw	0x0
	movwf	(trapmf@b+1)
	movlw	0x0
	movwf	(trapmf@b+2)
	movlw	0x0
	movwf	(trapmf@c)
	movlw	0x50
	movwf	(trapmf@c+1)
	movlw	0x41
	movwf	(trapmf@c+2)
	movlw	0x0
	movwf	(trapmf@d)
	movlw	0x0
	movwf	(trapmf@d+1)
	movlw	0x42
	movwf	(trapmf@d+2)
	fcall	_trapmf
	bcf	status, 5	;RP0=0, select bank0
	bcf	status, 6	;RP1=0, select bank0
	movf	(0+(?_trapmf)),w
	bsf	status, 5	;RP0=1, select bank1
	bcf	status, 6	;RP1=0, select bank1
	movwf	(_fitemp)^080h
	bcf	status, 5	;RP0=0, select bank0
	bcf	status, 6	;RP1=0, select bank0
	movf	(1+(?_trapmf)),w
	bsf	status, 5	;RP0=1, select bank1
	bcf	status, 6	;RP1=0, select bank1
	movwf	(_fitemp+1)^080h
	bcf	status, 5	;RP0=0, select bank0
	bcf	status, 6	;RP1=0, select bank0
	movf	(2+(?_trapmf)),w
	bsf	status, 5	;RP0=1, select bank1
	bcf	status, 6	;RP1=0, select bank1
	movwf	(_fitemp+2)^080h
	line	225
;main.c: 225: fop_rule1 = max_val(fitemp,0.1);
	movf	(_fitemp)^080h,w
	bcf	status, 5	;RP0=0, select bank0
	bcf	status, 6	;RP1=0, select bank0
	movwf	(max_val@a)
	bsf	status, 5	;RP0=1, select bank1
	bcf	status, 6	;RP1=0, select bank1
	movf	(_fitemp+1)^080h,w
	bcf	status, 5	;RP0=0, select bank0
	bcf	status, 6	;RP1=0, select bank0
	movwf	(max_val@a+1)
	bsf	status, 5	;RP0=1, select bank1
	bcf	status, 6	;RP1=0, select bank1
	movf	(_fitemp+2)^080h,w
	bcf	status, 5	;RP0=0, select bank0
	bcf	status, 6	;RP1=0, select bank0
	movwf	(max_val@a+2)
	movlw	0xcd
	movwf	(max_val@b)
	movlw	0xcc
	movwf	(max_val@b+1)
	movlw	0x3d
	movwf	(max_val@b+2)
	fcall	_max_val
	bcf	status, 5	;RP0=0, select bank0
	bcf	status, 6	;RP1=0, select bank0
	movf	(0+(?_max_val)),w
	bsf	status, 5	;RP0=1, select bank1
	bcf	status, 6	;RP1=0, select bank1
	movwf	(_fop_rule1)^080h
	bcf	status, 5	;RP0=0, select bank0
	bcf	status, 6	;RP1=0, select bank0
	movf	(1+(?_max_val)),w
	bsf	status, 5	;RP0=1, select bank1
	bcf	status, 6	;RP1=0, select bank1
	movwf	(_fop_rule1+1)^080h
	bcf	status, 5	;RP0=0, select bank0
	bcf	status, 6	;RP1=0, select bank0
	movf	(2+(?_max_val)),w
	bsf	status, 5	;RP0=1, select bank1
	bcf	status, 6	;RP1=0, select bank1
	movwf	(_fop_rule1+2)^080h
	line	228
	
i1l2564:	
;main.c: 228: x=0;
	clrf	(_x)^080h
	clrf	(_x+1)^080h
	line	229
	
i1l2566:	
;main.c: 229: y=0;
	clrf	(_y)^080h
	clrf	(_y+1)^080h
	line	230
	
i1l2568:	
;main.c: 230: for (int a=0; a<=90; a++)
	clrf	(Fuzzy@a)^080h
	clrf	(Fuzzy@a+1)^080h
	
i1l2570:	
	movf	(Fuzzy@a+1)^080h,w
	xorlw	80h
	movwf	btemp+1
	movlw	(high(05Bh))^80h
	subwf	btemp+1,w
	skipz
	goto	u296_25
	movlw	low(05Bh)
	subwf	(Fuzzy@a)^080h,w
u296_25:

	skipc
	goto	u296_21
	goto	u296_20
u296_21:
	goto	i1l2574
u296_20:
	goto	i1l2586
	
i1l2572:	
	goto	i1l2586
	line	231
	
i1l155:	
	line	232
	
i1l2574:	
;main.c: 231: {
;main.c: 232: y = trapmf(x,0,0,13,32);
	movlw	0x0
	bcf	status, 5	;RP0=0, select bank0
	bcf	status, 6	;RP1=0, select bank0
	movwf	(trapmf@d)
	movlw	0x0
	movwf	(trapmf@d+1)
	movlw	0x42
	movwf	(trapmf@d+2)
	movlw	0x0
	movwf	(trapmf@c)
	movlw	0x50
	movwf	(trapmf@c+1)
	movlw	0x41
	movwf	(trapmf@c+2)
	movlw	0x0
	movwf	(trapmf@b)
	movlw	0x0
	movwf	(trapmf@b+1)
	movlw	0x0
	movwf	(trapmf@b+2)
	movlw	0x0
	movwf	(trapmf@a)
	movlw	0x0
	movwf	(trapmf@a+1)
	movlw	0x0
	movwf	(trapmf@a+2)
	bsf	status, 5	;RP0=1, select bank1
	bcf	status, 6	;RP1=0, select bank1
	movf	(_x+1)^080h,w
	clrf	(___awtoft@c+1)
	addwf	(___awtoft@c+1)
	movf	(_x)^080h,w
	clrf	(___awtoft@c)
	addwf	(___awtoft@c)

	fcall	___awtoft
	movf	(0+(?___awtoft)),w
	bcf	status, 5	;RP0=0, select bank0
	bcf	status, 6	;RP1=0, select bank0
	movwf	(trapmf@x)
	movf	(1+(?___awtoft)),w
	movwf	(trapmf@x+1)
	movf	(2+(?___awtoft)),w
	movwf	(trapmf@x+2)
	fcall	_trapmf
	bcf	status, 5	;RP0=0, select bank0
	bcf	status, 6	;RP1=0, select bank0
	movf	(0+(?_trapmf)),w
	movwf	(___fttol@f1)
	movf	(1+(?_trapmf)),w
	movwf	(___fttol@f1+1)
	movf	(2+(?_trapmf)),w
	movwf	(___fttol@f1+2)
	fcall	___fttol
	bcf	status, 5	;RP0=0, select bank0
	bcf	status, 6	;RP1=0, select bank0
	movf	1+(((0+(?___fttol)))),w
	bsf	status, 5	;RP0=1, select bank1
	bcf	status, 6	;RP1=0, select bank1
	clrf	(_y+1)^080h
	addwf	(_y+1)^080h
	bcf	status, 5	;RP0=0, select bank0
	bcf	status, 6	;RP1=0, select bank0
	movf	0+(((0+(?___fttol)))),w
	bsf	status, 5	;RP0=1, select bank1
	bcf	status, 6	;RP1=0, select bank1
	clrf	(_y)^080h
	addwf	(_y)^080h

	line	234
;main.c: 234: if (y > fop_rule1)
	movf	(_fop_rule1)^080h,w
	bcf	status, 5	;RP0=0, select bank0
	bcf	status, 6	;RP1=0, select bank0
	movwf	(___ftge@ff1)
	bsf	status, 5	;RP0=1, select bank1
	bcf	status, 6	;RP1=0, select bank1
	movf	(_fop_rule1+1)^080h,w
	bcf	status, 5	;RP0=0, select bank0
	bcf	status, 6	;RP1=0, select bank0
	movwf	(___ftge@ff1+1)
	bsf	status, 5	;RP0=1, select bank1
	bcf	status, 6	;RP1=0, select bank1
	movf	(_fop_rule1+2)^080h,w
	bcf	status, 5	;RP0=0, select bank0
	bcf	status, 6	;RP1=0, select bank0
	movwf	(___ftge@ff1+2)
	bsf	status, 5	;RP0=1, select bank1
	bcf	status, 6	;RP1=0, select bank1
	movf	(_y+1)^080h,w
	clrf	(___awtoft@c+1)
	addwf	(___awtoft@c+1)
	movf	(_y)^080h,w
	clrf	(___awtoft@c)
	addwf	(___awtoft@c)

	fcall	___awtoft
	movf	(0+(?___awtoft)),w
	bcf	status, 5	;RP0=0, select bank0
	bcf	status, 6	;RP1=0, select bank0
	movwf	(___ftge@ff2)
	movf	(1+(?___awtoft)),w
	movwf	(___ftge@ff2+1)
	movf	(2+(?___awtoft)),w
	movwf	(___ftge@ff2+2)
	fcall	___ftge
	btfsc	status,0
	goto	u297_21
	goto	u297_20
u297_21:
	goto	i1l2578
u297_20:
	line	236
	
i1l2576:	
;main.c: 235: {
;main.c: 236: reduz += fop_rule1;
	bsf	status, 5	;RP0=1, select bank1
	bcf	status, 6	;RP1=0, select bank1
	movf	(_fop_rule1)^080h,w
	bcf	status, 5	;RP0=0, select bank0
	bcf	status, 6	;RP1=0, select bank0
	movwf	(___ftadd@f1)
	bsf	status, 5	;RP0=1, select bank1
	bcf	status, 6	;RP1=0, select bank1
	movf	(_fop_rule1+1)^080h,w
	bcf	status, 5	;RP0=0, select bank0
	bcf	status, 6	;RP1=0, select bank0
	movwf	(___ftadd@f1+1)
	bsf	status, 5	;RP0=1, select bank1
	bcf	status, 6	;RP1=0, select bank1
	movf	(_fop_rule1+2)^080h,w
	bcf	status, 5	;RP0=0, select bank0
	bcf	status, 6	;RP1=0, select bank0
	movwf	(___ftadd@f1+2)
	bsf	status, 5	;RP0=1, select bank1
	bcf	status, 6	;RP1=0, select bank1
	movf	(Fuzzy@reduz)^080h,w
	bcf	status, 5	;RP0=0, select bank0
	bcf	status, 6	;RP1=0, select bank0
	movwf	(___ftadd@f2)
	bsf	status, 5	;RP0=1, select bank1
	bcf	status, 6	;RP1=0, select bank1
	movf	(Fuzzy@reduz+1)^080h,w
	bcf	status, 5	;RP0=0, select bank0
	bcf	status, 6	;RP1=0, select bank0
	movwf	(___ftadd@f2+1)
	bsf	status, 5	;RP0=1, select bank1
	bcf	status, 6	;RP1=0, select bank1
	movf	(Fuzzy@reduz+2)^080h,w
	bcf	status, 5	;RP0=0, select bank0
	bcf	status, 6	;RP1=0, select bank0
	movwf	(___ftadd@f2+2)
	fcall	___ftadd
	bcf	status, 5	;RP0=0, select bank0
	bcf	status, 6	;RP1=0, select bank0
	movf	(0+(?___ftadd)),w
	bsf	status, 5	;RP0=1, select bank1
	bcf	status, 6	;RP1=0, select bank1
	movwf	(Fuzzy@reduz)^080h
	bcf	status, 5	;RP0=0, select bank0
	bcf	status, 6	;RP1=0, select bank0
	movf	(1+(?___ftadd)),w
	bsf	status, 5	;RP0=1, select bank1
	bcf	status, 6	;RP1=0, select bank1
	movwf	(Fuzzy@reduz+1)^080h
	bcf	status, 5	;RP0=0, select bank0
	bcf	status, 6	;RP1=0, select bank0
	movf	(2+(?___ftadd)),w
	bsf	status, 5	;RP0=1, select bank1
	bcf	status, 6	;RP1=0, select bank1
	movwf	(Fuzzy@reduz+2)^080h
	line	237
;main.c: 237: }
	goto	i1l2580
	line	238
	
i1l157:	
	line	240
	
i1l2578:	
;main.c: 238: else
;main.c: 239: {
;main.c: 240: reduz += y;
	bsf	status, 5	;RP0=1, select bank1
	bcf	status, 6	;RP1=0, select bank1
	movf	(_y+1)^080h,w
	clrf	(___awtoft@c+1)
	addwf	(___awtoft@c+1)
	movf	(_y)^080h,w
	clrf	(___awtoft@c)
	addwf	(___awtoft@c)

	fcall	___awtoft
	movf	(0+(?___awtoft)),w
	bcf	status, 5	;RP0=0, select bank0
	bcf	status, 6	;RP1=0, select bank0
	movwf	(___ftadd@f1)
	movf	(1+(?___awtoft)),w
	movwf	(___ftadd@f1+1)
	movf	(2+(?___awtoft)),w
	movwf	(___ftadd@f1+2)
	bsf	status, 5	;RP0=1, select bank1
	bcf	status, 6	;RP1=0, select bank1
	movf	(Fuzzy@reduz)^080h,w
	bcf	status, 5	;RP0=0, select bank0
	bcf	status, 6	;RP1=0, select bank0
	movwf	(___ftadd@f2)
	bsf	status, 5	;RP0=1, select bank1
	bcf	status, 6	;RP1=0, select bank1
	movf	(Fuzzy@reduz+1)^080h,w
	bcf	status, 5	;RP0=0, select bank0
	bcf	status, 6	;RP1=0, select bank0
	movwf	(___ftadd@f2+1)
	bsf	status, 5	;RP0=1, select bank1
	bcf	status, 6	;RP1=0, select bank1
	movf	(Fuzzy@reduz+2)^080h,w
	bcf	status, 5	;RP0=0, select bank0
	bcf	status, 6	;RP1=0, select bank0
	movwf	(___ftadd@f2+2)
	fcall	___ftadd
	bcf	status, 5	;RP0=0, select bank0
	bcf	status, 6	;RP1=0, select bank0
	movf	(0+(?___ftadd)),w
	bsf	status, 5	;RP0=1, select bank1
	bcf	status, 6	;RP1=0, select bank1
	movwf	(Fuzzy@reduz)^080h
	bcf	status, 5	;RP0=0, select bank0
	bcf	status, 6	;RP1=0, select bank0
	movf	(1+(?___ftadd)),w
	bsf	status, 5	;RP0=1, select bank1
	bcf	status, 6	;RP1=0, select bank1
	movwf	(Fuzzy@reduz+1)^080h
	bcf	status, 5	;RP0=0, select bank0
	bcf	status, 6	;RP1=0, select bank0
	movf	(2+(?___ftadd)),w
	bsf	status, 5	;RP0=1, select bank1
	bcf	status, 6	;RP1=0, select bank1
	movwf	(Fuzzy@reduz+2)^080h
	goto	i1l2580
	line	241
	
i1l158:	
	line	243
	
i1l2580:	
;main.c: 241: }
;main.c: 243: x=x+1;
	movf	(_x)^080h,w
	addlw	low(01h)
	movwf	(_x)^080h
	movf	(_x+1)^080h,w
	skipnc
	addlw	1
	addlw	high(01h)
	movwf	1+(_x)^080h
	line	230
	
i1l2582:	
	movlw	low(01h)
	addwf	(Fuzzy@a)^080h,f
	skipnc
	incf	(Fuzzy@a+1)^080h,f
	movlw	high(01h)
	addwf	(Fuzzy@a+1)^080h,f
	
i1l2584:	
	movf	(Fuzzy@a+1)^080h,w
	xorlw	80h
	movwf	btemp+1
	movlw	(high(05Bh))^80h
	subwf	btemp+1,w
	skipz
	goto	u298_25
	movlw	low(05Bh)
	subwf	(Fuzzy@a)^080h,w
u298_25:

	skipc
	goto	u298_21
	goto	u298_20
u298_21:
	goto	i1l2574
u298_20:
	goto	i1l2586
	
i1l156:	
	goto	i1l2586
	line	246
	
i1l154:	
	line	252
	
i1l2586:	
;main.c: 244: }
;main.c: 246: }
;main.c: 252: if ((deltaV > 20) && (deltaV < 70))
	movlw	high(015h)
	bcf	status, 5	;RP0=0, select bank0
	bcf	status, 6	;RP1=0, select bank0
	subwf	(_deltaV+1),w
	movlw	low(015h)
	skipnz
	subwf	(_deltaV),w
	skipc
	goto	u299_21
	goto	u299_20
u299_21:
	goto	i1l2614
u299_20:
	
i1l2588:	
	movlw	high(046h)
	subwf	(_deltaV+1),w
	movlw	low(046h)
	skipnz
	subwf	(_deltaV),w
	skipnc
	goto	u300_21
	goto	u300_20
u300_21:
	goto	i1l2614
u300_20:
	line	256
	
i1l2590:	
;main.c: 253: {
;main.c: 256: fitemp = trimf(deltaV, 9, 45, 81);
	movf	(_deltaV+1),w
	clrf	(___lwtoft@c+1)
	addwf	(___lwtoft@c+1)
	movf	(_deltaV),w
	clrf	(___lwtoft@c)
	addwf	(___lwtoft@c)

	fcall	___lwtoft
	movf	(0+(?___lwtoft)),w
	bcf	status, 5	;RP0=0, select bank0
	bcf	status, 6	;RP1=0, select bank0
	movwf	(trimf@x)
	movf	(1+(?___lwtoft)),w
	movwf	(trimf@x+1)
	movf	(2+(?___lwtoft)),w
	movwf	(trimf@x+2)
	movlw	0x0
	movwf	(trimf@a)
	movlw	0x10
	movwf	(trimf@a+1)
	movlw	0x41
	movwf	(trimf@a+2)
	movlw	0x0
	movwf	(trimf@b)
	movlw	0x34
	movwf	(trimf@b+1)
	movlw	0x42
	movwf	(trimf@b+2)
	movlw	0x0
	movwf	(trimf@c)
	movlw	0xa2
	movwf	(trimf@c+1)
	movlw	0x42
	movwf	(trimf@c+2)
	fcall	_trimf
	bcf	status, 5	;RP0=0, select bank0
	bcf	status, 6	;RP1=0, select bank0
	movf	(0+(?_trimf)),w
	bsf	status, 5	;RP0=1, select bank1
	bcf	status, 6	;RP1=0, select bank1
	movwf	(_fitemp)^080h
	bcf	status, 5	;RP0=0, select bank0
	bcf	status, 6	;RP1=0, select bank0
	movf	(1+(?_trimf)),w
	bsf	status, 5	;RP0=1, select bank1
	bcf	status, 6	;RP1=0, select bank1
	movwf	(_fitemp+1)^080h
	bcf	status, 5	;RP0=0, select bank0
	bcf	status, 6	;RP1=0, select bank0
	movf	(2+(?_trimf)),w
	bsf	status, 5	;RP0=1, select bank1
	bcf	status, 6	;RP1=0, select bank1
	movwf	(_fitemp+2)^080h
	line	259
;main.c: 259: fop_rule2 = max_val(fitemp,0.1);
	movf	(_fitemp)^080h,w
	bcf	status, 5	;RP0=0, select bank0
	bcf	status, 6	;RP1=0, select bank0
	movwf	(max_val@a)
	bsf	status, 5	;RP0=1, select bank1
	bcf	status, 6	;RP1=0, select bank1
	movf	(_fitemp+1)^080h,w
	bcf	status, 5	;RP0=0, select bank0
	bcf	status, 6	;RP1=0, select bank0
	movwf	(max_val@a+1)
	bsf	status, 5	;RP0=1, select bank1
	bcf	status, 6	;RP1=0, select bank1
	movf	(_fitemp+2)^080h,w
	bcf	status, 5	;RP0=0, select bank0
	bcf	status, 6	;RP1=0, select bank0
	movwf	(max_val@a+2)
	movlw	0xcd
	movwf	(max_val@b)
	movlw	0xcc
	movwf	(max_val@b+1)
	movlw	0x3d
	movwf	(max_val@b+2)
	fcall	_max_val
	bcf	status, 5	;RP0=0, select bank0
	bcf	status, 6	;RP1=0, select bank0
	movf	(0+(?_max_val)),w
	bsf	status, 5	;RP0=1, select bank1
	bcf	status, 6	;RP1=0, select bank1
	movwf	(_fop_rule2)^080h
	bcf	status, 5	;RP0=0, select bank0
	bcf	status, 6	;RP1=0, select bank0
	movf	(1+(?_max_val)),w
	bsf	status, 5	;RP0=1, select bank1
	bcf	status, 6	;RP1=0, select bank1
	movwf	(_fop_rule2+1)^080h
	bcf	status, 5	;RP0=0, select bank0
	bcf	status, 6	;RP1=0, select bank0
	movf	(2+(?_max_val)),w
	bsf	status, 5	;RP0=1, select bank1
	bcf	status, 6	;RP1=0, select bank1
	movwf	(_fop_rule2+2)^080h
	line	262
	
i1l2592:	
;main.c: 262: x=0;
	clrf	(_x)^080h
	clrf	(_x+1)^080h
	line	263
	
i1l2594:	
;main.c: 263: y=0;
	clrf	(_y)^080h
	clrf	(_y+1)^080h
	line	264
	
i1l2596:	
;main.c: 264: for (int a=0; a<=90; a++)
	clrf	(Fuzzy@a_242)^080h
	clrf	(Fuzzy@a_242+1)^080h
	
i1l2598:	
	movf	(Fuzzy@a_242+1)^080h,w
	xorlw	80h
	movwf	btemp+1
	movlw	(high(05Bh))^80h
	subwf	btemp+1,w
	skipz
	goto	u301_25
	movlw	low(05Bh)
	subwf	(Fuzzy@a_242)^080h,w
u301_25:

	skipc
	goto	u301_21
	goto	u301_20
u301_21:
	goto	i1l2602
u301_20:
	goto	i1l2614
	
i1l2600:	
	goto	i1l2614
	line	265
	
i1l160:	
	line	266
	
i1l2602:	
;main.c: 265: {
;main.c: 266: y = trimf(x, 9, 45, 81);
	movlw	0x0
	bcf	status, 5	;RP0=0, select bank0
	bcf	status, 6	;RP1=0, select bank0
	movwf	(trimf@c)
	movlw	0xa2
	movwf	(trimf@c+1)
	movlw	0x42
	movwf	(trimf@c+2)
	movlw	0x0
	movwf	(trimf@b)
	movlw	0x34
	movwf	(trimf@b+1)
	movlw	0x42
	movwf	(trimf@b+2)
	movlw	0x0
	movwf	(trimf@a)
	movlw	0x10
	movwf	(trimf@a+1)
	movlw	0x41
	movwf	(trimf@a+2)
	bsf	status, 5	;RP0=1, select bank1
	bcf	status, 6	;RP1=0, select bank1
	movf	(_x+1)^080h,w
	clrf	(___awtoft@c+1)
	addwf	(___awtoft@c+1)
	movf	(_x)^080h,w
	clrf	(___awtoft@c)
	addwf	(___awtoft@c)

	fcall	___awtoft
	movf	(0+(?___awtoft)),w
	bcf	status, 5	;RP0=0, select bank0
	bcf	status, 6	;RP1=0, select bank0
	movwf	(trimf@x)
	movf	(1+(?___awtoft)),w
	movwf	(trimf@x+1)
	movf	(2+(?___awtoft)),w
	movwf	(trimf@x+2)
	fcall	_trimf
	bcf	status, 5	;RP0=0, select bank0
	bcf	status, 6	;RP1=0, select bank0
	movf	(0+(?_trimf)),w
	movwf	(___fttol@f1)
	movf	(1+(?_trimf)),w
	movwf	(___fttol@f1+1)
	movf	(2+(?_trimf)),w
	movwf	(___fttol@f1+2)
	fcall	___fttol
	bcf	status, 5	;RP0=0, select bank0
	bcf	status, 6	;RP1=0, select bank0
	movf	1+(((0+(?___fttol)))),w
	bsf	status, 5	;RP0=1, select bank1
	bcf	status, 6	;RP1=0, select bank1
	clrf	(_y+1)^080h
	addwf	(_y+1)^080h
	bcf	status, 5	;RP0=0, select bank0
	bcf	status, 6	;RP1=0, select bank0
	movf	0+(((0+(?___fttol)))),w
	bsf	status, 5	;RP0=1, select bank1
	bcf	status, 6	;RP1=0, select bank1
	clrf	(_y)^080h
	addwf	(_y)^080h

	line	268
;main.c: 268: if (y >= fop_rule2)
	movf	(_y+1)^080h,w
	clrf	(___awtoft@c+1)
	addwf	(___awtoft@c+1)
	movf	(_y)^080h,w
	clrf	(___awtoft@c)
	addwf	(___awtoft@c)

	fcall	___awtoft
	movf	(0+(?___awtoft)),w
	bcf	status, 5	;RP0=0, select bank0
	bcf	status, 6	;RP1=0, select bank0
	movwf	(___ftge@ff1)
	movf	(1+(?___awtoft)),w
	movwf	(___ftge@ff1+1)
	movf	(2+(?___awtoft)),w
	movwf	(___ftge@ff1+2)
	bsf	status, 5	;RP0=1, select bank1
	bcf	status, 6	;RP1=0, select bank1
	movf	(_fop_rule2)^080h,w
	bcf	status, 5	;RP0=0, select bank0
	bcf	status, 6	;RP1=0, select bank0
	movwf	(___ftge@ff2)
	bsf	status, 5	;RP0=1, select bank1
	bcf	status, 6	;RP1=0, select bank1
	movf	(_fop_rule2+1)^080h,w
	bcf	status, 5	;RP0=0, select bank0
	bcf	status, 6	;RP1=0, select bank0
	movwf	(___ftge@ff2+1)
	bsf	status, 5	;RP0=1, select bank1
	bcf	status, 6	;RP1=0, select bank1
	movf	(_fop_rule2+2)^080h,w
	bcf	status, 5	;RP0=0, select bank0
	bcf	status, 6	;RP1=0, select bank0
	movwf	(___ftge@ff2+2)
	fcall	___ftge
	btfss	status,0
	goto	u302_21
	goto	u302_20
u302_21:
	goto	i1l2606
u302_20:
	line	270
	
i1l2604:	
;main.c: 269: {
;main.c: 270: mantem += fop_rule2;
	bsf	status, 5	;RP0=1, select bank1
	bcf	status, 6	;RP1=0, select bank1
	movf	(_fop_rule2)^080h,w
	bcf	status, 5	;RP0=0, select bank0
	bcf	status, 6	;RP1=0, select bank0
	movwf	(___ftadd@f1)
	bsf	status, 5	;RP0=1, select bank1
	bcf	status, 6	;RP1=0, select bank1
	movf	(_fop_rule2+1)^080h,w
	bcf	status, 5	;RP0=0, select bank0
	bcf	status, 6	;RP1=0, select bank0
	movwf	(___ftadd@f1+1)
	bsf	status, 5	;RP0=1, select bank1
	bcf	status, 6	;RP1=0, select bank1
	movf	(_fop_rule2+2)^080h,w
	bcf	status, 5	;RP0=0, select bank0
	bcf	status, 6	;RP1=0, select bank0
	movwf	(___ftadd@f1+2)
	bsf	status, 5	;RP0=1, select bank1
	bcf	status, 6	;RP1=0, select bank1
	movf	(Fuzzy@mantem)^080h,w
	bcf	status, 5	;RP0=0, select bank0
	bcf	status, 6	;RP1=0, select bank0
	movwf	(___ftadd@f2)
	bsf	status, 5	;RP0=1, select bank1
	bcf	status, 6	;RP1=0, select bank1
	movf	(Fuzzy@mantem+1)^080h,w
	bcf	status, 5	;RP0=0, select bank0
	bcf	status, 6	;RP1=0, select bank0
	movwf	(___ftadd@f2+1)
	bsf	status, 5	;RP0=1, select bank1
	bcf	status, 6	;RP1=0, select bank1
	movf	(Fuzzy@mantem+2)^080h,w
	bcf	status, 5	;RP0=0, select bank0
	bcf	status, 6	;RP1=0, select bank0
	movwf	(___ftadd@f2+2)
	fcall	___ftadd
	bcf	status, 5	;RP0=0, select bank0
	bcf	status, 6	;RP1=0, select bank0
	movf	(0+(?___ftadd)),w
	bsf	status, 5	;RP0=1, select bank1
	bcf	status, 6	;RP1=0, select bank1
	movwf	(Fuzzy@mantem)^080h
	bcf	status, 5	;RP0=0, select bank0
	bcf	status, 6	;RP1=0, select bank0
	movf	(1+(?___ftadd)),w
	bsf	status, 5	;RP0=1, select bank1
	bcf	status, 6	;RP1=0, select bank1
	movwf	(Fuzzy@mantem+1)^080h
	bcf	status, 5	;RP0=0, select bank0
	bcf	status, 6	;RP1=0, select bank0
	movf	(2+(?___ftadd)),w
	bsf	status, 5	;RP0=1, select bank1
	bcf	status, 6	;RP1=0, select bank1
	movwf	(Fuzzy@mantem+2)^080h
	line	271
;main.c: 271: }
	goto	i1l2608
	line	272
	
i1l162:	
	line	274
	
i1l2606:	
;main.c: 272: else
;main.c: 273: {
;main.c: 274: mantem += y;
	bsf	status, 5	;RP0=1, select bank1
	bcf	status, 6	;RP1=0, select bank1
	movf	(_y+1)^080h,w
	clrf	(___awtoft@c+1)
	addwf	(___awtoft@c+1)
	movf	(_y)^080h,w
	clrf	(___awtoft@c)
	addwf	(___awtoft@c)

	fcall	___awtoft
	movf	(0+(?___awtoft)),w
	bcf	status, 5	;RP0=0, select bank0
	bcf	status, 6	;RP1=0, select bank0
	movwf	(___ftadd@f1)
	movf	(1+(?___awtoft)),w
	movwf	(___ftadd@f1+1)
	movf	(2+(?___awtoft)),w
	movwf	(___ftadd@f1+2)
	bsf	status, 5	;RP0=1, select bank1
	bcf	status, 6	;RP1=0, select bank1
	movf	(Fuzzy@mantem)^080h,w
	bcf	status, 5	;RP0=0, select bank0
	bcf	status, 6	;RP1=0, select bank0
	movwf	(___ftadd@f2)
	bsf	status, 5	;RP0=1, select bank1
	bcf	status, 6	;RP1=0, select bank1
	movf	(Fuzzy@mantem+1)^080h,w
	bcf	status, 5	;RP0=0, select bank0
	bcf	status, 6	;RP1=0, select bank0
	movwf	(___ftadd@f2+1)
	bsf	status, 5	;RP0=1, select bank1
	bcf	status, 6	;RP1=0, select bank1
	movf	(Fuzzy@mantem+2)^080h,w
	bcf	status, 5	;RP0=0, select bank0
	bcf	status, 6	;RP1=0, select bank0
	movwf	(___ftadd@f2+2)
	fcall	___ftadd
	bcf	status, 5	;RP0=0, select bank0
	bcf	status, 6	;RP1=0, select bank0
	movf	(0+(?___ftadd)),w
	bsf	status, 5	;RP0=1, select bank1
	bcf	status, 6	;RP1=0, select bank1
	movwf	(Fuzzy@mantem)^080h
	bcf	status, 5	;RP0=0, select bank0
	bcf	status, 6	;RP1=0, select bank0
	movf	(1+(?___ftadd)),w
	bsf	status, 5	;RP0=1, select bank1
	bcf	status, 6	;RP1=0, select bank1
	movwf	(Fuzzy@mantem+1)^080h
	bcf	status, 5	;RP0=0, select bank0
	bcf	status, 6	;RP1=0, select bank0
	movf	(2+(?___ftadd)),w
	bsf	status, 5	;RP0=1, select bank1
	bcf	status, 6	;RP1=0, select bank1
	movwf	(Fuzzy@mantem+2)^080h
	goto	i1l2608
	line	275
	
i1l163:	
	line	277
	
i1l2608:	
;main.c: 275: }
;main.c: 277: x=x+1;
	movf	(_x)^080h,w
	addlw	low(01h)
	movwf	(_x)^080h
	movf	(_x+1)^080h,w
	skipnc
	addlw	1
	addlw	high(01h)
	movwf	1+(_x)^080h
	line	264
	
i1l2610:	
	movlw	low(01h)
	addwf	(Fuzzy@a_242)^080h,f
	skipnc
	incf	(Fuzzy@a_242+1)^080h,f
	movlw	high(01h)
	addwf	(Fuzzy@a_242+1)^080h,f
	
i1l2612:	
	movf	(Fuzzy@a_242+1)^080h,w
	xorlw	80h
	movwf	btemp+1
	movlw	(high(05Bh))^80h
	subwf	btemp+1,w
	skipz
	goto	u303_25
	movlw	low(05Bh)
	subwf	(Fuzzy@a_242)^080h,w
u303_25:

	skipc
	goto	u303_21
	goto	u303_20
u303_21:
	goto	i1l2602
u303_20:
	goto	i1l2614
	
i1l161:	
	goto	i1l2614
	line	280
	
i1l159:	
	line	286
	
i1l2614:	
;main.c: 278: }
;main.c: 280: }
;main.c: 286: if (deltaV > 70 )
	movlw	high(047h)
	bcf	status, 5	;RP0=0, select bank0
	bcf	status, 6	;RP1=0, select bank0
	subwf	(_deltaV+1),w
	movlw	low(047h)
	skipnz
	subwf	(_deltaV),w
	skipc
	goto	u304_21
	goto	u304_20
u304_21:
	goto	i1l2640
u304_20:
	line	290
	
i1l2616:	
;main.c: 287: {
;main.c: 290: fitemp = trapmf(deltaV, 62, 79, 90, 90);
	movf	(_deltaV+1),w
	clrf	(___lwtoft@c+1)
	addwf	(___lwtoft@c+1)
	movf	(_deltaV),w
	clrf	(___lwtoft@c)
	addwf	(___lwtoft@c)

	fcall	___lwtoft
	movf	(0+(?___lwtoft)),w
	bcf	status, 5	;RP0=0, select bank0
	bcf	status, 6	;RP1=0, select bank0
	movwf	(trapmf@x)
	movf	(1+(?___lwtoft)),w
	movwf	(trapmf@x+1)
	movf	(2+(?___lwtoft)),w
	movwf	(trapmf@x+2)
	movlw	0x0
	movwf	(trapmf@a)
	movlw	0x78
	movwf	(trapmf@a+1)
	movlw	0x42
	movwf	(trapmf@a+2)
	movlw	0x0
	movwf	(trapmf@b)
	movlw	0x9e
	movwf	(trapmf@b+1)
	movlw	0x42
	movwf	(trapmf@b+2)
	movlw	0x0
	movwf	(trapmf@c)
	movlw	0xb4
	movwf	(trapmf@c+1)
	movlw	0x42
	movwf	(trapmf@c+2)
	movlw	0x0
	movwf	(trapmf@d)
	movlw	0xb4
	movwf	(trapmf@d+1)
	movlw	0x42
	movwf	(trapmf@d+2)
	fcall	_trapmf
	bcf	status, 5	;RP0=0, select bank0
	bcf	status, 6	;RP1=0, select bank0
	movf	(0+(?_trapmf)),w
	bsf	status, 5	;RP0=1, select bank1
	bcf	status, 6	;RP1=0, select bank1
	movwf	(_fitemp)^080h
	bcf	status, 5	;RP0=0, select bank0
	bcf	status, 6	;RP1=0, select bank0
	movf	(1+(?_trapmf)),w
	bsf	status, 5	;RP0=1, select bank1
	bcf	status, 6	;RP1=0, select bank1
	movwf	(_fitemp+1)^080h
	bcf	status, 5	;RP0=0, select bank0
	bcf	status, 6	;RP1=0, select bank0
	movf	(2+(?_trapmf)),w
	bsf	status, 5	;RP0=1, select bank1
	bcf	status, 6	;RP1=0, select bank1
	movwf	(_fitemp+2)^080h
	line	294
;main.c: 294: fop_rule3 = max_val(fitemp,0.1);
	movf	(_fitemp)^080h,w
	bcf	status, 5	;RP0=0, select bank0
	bcf	status, 6	;RP1=0, select bank0
	movwf	(max_val@a)
	bsf	status, 5	;RP0=1, select bank1
	bcf	status, 6	;RP1=0, select bank1
	movf	(_fitemp+1)^080h,w
	bcf	status, 5	;RP0=0, select bank0
	bcf	status, 6	;RP1=0, select bank0
	movwf	(max_val@a+1)
	bsf	status, 5	;RP0=1, select bank1
	bcf	status, 6	;RP1=0, select bank1
	movf	(_fitemp+2)^080h,w
	bcf	status, 5	;RP0=0, select bank0
	bcf	status, 6	;RP1=0, select bank0
	movwf	(max_val@a+2)
	movlw	0xcd
	movwf	(max_val@b)
	movlw	0xcc
	movwf	(max_val@b+1)
	movlw	0x3d
	movwf	(max_val@b+2)
	fcall	_max_val
	bcf	status, 5	;RP0=0, select bank0
	bcf	status, 6	;RP1=0, select bank0
	movf	(0+(?_max_val)),w
	bsf	status, 5	;RP0=1, select bank1
	bcf	status, 6	;RP1=0, select bank1
	movwf	(_fop_rule3)^080h
	bcf	status, 5	;RP0=0, select bank0
	bcf	status, 6	;RP1=0, select bank0
	movf	(1+(?_max_val)),w
	bsf	status, 5	;RP0=1, select bank1
	bcf	status, 6	;RP1=0, select bank1
	movwf	(_fop_rule3+1)^080h
	bcf	status, 5	;RP0=0, select bank0
	bcf	status, 6	;RP1=0, select bank0
	movf	(2+(?_max_val)),w
	bsf	status, 5	;RP0=1, select bank1
	bcf	status, 6	;RP1=0, select bank1
	movwf	(_fop_rule3+2)^080h
	line	297
	
i1l2618:	
;main.c: 297: x=0;
	clrf	(_x)^080h
	clrf	(_x+1)^080h
	line	298
	
i1l2620:	
;main.c: 298: y=0;
	clrf	(_y)^080h
	clrf	(_y+1)^080h
	line	299
	
i1l2622:	
;main.c: 299: for (int a=0; a<=90; a++)
	clrf	(Fuzzy@a_243)^080h
	clrf	(Fuzzy@a_243+1)^080h
	
i1l2624:	
	movf	(Fuzzy@a_243+1)^080h,w
	xorlw	80h
	movwf	btemp+1
	movlw	(high(05Bh))^80h
	subwf	btemp+1,w
	skipz
	goto	u305_25
	movlw	low(05Bh)
	subwf	(Fuzzy@a_243)^080h,w
u305_25:

	skipc
	goto	u305_21
	goto	u305_20
u305_21:
	goto	i1l2628
u305_20:
	goto	i1l2640
	
i1l2626:	
	goto	i1l2640
	line	300
	
i1l165:	
	line	301
	
i1l2628:	
;main.c: 300: {
;main.c: 301: y = trapmf(x, 62, 79, 90, 90);
	movlw	0x0
	bcf	status, 5	;RP0=0, select bank0
	bcf	status, 6	;RP1=0, select bank0
	movwf	(trapmf@d)
	movlw	0xb4
	movwf	(trapmf@d+1)
	movlw	0x42
	movwf	(trapmf@d+2)
	movlw	0x0
	movwf	(trapmf@c)
	movlw	0xb4
	movwf	(trapmf@c+1)
	movlw	0x42
	movwf	(trapmf@c+2)
	movlw	0x0
	movwf	(trapmf@b)
	movlw	0x9e
	movwf	(trapmf@b+1)
	movlw	0x42
	movwf	(trapmf@b+2)
	movlw	0x0
	movwf	(trapmf@a)
	movlw	0x78
	movwf	(trapmf@a+1)
	movlw	0x42
	movwf	(trapmf@a+2)
	bsf	status, 5	;RP0=1, select bank1
	bcf	status, 6	;RP1=0, select bank1
	movf	(_x+1)^080h,w
	clrf	(___awtoft@c+1)
	addwf	(___awtoft@c+1)
	movf	(_x)^080h,w
	clrf	(___awtoft@c)
	addwf	(___awtoft@c)

	fcall	___awtoft
	movf	(0+(?___awtoft)),w
	bcf	status, 5	;RP0=0, select bank0
	bcf	status, 6	;RP1=0, select bank0
	movwf	(trapmf@x)
	movf	(1+(?___awtoft)),w
	movwf	(trapmf@x+1)
	movf	(2+(?___awtoft)),w
	movwf	(trapmf@x+2)
	fcall	_trapmf
	bcf	status, 5	;RP0=0, select bank0
	bcf	status, 6	;RP1=0, select bank0
	movf	(0+(?_trapmf)),w
	movwf	(___fttol@f1)
	movf	(1+(?_trapmf)),w
	movwf	(___fttol@f1+1)
	movf	(2+(?_trapmf)),w
	movwf	(___fttol@f1+2)
	fcall	___fttol
	bcf	status, 5	;RP0=0, select bank0
	bcf	status, 6	;RP1=0, select bank0
	movf	1+(((0+(?___fttol)))),w
	bsf	status, 5	;RP0=1, select bank1
	bcf	status, 6	;RP1=0, select bank1
	clrf	(_y+1)^080h
	addwf	(_y+1)^080h
	bcf	status, 5	;RP0=0, select bank0
	bcf	status, 6	;RP1=0, select bank0
	movf	0+(((0+(?___fttol)))),w
	bsf	status, 5	;RP0=1, select bank1
	bcf	status, 6	;RP1=0, select bank1
	clrf	(_y)^080h
	addwf	(_y)^080h

	line	303
;main.c: 303: if (y >= fop_rule3)
	movf	(_y+1)^080h,w
	clrf	(___awtoft@c+1)
	addwf	(___awtoft@c+1)
	movf	(_y)^080h,w
	clrf	(___awtoft@c)
	addwf	(___awtoft@c)

	fcall	___awtoft
	movf	(0+(?___awtoft)),w
	bcf	status, 5	;RP0=0, select bank0
	bcf	status, 6	;RP1=0, select bank0
	movwf	(___ftge@ff1)
	movf	(1+(?___awtoft)),w
	movwf	(___ftge@ff1+1)
	movf	(2+(?___awtoft)),w
	movwf	(___ftge@ff1+2)
	bsf	status, 5	;RP0=1, select bank1
	bcf	status, 6	;RP1=0, select bank1
	movf	(_fop_rule3)^080h,w
	bcf	status, 5	;RP0=0, select bank0
	bcf	status, 6	;RP1=0, select bank0
	movwf	(___ftge@ff2)
	bsf	status, 5	;RP0=1, select bank1
	bcf	status, 6	;RP1=0, select bank1
	movf	(_fop_rule3+1)^080h,w
	bcf	status, 5	;RP0=0, select bank0
	bcf	status, 6	;RP1=0, select bank0
	movwf	(___ftge@ff2+1)
	bsf	status, 5	;RP0=1, select bank1
	bcf	status, 6	;RP1=0, select bank1
	movf	(_fop_rule3+2)^080h,w
	bcf	status, 5	;RP0=0, select bank0
	bcf	status, 6	;RP1=0, select bank0
	movwf	(___ftge@ff2+2)
	fcall	___ftge
	btfss	status,0
	goto	u306_21
	goto	u306_20
u306_21:
	goto	i1l2632
u306_20:
	line	305
	
i1l2630:	
;main.c: 304: {
;main.c: 305: aumenta += fop_rule3;
	bsf	status, 5	;RP0=1, select bank1
	bcf	status, 6	;RP1=0, select bank1
	movf	(_fop_rule3)^080h,w
	bcf	status, 5	;RP0=0, select bank0
	bcf	status, 6	;RP1=0, select bank0
	movwf	(___ftadd@f1)
	bsf	status, 5	;RP0=1, select bank1
	bcf	status, 6	;RP1=0, select bank1
	movf	(_fop_rule3+1)^080h,w
	bcf	status, 5	;RP0=0, select bank0
	bcf	status, 6	;RP1=0, select bank0
	movwf	(___ftadd@f1+1)
	bsf	status, 5	;RP0=1, select bank1
	bcf	status, 6	;RP1=0, select bank1
	movf	(_fop_rule3+2)^080h,w
	bcf	status, 5	;RP0=0, select bank0
	bcf	status, 6	;RP1=0, select bank0
	movwf	(___ftadd@f1+2)
	bsf	status, 5	;RP0=1, select bank1
	bcf	status, 6	;RP1=0, select bank1
	movf	(Fuzzy@aumenta)^080h,w
	bcf	status, 5	;RP0=0, select bank0
	bcf	status, 6	;RP1=0, select bank0
	movwf	(___ftadd@f2)
	bsf	status, 5	;RP0=1, select bank1
	bcf	status, 6	;RP1=0, select bank1
	movf	(Fuzzy@aumenta+1)^080h,w
	bcf	status, 5	;RP0=0, select bank0
	bcf	status, 6	;RP1=0, select bank0
	movwf	(___ftadd@f2+1)
	bsf	status, 5	;RP0=1, select bank1
	bcf	status, 6	;RP1=0, select bank1
	movf	(Fuzzy@aumenta+2)^080h,w
	bcf	status, 5	;RP0=0, select bank0
	bcf	status, 6	;RP1=0, select bank0
	movwf	(___ftadd@f2+2)
	fcall	___ftadd
	bcf	status, 5	;RP0=0, select bank0
	bcf	status, 6	;RP1=0, select bank0
	movf	(0+(?___ftadd)),w
	bsf	status, 5	;RP0=1, select bank1
	bcf	status, 6	;RP1=0, select bank1
	movwf	(Fuzzy@aumenta)^080h
	bcf	status, 5	;RP0=0, select bank0
	bcf	status, 6	;RP1=0, select bank0
	movf	(1+(?___ftadd)),w
	bsf	status, 5	;RP0=1, select bank1
	bcf	status, 6	;RP1=0, select bank1
	movwf	(Fuzzy@aumenta+1)^080h
	bcf	status, 5	;RP0=0, select bank0
	bcf	status, 6	;RP1=0, select bank0
	movf	(2+(?___ftadd)),w
	bsf	status, 5	;RP0=1, select bank1
	bcf	status, 6	;RP1=0, select bank1
	movwf	(Fuzzy@aumenta+2)^080h
	line	306
;main.c: 306: }
	goto	i1l2634
	line	307
	
i1l167:	
	line	309
	
i1l2632:	
;main.c: 307: else
;main.c: 308: {
;main.c: 309: aumenta += y;
	bsf	status, 5	;RP0=1, select bank1
	bcf	status, 6	;RP1=0, select bank1
	movf	(_y+1)^080h,w
	clrf	(___awtoft@c+1)
	addwf	(___awtoft@c+1)
	movf	(_y)^080h,w
	clrf	(___awtoft@c)
	addwf	(___awtoft@c)

	fcall	___awtoft
	movf	(0+(?___awtoft)),w
	bcf	status, 5	;RP0=0, select bank0
	bcf	status, 6	;RP1=0, select bank0
	movwf	(___ftadd@f1)
	movf	(1+(?___awtoft)),w
	movwf	(___ftadd@f1+1)
	movf	(2+(?___awtoft)),w
	movwf	(___ftadd@f1+2)
	bsf	status, 5	;RP0=1, select bank1
	bcf	status, 6	;RP1=0, select bank1
	movf	(Fuzzy@aumenta)^080h,w
	bcf	status, 5	;RP0=0, select bank0
	bcf	status, 6	;RP1=0, select bank0
	movwf	(___ftadd@f2)
	bsf	status, 5	;RP0=1, select bank1
	bcf	status, 6	;RP1=0, select bank1
	movf	(Fuzzy@aumenta+1)^080h,w
	bcf	status, 5	;RP0=0, select bank0
	bcf	status, 6	;RP1=0, select bank0
	movwf	(___ftadd@f2+1)
	bsf	status, 5	;RP0=1, select bank1
	bcf	status, 6	;RP1=0, select bank1
	movf	(Fuzzy@aumenta+2)^080h,w
	bcf	status, 5	;RP0=0, select bank0
	bcf	status, 6	;RP1=0, select bank0
	movwf	(___ftadd@f2+2)
	fcall	___ftadd
	bcf	status, 5	;RP0=0, select bank0
	bcf	status, 6	;RP1=0, select bank0
	movf	(0+(?___ftadd)),w
	bsf	status, 5	;RP0=1, select bank1
	bcf	status, 6	;RP1=0, select bank1
	movwf	(Fuzzy@aumenta)^080h
	bcf	status, 5	;RP0=0, select bank0
	bcf	status, 6	;RP1=0, select bank0
	movf	(1+(?___ftadd)),w
	bsf	status, 5	;RP0=1, select bank1
	bcf	status, 6	;RP1=0, select bank1
	movwf	(Fuzzy@aumenta+1)^080h
	bcf	status, 5	;RP0=0, select bank0
	bcf	status, 6	;RP1=0, select bank0
	movf	(2+(?___ftadd)),w
	bsf	status, 5	;RP0=1, select bank1
	bcf	status, 6	;RP1=0, select bank1
	movwf	(Fuzzy@aumenta+2)^080h
	goto	i1l2634
	line	310
	
i1l168:	
	line	312
	
i1l2634:	
;main.c: 310: }
;main.c: 312: x=x+1;
	movf	(_x)^080h,w
	addlw	low(01h)
	movwf	(_x)^080h
	movf	(_x+1)^080h,w
	skipnc
	addlw	1
	addlw	high(01h)
	movwf	1+(_x)^080h
	line	299
	
i1l2636:	
	movlw	low(01h)
	addwf	(Fuzzy@a_243)^080h,f
	skipnc
	incf	(Fuzzy@a_243+1)^080h,f
	movlw	high(01h)
	addwf	(Fuzzy@a_243+1)^080h,f
	
i1l2638:	
	movf	(Fuzzy@a_243+1)^080h,w
	xorlw	80h
	movwf	btemp+1
	movlw	(high(05Bh))^80h
	subwf	btemp+1,w
	skipz
	goto	u307_25
	movlw	low(05Bh)
	subwf	(Fuzzy@a_243)^080h,w
u307_25:

	skipc
	goto	u307_21
	goto	u307_20
u307_21:
	goto	i1l2628
u307_20:
	goto	i1l2640
	
i1l166:	
	goto	i1l2640
	line	315
	
i1l164:	
	line	318
	
i1l2640:	
;main.c: 313: }
;main.c: 315: }
;main.c: 318: if (deltaV < 25)
	movlw	high(019h)
	bcf	status, 5	;RP0=0, select bank0
	bcf	status, 6	;RP1=0, select bank0
	subwf	(_deltaV+1),w
	movlw	low(019h)
	skipnz
	subwf	(_deltaV),w
	skipnc
	goto	u308_21
	goto	u308_20
u308_21:
	goto	i1l2644
u308_20:
	line	320
	
i1l2642:	
;main.c: 319: {
;main.c: 320: tip = reduz;
	bsf	status, 5	;RP0=1, select bank1
	bcf	status, 6	;RP1=0, select bank1
	movf	(Fuzzy@reduz)^080h,w
	movwf	(Fuzzy@tip)^080h
	movf	(Fuzzy@reduz+1)^080h,w
	movwf	(Fuzzy@tip+1)^080h
	movf	(Fuzzy@reduz+2)^080h,w
	movwf	(Fuzzy@tip+2)^080h
	line	321
;main.c: 321: }else
	goto	i1l170
	
i1l169:	
	line	322
	
i1l2644:	
;main.c: 322: if (deltaV >= 25 && deltaV < 75)
	movlw	high(019h)
	bcf	status, 5	;RP0=0, select bank0
	subwf	(_deltaV+1),w
	movlw	low(019h)
	skipnz
	subwf	(_deltaV),w
	skipc
	goto	u309_21
	goto	u309_20
u309_21:
	goto	i1l2650
u309_20:
	
i1l2646:	
	movlw	high(04Bh)
	subwf	(_deltaV+1),w
	movlw	low(04Bh)
	skipnz
	subwf	(_deltaV),w
	skipnc
	goto	u310_21
	goto	u310_20
u310_21:
	goto	i1l2650
u310_20:
	line	324
	
i1l2648:	
;main.c: 323: {
;main.c: 324: tip = mantem;
	bsf	status, 5	;RP0=1, select bank1
	bcf	status, 6	;RP1=0, select bank1
	movf	(Fuzzy@mantem)^080h,w
	movwf	(Fuzzy@tip)^080h
	movf	(Fuzzy@mantem+1)^080h,w
	movwf	(Fuzzy@tip+1)^080h
	movf	(Fuzzy@mantem+2)^080h,w
	movwf	(Fuzzy@tip+2)^080h
	line	325
;main.c: 325: }else
	goto	i1l170
	
i1l171:	
	line	327
	
i1l2650:	
;main.c: 326: {
;main.c: 327: tip = aumenta;
	bsf	status, 5	;RP0=1, select bank1
	bcf	status, 6	;RP1=0, select bank1
	movf	(Fuzzy@aumenta)^080h,w
	movwf	(Fuzzy@tip)^080h
	movf	(Fuzzy@aumenta+1)^080h,w
	movwf	(Fuzzy@tip+1)^080h
	movf	(Fuzzy@aumenta+2)^080h,w
	movwf	(Fuzzy@tip+2)^080h
	goto	i1l170
	line	328
	
i1l172:	
	
i1l170:	
	line	331
;main.c: 328: }
;main.c: 331: total_area = 90;
	movlw	0x0
	movwf	(_total_area)^080h
	movlw	0xb4
	movwf	(_total_area+1)^080h
	movlw	0x42
	movwf	(_total_area+2)^080h
	line	332
;main.c: 332: sum = 0;
	movlw	0x0
	movwf	(_sum)^080h
	movlw	0x0
	movwf	(_sum+1)^080h
	movlw	0x0
	movwf	(_sum+2)^080h
	line	333
	
i1l2652:	
;main.c: 333: sum = sum + tip;
	movf	(Fuzzy@tip)^080h,w
	bcf	status, 5	;RP0=0, select bank0
	bcf	status, 6	;RP1=0, select bank0
	movwf	(___ftadd@f1)
	bsf	status, 5	;RP0=1, select bank1
	bcf	status, 6	;RP1=0, select bank1
	movf	(Fuzzy@tip+1)^080h,w
	bcf	status, 5	;RP0=0, select bank0
	bcf	status, 6	;RP1=0, select bank0
	movwf	(___ftadd@f1+1)
	bsf	status, 5	;RP0=1, select bank1
	bcf	status, 6	;RP1=0, select bank1
	movf	(Fuzzy@tip+2)^080h,w
	bcf	status, 5	;RP0=0, select bank0
	bcf	status, 6	;RP1=0, select bank0
	movwf	(___ftadd@f1+2)
	bsf	status, 5	;RP0=1, select bank1
	bcf	status, 6	;RP1=0, select bank1
	movf	(_sum)^080h,w
	bcf	status, 5	;RP0=0, select bank0
	bcf	status, 6	;RP1=0, select bank0
	movwf	(___ftadd@f2)
	bsf	status, 5	;RP0=1, select bank1
	bcf	status, 6	;RP1=0, select bank1
	movf	(_sum+1)^080h,w
	bcf	status, 5	;RP0=0, select bank0
	bcf	status, 6	;RP1=0, select bank0
	movwf	(___ftadd@f2+1)
	bsf	status, 5	;RP0=1, select bank1
	bcf	status, 6	;RP1=0, select bank1
	movf	(_sum+2)^080h,w
	bcf	status, 5	;RP0=0, select bank0
	bcf	status, 6	;RP1=0, select bank0
	movwf	(___ftadd@f2+2)
	fcall	___ftadd
	bcf	status, 5	;RP0=0, select bank0
	bcf	status, 6	;RP1=0, select bank0
	movf	(0+(?___ftadd)),w
	bsf	status, 5	;RP0=1, select bank1
	bcf	status, 6	;RP1=0, select bank1
	movwf	(_sum)^080h
	bcf	status, 5	;RP0=0, select bank0
	bcf	status, 6	;RP1=0, select bank0
	movf	(1+(?___ftadd)),w
	bsf	status, 5	;RP0=1, select bank1
	bcf	status, 6	;RP1=0, select bank1
	movwf	(_sum+1)^080h
	bcf	status, 5	;RP0=0, select bank0
	bcf	status, 6	;RP1=0, select bank0
	movf	(2+(?___ftadd)),w
	bsf	status, 5	;RP0=1, select bank1
	bcf	status, 6	;RP1=0, select bank1
	movwf	(_sum+2)^080h
	line	336
	
i1l2654:	
;main.c: 336: ativa_fan = sum/total_area;
	movf	(_total_area)^080h,w
	bcf	status, 5	;RP0=0, select bank0
	bcf	status, 6	;RP1=0, select bank0
	movwf	(___ftdiv@f2)
	bsf	status, 5	;RP0=1, select bank1
	bcf	status, 6	;RP1=0, select bank1
	movf	(_total_area+1)^080h,w
	bcf	status, 5	;RP0=0, select bank0
	bcf	status, 6	;RP1=0, select bank0
	movwf	(___ftdiv@f2+1)
	bsf	status, 5	;RP0=1, select bank1
	bcf	status, 6	;RP1=0, select bank1
	movf	(_total_area+2)^080h,w
	bcf	status, 5	;RP0=0, select bank0
	bcf	status, 6	;RP1=0, select bank0
	movwf	(___ftdiv@f2+2)
	bsf	status, 5	;RP0=1, select bank1
	bcf	status, 6	;RP1=0, select bank1
	movf	(_sum)^080h,w
	bcf	status, 5	;RP0=0, select bank0
	bcf	status, 6	;RP1=0, select bank0
	movwf	(___ftdiv@f1)
	bsf	status, 5	;RP0=1, select bank1
	bcf	status, 6	;RP1=0, select bank1
	movf	(_sum+1)^080h,w
	bcf	status, 5	;RP0=0, select bank0
	bcf	status, 6	;RP1=0, select bank0
	movwf	(___ftdiv@f1+1)
	bsf	status, 5	;RP0=1, select bank1
	bcf	status, 6	;RP1=0, select bank1
	movf	(_sum+2)^080h,w
	bcf	status, 5	;RP0=0, select bank0
	bcf	status, 6	;RP1=0, select bank0
	movwf	(___ftdiv@f1+2)
	fcall	___ftdiv
	bcf	status, 5	;RP0=0, select bank0
	bcf	status, 6	;RP1=0, select bank0
	movf	(0+(?___ftdiv)),w
	bsf	status, 5	;RP0=1, select bank1
	bcf	status, 6	;RP1=0, select bank1
	movwf	(_ativa_fan)^080h
	bcf	status, 5	;RP0=0, select bank0
	bcf	status, 6	;RP1=0, select bank0
	movf	(1+(?___ftdiv)),w
	bsf	status, 5	;RP0=1, select bank1
	bcf	status, 6	;RP1=0, select bank1
	movwf	(_ativa_fan+1)^080h
	bcf	status, 5	;RP0=0, select bank0
	bcf	status, 6	;RP1=0, select bank0
	movf	(2+(?___ftdiv)),w
	bsf	status, 5	;RP0=1, select bank1
	bcf	status, 6	;RP1=0, select bank1
	movwf	(_ativa_fan+2)^080h
	line	339
	
i1l2656:	
;main.c: 339: ativa_fan = ativa_fan*100;
	movlw	0x0
	movwf	(___ftmul@f1)
	movlw	0xc8
	movwf	(___ftmul@f1+1)
	movlw	0x42
	movwf	(___ftmul@f1+2)
	movf	(_ativa_fan)^080h,w
	movwf	(___ftmul@f2)
	movf	(_ativa_fan+1)^080h,w
	movwf	(___ftmul@f2+1)
	movf	(_ativa_fan+2)^080h,w
	movwf	(___ftmul@f2+2)
	fcall	___ftmul
	movf	(0+(?___ftmul)),w
	bsf	status, 5	;RP0=1, select bank1
	bcf	status, 6	;RP1=0, select bank1
	movwf	(_ativa_fan)^080h
	movf	(1+(?___ftmul)),w
	movwf	(_ativa_fan+1)^080h
	movf	(2+(?___ftmul)),w
	movwf	(_ativa_fan+2)^080h
	line	345
	
i1l2658:	
;main.c: 345: if (freio = 1)
	movlw	low(01h)
	movwf	(Fuzzy@freio)^080h
	movlw	high(01h)
	movwf	((Fuzzy@freio)^080h)+1
	line	347
	
i1l2660:	
;main.c: 346: {
;main.c: 347: if (deltaV >0 && deltaV < 1020)
	bcf	status, 5	;RP0=0, select bank0
	bcf	status, 6	;RP1=0, select bank0
	movf	(_deltaV+1),w
	iorwf	(_deltaV),w
	skipnz
	goto	u311_21
	goto	u311_20
u311_21:
	goto	i1l149
u311_20:
	
i1l2662:	
	movlw	high(03FCh)
	subwf	(_deltaV+1),w
	movlw	low(03FCh)
	skipnz
	subwf	(_deltaV),w
	skipnc
	goto	u312_21
	goto	u312_20
u312_21:
	goto	i1l149
u312_20:
	line	349
	
i1l2664:	
;main.c: 348: {
;main.c: 349: PWM_DutyCycle2(deltaV);
	movf	(_deltaV+1),w
	clrf	(i1PWM_DutyCycle2@valor+1)
	addwf	(i1PWM_DutyCycle2@valor+1)
	movf	(_deltaV),w
	clrf	(i1PWM_DutyCycle2@valor)
	addwf	(i1PWM_DutyCycle2@valor)

	fcall	i1_PWM_DutyCycle2
	goto	i1l149
	line	350
	
i1l174:	
	line	351
;main.c: 350: }
;main.c: 351: }else
	goto	i1l149
	
i1l173:	
	line	353
	
i1l2666:	
;main.c: 352: {
;main.c: 353: if (deltaV > 0 && deltaV < 1020)
	bcf	status, 5	;RP0=0, select bank0
	bcf	status, 6	;RP1=0, select bank0
	movf	(_deltaV+1),w
	iorwf	(_deltaV),w
	skipnz
	goto	u313_21
	goto	u313_20
u313_21:
	goto	i1l149
u313_20:
	
i1l2668:	
	movlw	high(03FCh)
	subwf	(_deltaV+1),w
	movlw	low(03FCh)
	skipnz
	subwf	(_deltaV),w
	skipnc
	goto	u314_21
	goto	u314_20
u314_21:
	goto	i1l149
u314_20:
	line	355
	
i1l2670:	
;main.c: 354: {
;main.c: 355: PWM_DutyCycle2(deltaV);
	movf	(_deltaV+1),w
	clrf	(i1PWM_DutyCycle2@valor+1)
	addwf	(i1PWM_DutyCycle2@valor+1)
	movf	(_deltaV),w
	clrf	(i1PWM_DutyCycle2@valor)
	addwf	(i1PWM_DutyCycle2@valor)

	fcall	i1_PWM_DutyCycle2
	goto	i1l149
	line	356
	
i1l176:	
	goto	i1l149
	line	357
	
i1l175:	
	line	360
	
i1l149:	
	return
	opt stack 0
GLOBAL	__end_of_Fuzzy
	__end_of_Fuzzy:
	signat	_Fuzzy,88
	global	i1_PWM_DutyCycle2

;; *************** function i1_PWM_DutyCycle2 *****************
;; Defined at:
;;		line 96 in file "R:\Note\Sistema I\Ultimo C no MPLAB\pwm.c"
;; Parameters:    Size  Location     Type
;;  valor           2    0[COMMON] int 
;; Auto vars:     Size  Location     Type
;;		None
;; Return value:  Size  Location     Type
;;		None               void
;; Registers used:
;;		wreg, status,2, status,0
;; Tracked objects:
;;		On entry : 0/0
;;		On exit  : 0/0
;;		Unchanged: 0/0
;; Data sizes:     COMMON   BANK0   BANK1   BANK3   BANK2
;;      Params:         2       0       0       0       0
;;      Locals:         0       0       0       0       0
;;      Temps:          2       0       0       0       0
;;      Totals:         4       0       0       0       0
;;Total ram usage:        4 bytes
;; Hardware stack levels used:    1
;; This function calls:
;;		Nothing
;; This function is called by:
;;		_Fuzzy
;;		_ISR
;; This function uses a non-reentrant model
;;
psect	text23,local,class=CODE,delta=2,merge=1
	file	"R:\Note\Sistema I\Ultimo C no MPLAB\pwm.c"
	line	96
global __ptext23
__ptext23:	;psect for function i1_PWM_DutyCycle2
psect	text23
	file	"R:\Note\Sistema I\Ultimo C no MPLAB\pwm.c"
	line	96
	global	__size_ofi1_PWM_DutyCycle2
	__size_ofi1_PWM_DutyCycle2	equ	__end_ofi1_PWM_DutyCycle2-i1_PWM_DutyCycle2
	
i1_PWM_DutyCycle2:	
;incstack = 0
	opt	stack 4
; Regs used in i1_PWM_DutyCycle2: [wreg+status,2+status,0]
	line	98
	
i1l2484:	
;pwm.c: 98: CCPR2L = valor >> 2;
	movf	(i1PWM_DutyCycle2@valor+1),w
	movwf	(??i1_PWM_DutyCycle2+0)+0+1
	movf	(i1PWM_DutyCycle2@valor),w
	movwf	(??i1_PWM_DutyCycle2+0)+0
	rlf	(??i1_PWM_DutyCycle2+0)+1,w
	rrf	(??i1_PWM_DutyCycle2+0)+1,f
	rrf	(??i1_PWM_DutyCycle2+0)+0,f
	rlf	(??i1_PWM_DutyCycle2+0)+1,w
	rrf	(??i1_PWM_DutyCycle2+0)+1,f
	rrf	(??i1_PWM_DutyCycle2+0)+0,f
	movf	0+(??i1_PWM_DutyCycle2+0)+0,w
	bcf	status, 5	;RP0=0, select bank0
	bcf	status, 6	;RP1=0, select bank0
	movwf	(27)	;volatile
	line	99
	
i1l2486:	
;pwm.c: 99: CCP2CON = (valor << 4)|0X0C;
	movf	(i1PWM_DutyCycle2@valor),w
	movwf	(??i1_PWM_DutyCycle2+0)+0
	movlw	(04h)-1
u288_25:
	clrc
	rlf	(??i1_PWM_DutyCycle2+0)+0,f
	addlw	-1
	skipz
	goto	u288_25
	clrc
	rlf	(??i1_PWM_DutyCycle2+0)+0,w
	iorlw	0Ch
	movwf	(29)	;volatile
	line	100
	
i1l436:	
	return
	opt stack 0
GLOBAL	__end_ofi1_PWM_DutyCycle2
	__end_ofi1_PWM_DutyCycle2:
	signat	i1_PWM_DutyCycle2,88
	global	_trimf

;; *************** function _trimf *****************
;; Defined at:
;;		line 66 in file "R:\Note\Sistema I\Ultimo C no MPLAB\main.c"
;; Parameters:    Size  Location     Type
;;  x               3   29[BANK0 ] float 
;;  a               3   32[BANK0 ] float 
;;  b               3   35[BANK0 ] float 
;;  c               3   38[BANK0 ] float 
;; Auto vars:     Size  Location     Type
;;  ua              3   41[BANK0 ] float 
;; Return value:  Size  Location     Type
;;                  3   29[BANK0 ] float 
;; Registers used:
;;		wreg, status,2, status,0, pclath, cstack
;; Tracked objects:
;;		On entry : 0/0
;;		On exit  : 0/0
;;		Unchanged: 0/0
;; Data sizes:     COMMON   BANK0   BANK1   BANK3   BANK2
;;      Params:         0      12       0       0       0
;;      Locals:         0       3       0       0       0
;;      Temps:          0       0       0       0       0
;;      Totals:         0      15       0       0       0
;;Total ram usage:       15 bytes
;; Hardware stack levels used:    1
;; Hardware stack levels required when called:    2
;; This function calls:
;;		___ftadd
;;		___ftdiv
;;		___ftge
;;		___ftneg
;; This function is called by:
;;		_Fuzzy
;; This function uses a non-reentrant model
;;
psect	text24,local,class=CODE,delta=2,merge=1
	file	"R:\Note\Sistema I\Ultimo C no MPLAB\main.c"
	line	66
global __ptext24
__ptext24:	;psect for function _trimf
psect	text24
	file	"R:\Note\Sistema I\Ultimo C no MPLAB\main.c"
	line	66
	global	__size_of_trimf
	__size_of_trimf	equ	__end_of_trimf-_trimf
	
_trimf:	
;incstack = 0
	opt	stack 1
; Regs used in _trimf: [wreg+status,2+status,0+pclath+cstack]
	line	68
	
i1l2208:	
;main.c: 68: float ua = 0;
	movlw	0x0
	bcf	status, 5	;RP0=0, select bank0
	bcf	status, 6	;RP1=0, select bank0
	movwf	(trimf@ua)
	movlw	0x0
	movwf	(trimf@ua+1)
	movlw	0x0
	movwf	(trimf@ua+2)
	line	70
	
i1l2210:	
;main.c: 70: if (x <= a)
	movf	(trimf@a),w
	movwf	(___ftge@ff1)
	movf	(trimf@a+1),w
	movwf	(___ftge@ff1+1)
	movf	(trimf@a+2),w
	movwf	(___ftge@ff1+2)
	movf	(trimf@x),w
	movwf	(___ftge@ff2)
	movf	(trimf@x+1),w
	movwf	(___ftge@ff2+1)
	movf	(trimf@x+2),w
	movwf	(___ftge@ff2+2)
	fcall	___ftge
	btfss	status,0
	goto	u226_21
	goto	u226_20
u226_21:
	goto	i1l2214
u226_20:
	line	71
	
i1l2212:	
;main.c: 71: ua = 0;
	movlw	0x0
	bcf	status, 5	;RP0=0, select bank0
	bcf	status, 6	;RP1=0, select bank0
	movwf	(trimf@ua)
	movlw	0x0
	movwf	(trimf@ua+1)
	movlw	0x0
	movwf	(trimf@ua+2)
	goto	i1l112
	line	72
	
i1l111:	
	
i1l2214:	
;main.c: 72: else if ((a < x) && (x <= b))
	bcf	status, 5	;RP0=0, select bank0
	bcf	status, 6	;RP1=0, select bank0
	movf	(trimf@a),w
	movwf	(___ftge@ff1)
	movf	(trimf@a+1),w
	movwf	(___ftge@ff1+1)
	movf	(trimf@a+2),w
	movwf	(___ftge@ff1+2)
	movf	(trimf@x),w
	movwf	(___ftge@ff2)
	movf	(trimf@x+1),w
	movwf	(___ftge@ff2+1)
	movf	(trimf@x+2),w
	movwf	(___ftge@ff2+2)
	fcall	___ftge
	btfsc	status,0
	goto	u227_21
	goto	u227_20
u227_21:
	goto	i1l2220
u227_20:
	
i1l2216:	
	bcf	status, 5	;RP0=0, select bank0
	bcf	status, 6	;RP1=0, select bank0
	movf	(trimf@b),w
	movwf	(___ftge@ff1)
	movf	(trimf@b+1),w
	movwf	(___ftge@ff1+1)
	movf	(trimf@b+2),w
	movwf	(___ftge@ff1+2)
	movf	(trimf@x),w
	movwf	(___ftge@ff2)
	movf	(trimf@x+1),w
	movwf	(___ftge@ff2+1)
	movf	(trimf@x+2),w
	movwf	(___ftge@ff2+2)
	fcall	___ftge
	btfss	status,0
	goto	u228_21
	goto	u228_20
u228_21:
	goto	i1l2220
u228_20:
	line	73
	
i1l2218:	
;main.c: 73: ua = ((x - a) / (b - a));
	bcf	status, 5	;RP0=0, select bank0
	bcf	status, 6	;RP1=0, select bank0
	movf	(trimf@b),w
	movwf	(___ftadd@f1)
	movf	(trimf@b+1),w
	movwf	(___ftadd@f1+1)
	movf	(trimf@b+2),w
	movwf	(___ftadd@f1+2)
	movf	(trimf@a),w
	movwf	(___ftneg@f1)
	movf	(trimf@a+1),w
	movwf	(___ftneg@f1+1)
	movf	(trimf@a+2),w
	movwf	(___ftneg@f1+2)
	fcall	___ftneg
	movf	(0+(?___ftneg)),w
	bcf	status, 5	;RP0=0, select bank0
	bcf	status, 6	;RP1=0, select bank0
	movwf	(___ftadd@f2)
	movf	(1+(?___ftneg)),w
	movwf	(___ftadd@f2+1)
	movf	(2+(?___ftneg)),w
	movwf	(___ftadd@f2+2)
	fcall	___ftadd
	bcf	status, 5	;RP0=0, select bank0
	bcf	status, 6	;RP1=0, select bank0
	movf	(0+(?___ftadd)),w
	movwf	(___ftdiv@f2)
	movf	(1+(?___ftadd)),w
	movwf	(___ftdiv@f2+1)
	movf	(2+(?___ftadd)),w
	movwf	(___ftdiv@f2+2)
	movf	(trimf@x),w
	movwf	(___ftadd@f1)
	movf	(trimf@x+1),w
	movwf	(___ftadd@f1+1)
	movf	(trimf@x+2),w
	movwf	(___ftadd@f1+2)
	movf	(trimf@a),w
	movwf	(___ftneg@f1)
	movf	(trimf@a+1),w
	movwf	(___ftneg@f1+1)
	movf	(trimf@a+2),w
	movwf	(___ftneg@f1+2)
	fcall	___ftneg
	movf	(0+(?___ftneg)),w
	bcf	status, 5	;RP0=0, select bank0
	bcf	status, 6	;RP1=0, select bank0
	movwf	(___ftadd@f2)
	movf	(1+(?___ftneg)),w
	movwf	(___ftadd@f2+1)
	movf	(2+(?___ftneg)),w
	movwf	(___ftadd@f2+2)
	fcall	___ftadd
	bcf	status, 5	;RP0=0, select bank0
	bcf	status, 6	;RP1=0, select bank0
	movf	(0+(?___ftadd)),w
	movwf	(___ftdiv@f1)
	movf	(1+(?___ftadd)),w
	movwf	(___ftdiv@f1+1)
	movf	(2+(?___ftadd)),w
	movwf	(___ftdiv@f1+2)
	fcall	___ftdiv
	bcf	status, 5	;RP0=0, select bank0
	bcf	status, 6	;RP1=0, select bank0
	movf	(0+(?___ftdiv)),w
	movwf	(trimf@ua)
	movf	(1+(?___ftdiv)),w
	movwf	(trimf@ua+1)
	movf	(2+(?___ftdiv)),w
	movwf	(trimf@ua+2)
	goto	i1l112
	line	74
	
i1l113:	
	
i1l2220:	
;main.c: 74: else if ((b < x) && (x <= c))
	bcf	status, 5	;RP0=0, select bank0
	bcf	status, 6	;RP1=0, select bank0
	movf	(trimf@b),w
	movwf	(___ftge@ff1)
	movf	(trimf@b+1),w
	movwf	(___ftge@ff1+1)
	movf	(trimf@b+2),w
	movwf	(___ftge@ff1+2)
	movf	(trimf@x),w
	movwf	(___ftge@ff2)
	movf	(trimf@x+1),w
	movwf	(___ftge@ff2+1)
	movf	(trimf@x+2),w
	movwf	(___ftge@ff2+2)
	fcall	___ftge
	btfsc	status,0
	goto	u229_21
	goto	u229_20
u229_21:
	goto	i1l2226
u229_20:
	
i1l2222:	
	bcf	status, 5	;RP0=0, select bank0
	bcf	status, 6	;RP1=0, select bank0
	movf	(trimf@c),w
	movwf	(___ftge@ff1)
	movf	(trimf@c+1),w
	movwf	(___ftge@ff1+1)
	movf	(trimf@c+2),w
	movwf	(___ftge@ff1+2)
	movf	(trimf@x),w
	movwf	(___ftge@ff2)
	movf	(trimf@x+1),w
	movwf	(___ftge@ff2+1)
	movf	(trimf@x+2),w
	movwf	(___ftge@ff2+2)
	fcall	___ftge
	btfss	status,0
	goto	u230_21
	goto	u230_20
u230_21:
	goto	i1l2226
u230_20:
	line	75
	
i1l2224:	
;main.c: 75: ua = ((x - c) / (b - c));
	bcf	status, 5	;RP0=0, select bank0
	bcf	status, 6	;RP1=0, select bank0
	movf	(trimf@b),w
	movwf	(___ftadd@f1)
	movf	(trimf@b+1),w
	movwf	(___ftadd@f1+1)
	movf	(trimf@b+2),w
	movwf	(___ftadd@f1+2)
	movf	(trimf@c),w
	movwf	(___ftneg@f1)
	movf	(trimf@c+1),w
	movwf	(___ftneg@f1+1)
	movf	(trimf@c+2),w
	movwf	(___ftneg@f1+2)
	fcall	___ftneg
	movf	(0+(?___ftneg)),w
	bcf	status, 5	;RP0=0, select bank0
	bcf	status, 6	;RP1=0, select bank0
	movwf	(___ftadd@f2)
	movf	(1+(?___ftneg)),w
	movwf	(___ftadd@f2+1)
	movf	(2+(?___ftneg)),w
	movwf	(___ftadd@f2+2)
	fcall	___ftadd
	bcf	status, 5	;RP0=0, select bank0
	bcf	status, 6	;RP1=0, select bank0
	movf	(0+(?___ftadd)),w
	movwf	(___ftdiv@f2)
	movf	(1+(?___ftadd)),w
	movwf	(___ftdiv@f2+1)
	movf	(2+(?___ftadd)),w
	movwf	(___ftdiv@f2+2)
	movf	(trimf@x),w
	movwf	(___ftadd@f1)
	movf	(trimf@x+1),w
	movwf	(___ftadd@f1+1)
	movf	(trimf@x+2),w
	movwf	(___ftadd@f1+2)
	movf	(trimf@c),w
	movwf	(___ftneg@f1)
	movf	(trimf@c+1),w
	movwf	(___ftneg@f1+1)
	movf	(trimf@c+2),w
	movwf	(___ftneg@f1+2)
	fcall	___ftneg
	movf	(0+(?___ftneg)),w
	bcf	status, 5	;RP0=0, select bank0
	bcf	status, 6	;RP1=0, select bank0
	movwf	(___ftadd@f2)
	movf	(1+(?___ftneg)),w
	movwf	(___ftadd@f2+1)
	movf	(2+(?___ftneg)),w
	movwf	(___ftadd@f2+2)
	fcall	___ftadd
	bcf	status, 5	;RP0=0, select bank0
	bcf	status, 6	;RP1=0, select bank0
	movf	(0+(?___ftadd)),w
	movwf	(___ftdiv@f1)
	movf	(1+(?___ftadd)),w
	movwf	(___ftdiv@f1+1)
	movf	(2+(?___ftadd)),w
	movwf	(___ftdiv@f1+2)
	fcall	___ftdiv
	bcf	status, 5	;RP0=0, select bank0
	bcf	status, 6	;RP1=0, select bank0
	movf	(0+(?___ftdiv)),w
	movwf	(trimf@ua)
	movf	(1+(?___ftdiv)),w
	movwf	(trimf@ua+1)
	movf	(2+(?___ftdiv)),w
	movwf	(trimf@ua+2)
	goto	i1l112
	line	76
	
i1l115:	
	
i1l2226:	
;main.c: 76: else if (x > c)
	bcf	status, 5	;RP0=0, select bank0
	bcf	status, 6	;RP1=0, select bank0
	movf	(trimf@c),w
	movwf	(___ftge@ff1)
	movf	(trimf@c+1),w
	movwf	(___ftge@ff1+1)
	movf	(trimf@c+2),w
	movwf	(___ftge@ff1+2)
	movf	(trimf@x),w
	movwf	(___ftge@ff2)
	movf	(trimf@x+1),w
	movwf	(___ftge@ff2+1)
	movf	(trimf@x+2),w
	movwf	(___ftge@ff2+2)
	fcall	___ftge
	btfsc	status,0
	goto	u231_21
	goto	u231_20
u231_21:
	goto	i1l112
u231_20:
	line	77
	
i1l2228:	
;main.c: 77: ua = 0;
	movlw	0x0
	bcf	status, 5	;RP0=0, select bank0
	bcf	status, 6	;RP1=0, select bank0
	movwf	(trimf@ua)
	movlw	0x0
	movwf	(trimf@ua+1)
	movlw	0x0
	movwf	(trimf@ua+2)
	goto	i1l112
	
i1l117:	
	goto	i1l112
	line	79
	
i1l116:	
	goto	i1l112
	
i1l114:	
	
i1l112:	
;main.c: 79: return(ua);
	bcf	status, 5	;RP0=0, select bank0
	bcf	status, 6	;RP1=0, select bank0
	movf	(trimf@ua),w
	movwf	(?_trimf)
	movf	(trimf@ua+1),w
	movwf	(?_trimf+1)
	movf	(trimf@ua+2),w
	movwf	(?_trimf+2)
	goto	i1l118
	
i1l2230:	
	line	80
	
i1l118:	
	return
	opt stack 0
GLOBAL	__end_of_trimf
	__end_of_trimf:
	signat	_trimf,16507
	global	_trapmf

;; *************** function _trapmf *****************
;; Defined at:
;;		line 85 in file "R:\Note\Sistema I\Ultimo C no MPLAB\main.c"
;; Parameters:    Size  Location     Type
;;  x               3   29[BANK0 ] float 
;;  a               3   32[BANK0 ] float 
;;  b               3   35[BANK0 ] float 
;;  c               3   38[BANK0 ] float 
;;  d               3   41[BANK0 ] float 
;; Auto vars:     Size  Location     Type
;;  ua              3   44[BANK0 ] float 
;; Return value:  Size  Location     Type
;;                  3   29[BANK0 ] float 
;; Registers used:
;;		wreg, status,2, status,0, pclath, cstack
;; Tracked objects:
;;		On entry : 0/0
;;		On exit  : 0/0
;;		Unchanged: 0/0
;; Data sizes:     COMMON   BANK0   BANK1   BANK3   BANK2
;;      Params:         0      15       0       0       0
;;      Locals:         0       3       0       0       0
;;      Temps:          0       0       0       0       0
;;      Totals:         0      18       0       0       0
;;Total ram usage:       18 bytes
;; Hardware stack levels used:    1
;; Hardware stack levels required when called:    2
;; This function calls:
;;		___ftadd
;;		___ftdiv
;;		___ftge
;;		___ftneg
;; This function is called by:
;;		_Fuzzy
;; This function uses a non-reentrant model
;;
psect	text25,local,class=CODE,delta=2,merge=1
	line	85
global __ptext25
__ptext25:	;psect for function _trapmf
psect	text25
	file	"R:\Note\Sistema I\Ultimo C no MPLAB\main.c"
	line	85
	global	__size_of_trapmf
	__size_of_trapmf	equ	__end_of_trapmf-_trapmf
	
_trapmf:	
;incstack = 0
	opt	stack 1
; Regs used in _trapmf: [wreg+status,2+status,0+pclath+cstack]
	line	87
	
i1l2232:	
;main.c: 87: float ua = 0;
	movlw	0x0
	bcf	status, 5	;RP0=0, select bank0
	bcf	status, 6	;RP1=0, select bank0
	movwf	(trapmf@ua)
	movlw	0x0
	movwf	(trapmf@ua+1)
	movlw	0x0
	movwf	(trapmf@ua+2)
	line	89
	
i1l2234:	
;main.c: 89: if (x <= a)
	movf	(trapmf@a),w
	movwf	(___ftge@ff1)
	movf	(trapmf@a+1),w
	movwf	(___ftge@ff1+1)
	movf	(trapmf@a+2),w
	movwf	(___ftge@ff1+2)
	movf	(trapmf@x),w
	movwf	(___ftge@ff2)
	movf	(trapmf@x+1),w
	movwf	(___ftge@ff2+1)
	movf	(trapmf@x+2),w
	movwf	(___ftge@ff2+2)
	fcall	___ftge
	btfss	status,0
	goto	u232_21
	goto	u232_20
u232_21:
	goto	i1l2238
u232_20:
	line	90
	
i1l2236:	
;main.c: 90: ua = 0;
	movlw	0x0
	bcf	status, 5	;RP0=0, select bank0
	bcf	status, 6	;RP1=0, select bank0
	movwf	(trapmf@ua)
	movlw	0x0
	movwf	(trapmf@ua+1)
	movlw	0x0
	movwf	(trapmf@ua+2)
	goto	i1l122
	line	91
	
i1l121:	
	
i1l2238:	
;main.c: 91: else if ((a < x) && (x <= b))
	bcf	status, 5	;RP0=0, select bank0
	bcf	status, 6	;RP1=0, select bank0
	movf	(trapmf@a),w
	movwf	(___ftge@ff1)
	movf	(trapmf@a+1),w
	movwf	(___ftge@ff1+1)
	movf	(trapmf@a+2),w
	movwf	(___ftge@ff1+2)
	movf	(trapmf@x),w
	movwf	(___ftge@ff2)
	movf	(trapmf@x+1),w
	movwf	(___ftge@ff2+1)
	movf	(trapmf@x+2),w
	movwf	(___ftge@ff2+2)
	fcall	___ftge
	btfsc	status,0
	goto	u233_21
	goto	u233_20
u233_21:
	goto	i1l2244
u233_20:
	
i1l2240:	
	bcf	status, 5	;RP0=0, select bank0
	bcf	status, 6	;RP1=0, select bank0
	movf	(trapmf@b),w
	movwf	(___ftge@ff1)
	movf	(trapmf@b+1),w
	movwf	(___ftge@ff1+1)
	movf	(trapmf@b+2),w
	movwf	(___ftge@ff1+2)
	movf	(trapmf@x),w
	movwf	(___ftge@ff2)
	movf	(trapmf@x+1),w
	movwf	(___ftge@ff2+1)
	movf	(trapmf@x+2),w
	movwf	(___ftge@ff2+2)
	fcall	___ftge
	btfss	status,0
	goto	u234_21
	goto	u234_20
u234_21:
	goto	i1l2244
u234_20:
	line	92
	
i1l2242:	
;main.c: 92: ua = ((x - a) / (b - a));
	bcf	status, 5	;RP0=0, select bank0
	bcf	status, 6	;RP1=0, select bank0
	movf	(trapmf@b),w
	movwf	(___ftadd@f1)
	movf	(trapmf@b+1),w
	movwf	(___ftadd@f1+1)
	movf	(trapmf@b+2),w
	movwf	(___ftadd@f1+2)
	movf	(trapmf@a),w
	movwf	(___ftneg@f1)
	movf	(trapmf@a+1),w
	movwf	(___ftneg@f1+1)
	movf	(trapmf@a+2),w
	movwf	(___ftneg@f1+2)
	fcall	___ftneg
	movf	(0+(?___ftneg)),w
	bcf	status, 5	;RP0=0, select bank0
	bcf	status, 6	;RP1=0, select bank0
	movwf	(___ftadd@f2)
	movf	(1+(?___ftneg)),w
	movwf	(___ftadd@f2+1)
	movf	(2+(?___ftneg)),w
	movwf	(___ftadd@f2+2)
	fcall	___ftadd
	bcf	status, 5	;RP0=0, select bank0
	bcf	status, 6	;RP1=0, select bank0
	movf	(0+(?___ftadd)),w
	movwf	(___ftdiv@f2)
	movf	(1+(?___ftadd)),w
	movwf	(___ftdiv@f2+1)
	movf	(2+(?___ftadd)),w
	movwf	(___ftdiv@f2+2)
	movf	(trapmf@x),w
	movwf	(___ftadd@f1)
	movf	(trapmf@x+1),w
	movwf	(___ftadd@f1+1)
	movf	(trapmf@x+2),w
	movwf	(___ftadd@f1+2)
	movf	(trapmf@a),w
	movwf	(___ftneg@f1)
	movf	(trapmf@a+1),w
	movwf	(___ftneg@f1+1)
	movf	(trapmf@a+2),w
	movwf	(___ftneg@f1+2)
	fcall	___ftneg
	movf	(0+(?___ftneg)),w
	bcf	status, 5	;RP0=0, select bank0
	bcf	status, 6	;RP1=0, select bank0
	movwf	(___ftadd@f2)
	movf	(1+(?___ftneg)),w
	movwf	(___ftadd@f2+1)
	movf	(2+(?___ftneg)),w
	movwf	(___ftadd@f2+2)
	fcall	___ftadd
	bcf	status, 5	;RP0=0, select bank0
	bcf	status, 6	;RP1=0, select bank0
	movf	(0+(?___ftadd)),w
	movwf	(___ftdiv@f1)
	movf	(1+(?___ftadd)),w
	movwf	(___ftdiv@f1+1)
	movf	(2+(?___ftadd)),w
	movwf	(___ftdiv@f1+2)
	fcall	___ftdiv
	bcf	status, 5	;RP0=0, select bank0
	bcf	status, 6	;RP1=0, select bank0
	movf	(0+(?___ftdiv)),w
	movwf	(trapmf@ua)
	movf	(1+(?___ftdiv)),w
	movwf	(trapmf@ua+1)
	movf	(2+(?___ftdiv)),w
	movwf	(trapmf@ua+2)
	goto	i1l122
	line	93
	
i1l123:	
	
i1l2244:	
;main.c: 93: else if ((b <= x) && (x <= c))
	bcf	status, 5	;RP0=0, select bank0
	bcf	status, 6	;RP1=0, select bank0
	movf	(trapmf@x),w
	movwf	(___ftge@ff1)
	movf	(trapmf@x+1),w
	movwf	(___ftge@ff1+1)
	movf	(trapmf@x+2),w
	movwf	(___ftge@ff1+2)
	movf	(trapmf@b),w
	movwf	(___ftge@ff2)
	movf	(trapmf@b+1),w
	movwf	(___ftge@ff2+1)
	movf	(trapmf@b+2),w
	movwf	(___ftge@ff2+2)
	fcall	___ftge
	btfss	status,0
	goto	u235_21
	goto	u235_20
u235_21:
	goto	i1l2250
u235_20:
	
i1l2246:	
	bcf	status, 5	;RP0=0, select bank0
	bcf	status, 6	;RP1=0, select bank0
	movf	(trapmf@c),w
	movwf	(___ftge@ff1)
	movf	(trapmf@c+1),w
	movwf	(___ftge@ff1+1)
	movf	(trapmf@c+2),w
	movwf	(___ftge@ff1+2)
	movf	(trapmf@x),w
	movwf	(___ftge@ff2)
	movf	(trapmf@x+1),w
	movwf	(___ftge@ff2+1)
	movf	(trapmf@x+2),w
	movwf	(___ftge@ff2+2)
	fcall	___ftge
	btfss	status,0
	goto	u236_21
	goto	u236_20
u236_21:
	goto	i1l2250
u236_20:
	line	94
	
i1l2248:	
;main.c: 94: ua = 1;
	movlw	0x0
	bcf	status, 5	;RP0=0, select bank0
	bcf	status, 6	;RP1=0, select bank0
	movwf	(trapmf@ua)
	movlw	0x80
	movwf	(trapmf@ua+1)
	movlw	0x3f
	movwf	(trapmf@ua+2)
	goto	i1l122
	line	95
	
i1l125:	
	
i1l2250:	
;main.c: 95: else if ((c < x) && (x <= d))
	bcf	status, 5	;RP0=0, select bank0
	bcf	status, 6	;RP1=0, select bank0
	movf	(trapmf@c),w
	movwf	(___ftge@ff1)
	movf	(trapmf@c+1),w
	movwf	(___ftge@ff1+1)
	movf	(trapmf@c+2),w
	movwf	(___ftge@ff1+2)
	movf	(trapmf@x),w
	movwf	(___ftge@ff2)
	movf	(trapmf@x+1),w
	movwf	(___ftge@ff2+1)
	movf	(trapmf@x+2),w
	movwf	(___ftge@ff2+2)
	fcall	___ftge
	btfsc	status,0
	goto	u237_21
	goto	u237_20
u237_21:
	goto	i1l2256
u237_20:
	
i1l2252:	
	bcf	status, 5	;RP0=0, select bank0
	bcf	status, 6	;RP1=0, select bank0
	movf	(trapmf@d),w
	movwf	(___ftge@ff1)
	movf	(trapmf@d+1),w
	movwf	(___ftge@ff1+1)
	movf	(trapmf@d+2),w
	movwf	(___ftge@ff1+2)
	movf	(trapmf@x),w
	movwf	(___ftge@ff2)
	movf	(trapmf@x+1),w
	movwf	(___ftge@ff2+1)
	movf	(trapmf@x+2),w
	movwf	(___ftge@ff2+2)
	fcall	___ftge
	btfss	status,0
	goto	u238_21
	goto	u238_20
u238_21:
	goto	i1l2256
u238_20:
	line	96
	
i1l2254:	
;main.c: 96: ua = ((d - x) / (d - c));
	bcf	status, 5	;RP0=0, select bank0
	bcf	status, 6	;RP1=0, select bank0
	movf	(trapmf@d),w
	movwf	(___ftadd@f1)
	movf	(trapmf@d+1),w
	movwf	(___ftadd@f1+1)
	movf	(trapmf@d+2),w
	movwf	(___ftadd@f1+2)
	movf	(trapmf@c),w
	movwf	(___ftneg@f1)
	movf	(trapmf@c+1),w
	movwf	(___ftneg@f1+1)
	movf	(trapmf@c+2),w
	movwf	(___ftneg@f1+2)
	fcall	___ftneg
	movf	(0+(?___ftneg)),w
	bcf	status, 5	;RP0=0, select bank0
	bcf	status, 6	;RP1=0, select bank0
	movwf	(___ftadd@f2)
	movf	(1+(?___ftneg)),w
	movwf	(___ftadd@f2+1)
	movf	(2+(?___ftneg)),w
	movwf	(___ftadd@f2+2)
	fcall	___ftadd
	bcf	status, 5	;RP0=0, select bank0
	bcf	status, 6	;RP1=0, select bank0
	movf	(0+(?___ftadd)),w
	movwf	(___ftdiv@f2)
	movf	(1+(?___ftadd)),w
	movwf	(___ftdiv@f2+1)
	movf	(2+(?___ftadd)),w
	movwf	(___ftdiv@f2+2)
	movf	(trapmf@d),w
	movwf	(___ftadd@f1)
	movf	(trapmf@d+1),w
	movwf	(___ftadd@f1+1)
	movf	(trapmf@d+2),w
	movwf	(___ftadd@f1+2)
	movf	(trapmf@x),w
	movwf	(___ftneg@f1)
	movf	(trapmf@x+1),w
	movwf	(___ftneg@f1+1)
	movf	(trapmf@x+2),w
	movwf	(___ftneg@f1+2)
	fcall	___ftneg
	movf	(0+(?___ftneg)),w
	bcf	status, 5	;RP0=0, select bank0
	bcf	status, 6	;RP1=0, select bank0
	movwf	(___ftadd@f2)
	movf	(1+(?___ftneg)),w
	movwf	(___ftadd@f2+1)
	movf	(2+(?___ftneg)),w
	movwf	(___ftadd@f2+2)
	fcall	___ftadd
	bcf	status, 5	;RP0=0, select bank0
	bcf	status, 6	;RP1=0, select bank0
	movf	(0+(?___ftadd)),w
	movwf	(___ftdiv@f1)
	movf	(1+(?___ftadd)),w
	movwf	(___ftdiv@f1+1)
	movf	(2+(?___ftadd)),w
	movwf	(___ftdiv@f1+2)
	fcall	___ftdiv
	bcf	status, 5	;RP0=0, select bank0
	bcf	status, 6	;RP1=0, select bank0
	movf	(0+(?___ftdiv)),w
	movwf	(trapmf@ua)
	movf	(1+(?___ftdiv)),w
	movwf	(trapmf@ua+1)
	movf	(2+(?___ftdiv)),w
	movwf	(trapmf@ua+2)
	goto	i1l122
	line	97
	
i1l127:	
	
i1l2256:	
;main.c: 97: else if (x > d)
	bcf	status, 5	;RP0=0, select bank0
	bcf	status, 6	;RP1=0, select bank0
	movf	(trapmf@d),w
	movwf	(___ftge@ff1)
	movf	(trapmf@d+1),w
	movwf	(___ftge@ff1+1)
	movf	(trapmf@d+2),w
	movwf	(___ftge@ff1+2)
	movf	(trapmf@x),w
	movwf	(___ftge@ff2)
	movf	(trapmf@x+1),w
	movwf	(___ftge@ff2+1)
	movf	(trapmf@x+2),w
	movwf	(___ftge@ff2+2)
	fcall	___ftge
	btfsc	status,0
	goto	u239_21
	goto	u239_20
u239_21:
	goto	i1l122
u239_20:
	line	98
	
i1l2258:	
;main.c: 98: ua = 0;
	movlw	0x0
	bcf	status, 5	;RP0=0, select bank0
	bcf	status, 6	;RP1=0, select bank0
	movwf	(trapmf@ua)
	movlw	0x0
	movwf	(trapmf@ua+1)
	movlw	0x0
	movwf	(trapmf@ua+2)
	goto	i1l122
	
i1l129:	
	goto	i1l122
	line	100
	
i1l128:	
	goto	i1l122
	
i1l126:	
	goto	i1l122
	
i1l124:	
	
i1l122:	
;main.c: 100: return(ua);
	bcf	status, 5	;RP0=0, select bank0
	bcf	status, 6	;RP1=0, select bank0
	movf	(trapmf@ua),w
	movwf	(?_trapmf)
	movf	(trapmf@ua+1),w
	movwf	(?_trapmf+1)
	movf	(trapmf@ua+2),w
	movwf	(?_trapmf+2)
	goto	i1l130
	
i1l2260:	
	line	101
	
i1l130:	
	return
	opt stack 0
GLOBAL	__end_of_trapmf
	__end_of_trapmf:
	signat	_trapmf,20603
	global	___ftneg

;; *************** function ___ftneg *****************
;; Defined at:
;;		line 15 in file "C:\Program Files (x86)\Microchip\xc8\v1.33\sources\common\ftneg.c"
;; Parameters:    Size  Location     Type
;;  f1              3    0[COMMON] float 
;; Auto vars:     Size  Location     Type
;;		None
;; Return value:  Size  Location     Type
;;                  3    0[COMMON] float 
;; Registers used:
;;		wreg
;; Tracked objects:
;;		On entry : 0/0
;;		On exit  : 0/0
;;		Unchanged: 0/0
;; Data sizes:     COMMON   BANK0   BANK1   BANK3   BANK2
;;      Params:         3       0       0       0       0
;;      Locals:         0       0       0       0       0
;;      Temps:          0       0       0       0       0
;;      Totals:         3       0       0       0       0
;;Total ram usage:        3 bytes
;; Hardware stack levels used:    1
;; This function calls:
;;		Nothing
;; This function is called by:
;;		_trimf
;;		_trapmf
;; This function uses a non-reentrant model
;;
psect	text26,local,class=CODE,delta=2,merge=1
	file	"C:\Program Files (x86)\Microchip\xc8\v1.33\sources\common\ftneg.c"
	line	15
global __ptext26
__ptext26:	;psect for function ___ftneg
psect	text26
	file	"C:\Program Files (x86)\Microchip\xc8\v1.33\sources\common\ftneg.c"
	line	15
	global	__size_of___ftneg
	__size_of___ftneg	equ	__end_of___ftneg-___ftneg
	
___ftneg:	
;incstack = 0
	opt	stack 2
; Regs used in ___ftneg: [wreg]
	line	17
	
i1l2200:	
	movf	(___ftneg@f1+2),w
	iorwf	(___ftneg@f1+1),w
	iorwf	(___ftneg@f1),w
	skipnz
	goto	u225_21
	goto	u225_20
u225_21:
	goto	i1l2204
u225_20:
	line	18
	
i1l2202:	
	movlw	080h
	xorwf	(___ftneg@f1+2),f
	goto	i1l2204
	
i1l777:	
	line	19
	
i1l2204:	
	goto	i1l778
	
i1l2206:	
	line	20
	
i1l778:	
	return
	opt stack 0
GLOBAL	__end_of___ftneg
	__end_of___ftneg:
	signat	___ftneg,4219
	global	___ftdiv

;; *************** function ___ftdiv *****************
;; Defined at:
;;		line 49 in file "C:\Program Files (x86)\Microchip\xc8\v1.33\sources\pic\ftdiv.c"
;; Parameters:    Size  Location     Type
;;  f2              3   13[BANK0 ] float 
;;  f1              3   16[BANK0 ] float 
;; Auto vars:     Size  Location     Type
;;  f3              3   24[BANK0 ] float 
;;  sign            1   28[BANK0 ] unsigned char 
;;  exp             1   27[BANK0 ] unsigned char 
;;  cntr            1   23[BANK0 ] unsigned char 
;; Return value:  Size  Location     Type
;;                  3   13[BANK0 ] float 
;; Registers used:
;;		wreg, status,2, status,0, pclath, cstack
;; Tracked objects:
;;		On entry : 0/0
;;		On exit  : 0/0
;;		Unchanged: 0/0
;; Data sizes:     COMMON   BANK0   BANK1   BANK3   BANK2
;;      Params:         0       6       0       0       0
;;      Locals:         0       6       0       0       0
;;      Temps:          0       4       0       0       0
;;      Totals:         0      16       0       0       0
;;Total ram usage:       16 bytes
;; Hardware stack levels used:    1
;; Hardware stack levels required when called:    1
;; This function calls:
;;		___ftpack
;; This function is called by:
;;		_trimf
;;		_trapmf
;;		_Fuzzy
;; This function uses a non-reentrant model
;;
psect	text27,local,class=CODE,delta=2,merge=1
	file	"C:\Program Files (x86)\Microchip\xc8\v1.33\sources\pic\ftdiv.c"
	line	49
global __ptext27
__ptext27:	;psect for function ___ftdiv
psect	text27
	file	"C:\Program Files (x86)\Microchip\xc8\v1.33\sources\pic\ftdiv.c"
	line	49
	global	__size_of___ftdiv
	__size_of___ftdiv	equ	__end_of___ftdiv-___ftdiv
	
___ftdiv:	
;incstack = 0
	opt	stack 1
; Regs used in ___ftdiv: [wreg+status,2+status,0+pclath+cstack]
	line	55
	
i1l2138:	
	bcf	status, 5	;RP0=0, select bank0
	bcf	status, 6	;RP1=0, select bank0
	movf	(___ftdiv@f1),w
	movwf	((??___ftdiv+0)+0)
	movf	(___ftdiv@f1+1),w
	movwf	((??___ftdiv+0)+0+1)
	movf	(___ftdiv@f1+2),w
	movwf	((??___ftdiv+0)+0+2)
	clrc
	rlf	(??___ftdiv+0)+1,w
	rlf	(??___ftdiv+0)+2,w
	movwf	(??___ftdiv+3)+0
	movf	(??___ftdiv+3)+0,w
	movwf	(___ftdiv@exp)
	movf	((___ftdiv@exp)),f
	skipz
	goto	u212_21
	goto	u212_20
u212_21:
	goto	i1l2144
u212_20:
	line	56
	
i1l2140:	
	movlw	0x0
	movwf	(?___ftdiv)
	movlw	0x0
	movwf	(?___ftdiv+1)
	movlw	0x0
	movwf	(?___ftdiv+2)
	goto	i1l752
	
i1l2142:	
	goto	i1l752
	
i1l751:	
	line	57
	
i1l2144:	
	movf	(___ftdiv@f2),w
	movwf	((??___ftdiv+0)+0)
	movf	(___ftdiv@f2+1),w
	movwf	((??___ftdiv+0)+0+1)
	movf	(___ftdiv@f2+2),w
	movwf	((??___ftdiv+0)+0+2)
	clrc
	rlf	(??___ftdiv+0)+1,w
	rlf	(??___ftdiv+0)+2,w
	movwf	(??___ftdiv+3)+0
	movf	(??___ftdiv+3)+0,w
	movwf	(___ftdiv@sign)
	movf	((___ftdiv@sign)),f
	skipz
	goto	u213_21
	goto	u213_20
u213_21:
	goto	i1l2150
u213_20:
	line	58
	
i1l2146:	
	movlw	0x0
	movwf	(?___ftdiv)
	movlw	0x0
	movwf	(?___ftdiv+1)
	movlw	0x0
	movwf	(?___ftdiv+2)
	goto	i1l752
	
i1l2148:	
	goto	i1l752
	
i1l753:	
	line	59
	
i1l2150:	
	movlw	0
	movwf	(___ftdiv@f3)
	movlw	0
	movwf	(___ftdiv@f3+1)
	movlw	0
	movwf	(___ftdiv@f3+2)
	line	60
	
i1l2152:	
	movlw	(089h)
	addwf	(___ftdiv@sign),w
	movwf	(??___ftdiv+0)+0
	movf	0+(??___ftdiv+0)+0,w
	subwf	(___ftdiv@exp),f
	line	61
	
i1l2154:	
	movf	(___ftdiv@f1),w
	movwf	((??___ftdiv+0)+0)
	movf	(___ftdiv@f1+1),w
	movwf	((??___ftdiv+0)+0+1)
	movf	(___ftdiv@f1+2),w
	movwf	((??___ftdiv+0)+0+2)
	movlw	010h
u214_25:
	clrc
	rrf	(??___ftdiv+0)+2,f
	rrf	(??___ftdiv+0)+1,f
	rrf	(??___ftdiv+0)+0,f
u214_20:
	addlw	-1
	skipz
	goto	u214_25
	movf	0+(??___ftdiv+0)+0,w
	movwf	(??___ftdiv+3)+0
	movf	(??___ftdiv+3)+0,w
	movwf	(___ftdiv@sign)
	line	62
	
i1l2156:	
	movf	(___ftdiv@f2),w
	movwf	((??___ftdiv+0)+0)
	movf	(___ftdiv@f2+1),w
	movwf	((??___ftdiv+0)+0+1)
	movf	(___ftdiv@f2+2),w
	movwf	((??___ftdiv+0)+0+2)
	movlw	010h
u215_25:
	clrc
	rrf	(??___ftdiv+0)+2,f
	rrf	(??___ftdiv+0)+1,f
	rrf	(??___ftdiv+0)+0,f
u215_20:
	addlw	-1
	skipz
	goto	u215_25
	movf	0+(??___ftdiv+0)+0,w
	movwf	(??___ftdiv+3)+0
	movf	(??___ftdiv+3)+0,w
	xorwf	(___ftdiv@sign),f
	line	63
	
i1l2158:	
	movlw	(080h)
	movwf	(??___ftdiv+0)+0
	movf	(??___ftdiv+0)+0,w
	andwf	(___ftdiv@sign),f
	line	64
	
i1l2160:	
	bsf	(___ftdiv@f1)+(15/8),(15)&7
	line	65
	movlw	0FFh
	andwf	(___ftdiv@f1),f
	movlw	0FFh
	andwf	(___ftdiv@f1+1),f
	movlw	0
	andwf	(___ftdiv@f1+2),f
	line	66
	
i1l2162:	
	bsf	(___ftdiv@f2)+(15/8),(15)&7
	line	67
	movlw	0FFh
	andwf	(___ftdiv@f2),f
	movlw	0FFh
	andwf	(___ftdiv@f2+1),f
	movlw	0
	andwf	(___ftdiv@f2+2),f
	line	68
	movlw	(018h)
	movwf	(??___ftdiv+0)+0
	movf	(??___ftdiv+0)+0,w
	movwf	(___ftdiv@cntr)
	goto	i1l2164
	line	69
	
i1l754:	
	line	70
	
i1l2164:	
	movlw	01h
u216_25:
	clrc
	rlf	(___ftdiv@f3),f
	rlf	(___ftdiv@f3+1),f
	rlf	(___ftdiv@f3+2),f
	addlw	-1
	skipz
	goto	u216_25
	line	71
	
i1l2166:	
	movf	(___ftdiv@f2+2),w
	subwf	(___ftdiv@f1+2),w
	skipz
	goto	u217_25
	movf	(___ftdiv@f2+1),w
	subwf	(___ftdiv@f1+1),w
	skipz
	goto	u217_25
	movf	(___ftdiv@f2),w
	subwf	(___ftdiv@f1),w
u217_25:
	skipc
	goto	u217_21
	goto	u217_20
u217_21:
	goto	i1l2172
u217_20:
	line	72
	
i1l2168:	
	movf	(___ftdiv@f2),w
	subwf	(___ftdiv@f1),f
	movf	(___ftdiv@f2+1),w
	skipc
	incfsz	(___ftdiv@f2+1),w
	subwf	(___ftdiv@f1+1),f
	movf	(___ftdiv@f2+2),w
	skipc
	incf	(___ftdiv@f2+2),w
	subwf	(___ftdiv@f1+2),f
	line	73
	
i1l2170:	
	bsf	(___ftdiv@f3)+(0/8),(0)&7
	goto	i1l2172
	line	74
	
i1l755:	
	line	75
	
i1l2172:	
	movlw	01h
u218_25:
	clrc
	rlf	(___ftdiv@f1),f
	rlf	(___ftdiv@f1+1),f
	rlf	(___ftdiv@f1+2),f
	addlw	-1
	skipz
	goto	u218_25
	line	76
	
i1l2174:	
	movlw	low(01h)
	subwf	(___ftdiv@cntr),f
	btfss	status,2
	goto	u219_21
	goto	u219_20
u219_21:
	goto	i1l2164
u219_20:
	goto	i1l2176
	
i1l756:	
	line	77
	
i1l2176:	
	movf	(___ftdiv@f3),w
	movwf	(___ftpack@arg)
	movf	(___ftdiv@f3+1),w
	movwf	(___ftpack@arg+1)
	movf	(___ftdiv@f3+2),w
	movwf	(___ftpack@arg+2)
	movf	(___ftdiv@exp),w
	movwf	(??___ftdiv+0)+0
	movf	(??___ftdiv+0)+0,w
	movwf	(___ftpack@exp)
	movf	(___ftdiv@sign),w
	movwf	(??___ftdiv+1)+0
	movf	(??___ftdiv+1)+0,w
	movwf	(___ftpack@sign)
	fcall	___ftpack
	movf	(0+(?___ftpack)),w
	bcf	status, 5	;RP0=0, select bank0
	bcf	status, 6	;RP1=0, select bank0
	movwf	(?___ftdiv)
	movf	(1+(?___ftpack)),w
	movwf	(?___ftdiv+1)
	movf	(2+(?___ftpack)),w
	movwf	(?___ftdiv+2)
	goto	i1l752
	
i1l2178:	
	line	78
	
i1l752:	
	return
	opt stack 0
GLOBAL	__end_of___ftdiv
	__end_of___ftdiv:
	signat	___ftdiv,8315
	global	___ftadd

;; *************** function ___ftadd *****************
;; Defined at:
;;		line 86 in file "C:\Program Files (x86)\Microchip\xc8\v1.33\sources\common\ftadd.c"
;; Parameters:    Size  Location     Type
;;  f1              3    0[BANK0 ] float 
;;  f2              3    3[BANK0 ] float 
;; Auto vars:     Size  Location     Type
;;  exp1            1   12[BANK0 ] unsigned char 
;;  exp2            1   11[BANK0 ] unsigned char 
;;  sign            1   10[BANK0 ] unsigned char 
;; Return value:  Size  Location     Type
;;                  3    0[BANK0 ] float 
;; Registers used:
;;		wreg, status,2, status,0, pclath, cstack
;; Tracked objects:
;;		On entry : 0/0
;;		On exit  : 0/0
;;		Unchanged: 0/0
;; Data sizes:     COMMON   BANK0   BANK1   BANK3   BANK2
;;      Params:         0       6       0       0       0
;;      Locals:         0       3       0       0       0
;;      Temps:          0       4       0       0       0
;;      Totals:         0      13       0       0       0
;;Total ram usage:       13 bytes
;; Hardware stack levels used:    1
;; Hardware stack levels required when called:    1
;; This function calls:
;;		___ftpack
;; This function is called by:
;;		_trimf
;;		_trapmf
;;		_Fuzzy
;; This function uses a non-reentrant model
;;
psect	text28,local,class=CODE,delta=2,merge=1
	file	"C:\Program Files (x86)\Microchip\xc8\v1.33\sources\common\ftadd.c"
	line	86
global __ptext28
__ptext28:	;psect for function ___ftadd
psect	text28
	file	"C:\Program Files (x86)\Microchip\xc8\v1.33\sources\common\ftadd.c"
	line	86
	global	__size_of___ftadd
	__size_of___ftadd	equ	__end_of___ftadd-___ftadd
	
___ftadd:	
;incstack = 0
	opt	stack 1
; Regs used in ___ftadd: [wreg+status,2+status,0+pclath+cstack]
	line	90
	
i1l2066:	
	bcf	status, 5	;RP0=0, select bank0
	bcf	status, 6	;RP1=0, select bank0
	movf	(___ftadd@f1),w
	movwf	((??___ftadd+0)+0)
	movf	(___ftadd@f1+1),w
	movwf	((??___ftadd+0)+0+1)
	movf	(___ftadd@f1+2),w
	movwf	((??___ftadd+0)+0+2)
	clrc
	rlf	(??___ftadd+0)+1,w
	rlf	(??___ftadd+0)+2,w
	movwf	(??___ftadd+3)+0
	movf	(??___ftadd+3)+0,w
	movwf	(___ftadd@exp1)
	line	91
	movf	(___ftadd@f2),w
	movwf	((??___ftadd+0)+0)
	movf	(___ftadd@f2+1),w
	movwf	((??___ftadd+0)+0+1)
	movf	(___ftadd@f2+2),w
	movwf	((??___ftadd+0)+0+2)
	clrc
	rlf	(??___ftadd+0)+1,w
	rlf	(??___ftadd+0)+2,w
	movwf	(??___ftadd+3)+0
	movf	(??___ftadd+3)+0,w
	movwf	(___ftadd@exp2)
	line	92
	
i1l2068:	
	movf	(___ftadd@exp1),w
	skipz
	goto	u188_20
	goto	i1l2074
u188_20:
	
i1l2070:	
	movf	(___ftadd@exp2),w
	subwf	(___ftadd@exp1),w
	skipnc
	goto	u189_21
	goto	u189_20
u189_21:
	goto	i1l2078
u189_20:
	
i1l2072:	
	decf	(___ftadd@exp1),w
	xorlw	0ffh
	addwf	(___ftadd@exp2),w
	movwf	(??___ftadd+0)+0
	movlw	(019h)
	subwf	0+(??___ftadd+0)+0,w
	skipc
	goto	u190_21
	goto	u190_20
u190_21:
	goto	i1l2078
u190_20:
	goto	i1l2074
	
i1l720:	
	line	93
	
i1l2074:	
	movf	(___ftadd@f2),w
	movwf	(?___ftadd)
	movf	(___ftadd@f2+1),w
	movwf	(?___ftadd+1)
	movf	(___ftadd@f2+2),w
	movwf	(?___ftadd+2)
	goto	i1l721
	
i1l2076:	
	goto	i1l721
	
i1l718:	
	line	94
	
i1l2078:	
	movf	(___ftadd@exp2),w
	skipz
	goto	u191_20
	goto	i1l724
u191_20:
	
i1l2080:	
	movf	(___ftadd@exp1),w
	subwf	(___ftadd@exp2),w
	skipnc
	goto	u192_21
	goto	u192_20
u192_21:
	goto	i1l2084
u192_20:
	
i1l2082:	
	decf	(___ftadd@exp2),w
	xorlw	0ffh
	addwf	(___ftadd@exp1),w
	movwf	(??___ftadd+0)+0
	movlw	(019h)
	subwf	0+(??___ftadd+0)+0,w
	skipc
	goto	u193_21
	goto	u193_20
u193_21:
	goto	i1l2084
u193_20:
	
i1l724:	
	line	95
	goto	i1l721
	
i1l722:	
	line	96
	
i1l2084:	
	movlw	(06h)
	movwf	(??___ftadd+0)+0
	movf	(??___ftadd+0)+0,w
	movwf	(___ftadd@sign)
	line	97
	
i1l2086:	
	btfss	(___ftadd@f1+2),(23)&7
	goto	u194_21
	goto	u194_20
u194_21:
	goto	i1l725
u194_20:
	line	98
	
i1l2088:	
	bsf	(___ftadd@sign)+(7/8),(7)&7
	
i1l725:	
	line	99
	btfss	(___ftadd@f2+2),(23)&7
	goto	u195_21
	goto	u195_20
u195_21:
	goto	i1l726
u195_20:
	line	100
	
i1l2090:	
	bsf	(___ftadd@sign)+(6/8),(6)&7
	
i1l726:	
	line	101
	bsf	(___ftadd@f1)+(15/8),(15)&7
	line	102
	
i1l2092:	
	movlw	0FFh
	andwf	(___ftadd@f1),f
	movlw	0FFh
	andwf	(___ftadd@f1+1),f
	movlw	0
	andwf	(___ftadd@f1+2),f
	line	103
	
i1l2094:	
	bsf	(___ftadd@f2)+(15/8),(15)&7
	line	104
	movlw	0FFh
	andwf	(___ftadd@f2),f
	movlw	0FFh
	andwf	(___ftadd@f2+1),f
	movlw	0
	andwf	(___ftadd@f2+2),f
	line	106
	movf	(___ftadd@exp2),w
	subwf	(___ftadd@exp1),w
	skipnc
	goto	u196_21
	goto	u196_20
u196_21:
	goto	i1l2106
u196_20:
	goto	i1l2096
	line	109
	
i1l728:	
	line	110
	
i1l2096:	
	movlw	01h
u197_25:
	clrc
	rlf	(___ftadd@f2),f
	rlf	(___ftadd@f2+1),f
	rlf	(___ftadd@f2+2),f
	addlw	-1
	skipz
	goto	u197_25
	line	111
	movlw	low(01h)
	subwf	(___ftadd@exp2),f
	line	112
	
i1l2098:	
	movf	(___ftadd@exp2),w
	xorwf	(___ftadd@exp1),w
	skipnz
	goto	u198_21
	goto	u198_20
u198_21:
	goto	i1l2104
u198_20:
	
i1l2100:	
	movlw	low(01h)
	subwf	(___ftadd@sign),f
	movf	((___ftadd@sign)),w
	andlw	07h
	btfss	status,2
	goto	u199_21
	goto	u199_20
u199_21:
	goto	i1l2096
u199_20:
	goto	i1l2104
	
i1l730:	
	goto	i1l2104
	
i1l731:	
	line	113
	goto	i1l2104
	
i1l733:	
	line	114
	
i1l2102:	
	movlw	01h
u200_25:
	clrc
	rrf	(___ftadd@f1+2),f
	rrf	(___ftadd@f1+1),f
	rrf	(___ftadd@f1),f
	addlw	-1
	skipz
	goto	u200_25

	line	115
	movlw	(01h)
	movwf	(??___ftadd+0)+0
	movf	(??___ftadd+0)+0,w
	addwf	(___ftadd@exp1),f
	goto	i1l2104
	line	116
	
i1l732:	
	line	113
	
i1l2104:	
	movf	(___ftadd@exp1),w
	xorwf	(___ftadd@exp2),w
	skipz
	goto	u201_21
	goto	u201_20
u201_21:
	goto	i1l2102
u201_20:
	goto	i1l735
	
i1l734:	
	line	117
	goto	i1l735
	
i1l727:	
	
i1l2106:	
	movf	(___ftadd@exp1),w
	subwf	(___ftadd@exp2),w
	skipnc
	goto	u202_21
	goto	u202_20
u202_21:
	goto	i1l735
u202_20:
	goto	i1l2108
	line	120
	
i1l737:	
	line	121
	
i1l2108:	
	movlw	01h
u203_25:
	clrc
	rlf	(___ftadd@f1),f
	rlf	(___ftadd@f1+1),f
	rlf	(___ftadd@f1+2),f
	addlw	-1
	skipz
	goto	u203_25
	line	122
	movlw	low(01h)
	subwf	(___ftadd@exp1),f
	line	123
	
i1l2110:	
	movf	(___ftadd@exp2),w
	xorwf	(___ftadd@exp1),w
	skipnz
	goto	u204_21
	goto	u204_20
u204_21:
	goto	i1l2116
u204_20:
	
i1l2112:	
	movlw	low(01h)
	subwf	(___ftadd@sign),f
	movf	((___ftadd@sign)),w
	andlw	07h
	btfss	status,2
	goto	u205_21
	goto	u205_20
u205_21:
	goto	i1l2108
u205_20:
	goto	i1l2116
	
i1l739:	
	goto	i1l2116
	
i1l740:	
	line	124
	goto	i1l2116
	
i1l742:	
	line	125
	
i1l2114:	
	movlw	01h
u206_25:
	clrc
	rrf	(___ftadd@f2+2),f
	rrf	(___ftadd@f2+1),f
	rrf	(___ftadd@f2),f
	addlw	-1
	skipz
	goto	u206_25

	line	126
	movlw	(01h)
	movwf	(??___ftadd+0)+0
	movf	(??___ftadd+0)+0,w
	addwf	(___ftadd@exp2),f
	goto	i1l2116
	line	127
	
i1l741:	
	line	124
	
i1l2116:	
	movf	(___ftadd@exp1),w
	xorwf	(___ftadd@exp2),w
	skipz
	goto	u207_21
	goto	u207_20
u207_21:
	goto	i1l2114
u207_20:
	goto	i1l735
	
i1l743:	
	goto	i1l735
	line	128
	
i1l736:	
	line	129
	
i1l735:	
	btfss	(___ftadd@sign),(7)&7
	goto	u208_21
	goto	u208_20
u208_21:
	goto	i1l2120
u208_20:
	line	131
	
i1l2118:	
	movlw	0FFh
	xorwf	(___ftadd@f1),f
	movlw	0FFh
	xorwf	(___ftadd@f1+1),f
	movlw	0FFh
	xorwf	(___ftadd@f1+2),f
	line	132
	movlw	01h
	addwf	(___ftadd@f1),f
	movlw	0
	skipnc
movlw 1
	addwf	(___ftadd@f1+1),f
	movlw	0
	skipnc
movlw 1
	addwf	(___ftadd@f1+2),f
	goto	i1l2120
	line	133
	
i1l744:	
	line	134
	
i1l2120:	
	btfss	(___ftadd@sign),(6)&7
	goto	u209_21
	goto	u209_20
u209_21:
	goto	i1l2124
u209_20:
	line	136
	
i1l2122:	
	movlw	0FFh
	xorwf	(___ftadd@f2),f
	movlw	0FFh
	xorwf	(___ftadd@f2+1),f
	movlw	0FFh
	xorwf	(___ftadd@f2+2),f
	line	137
	movlw	01h
	addwf	(___ftadd@f2),f
	movlw	0
	skipnc
movlw 1
	addwf	(___ftadd@f2+1),f
	movlw	0
	skipnc
movlw 1
	addwf	(___ftadd@f2+2),f
	goto	i1l2124
	line	138
	
i1l745:	
	line	139
	
i1l2124:	
	clrf	(___ftadd@sign)
	line	140
	
i1l2126:	
	movf	(___ftadd@f1),w
	addwf	(___ftadd@f2),f
	movf	(___ftadd@f1+1),w
	clrz
	skipnc
	incf	(___ftadd@f1+1),w
	skipnz
	goto	u210_21
	addwf	(___ftadd@f2+1),f
u210_21:
	movf	(___ftadd@f1+2),w
	clrz
	skipnc
	incf	(___ftadd@f1+2),w
	skipnz
	goto	u210_22
	addwf	(___ftadd@f2+2),f
u210_22:

	line	141
	
i1l2128:	
	btfss	(___ftadd@f2+2),(23)&7
	goto	u211_21
	goto	u211_20
u211_21:
	goto	i1l2134
u211_20:
	line	142
	
i1l2130:	
	movlw	0FFh
	xorwf	(___ftadd@f2),f
	movlw	0FFh
	xorwf	(___ftadd@f2+1),f
	movlw	0FFh
	xorwf	(___ftadd@f2+2),f
	line	143
	movlw	01h
	addwf	(___ftadd@f2),f
	movlw	0
	skipnc
movlw 1
	addwf	(___ftadd@f2+1),f
	movlw	0
	skipnc
movlw 1
	addwf	(___ftadd@f2+2),f
	line	144
	
i1l2132:	
	clrf	(___ftadd@sign)
	incf	(___ftadd@sign),f
	goto	i1l2134
	line	145
	
i1l746:	
	line	146
	
i1l2134:	
	movf	(___ftadd@f2),w
	movwf	(___ftpack@arg)
	movf	(___ftadd@f2+1),w
	movwf	(___ftpack@arg+1)
	movf	(___ftadd@f2+2),w
	movwf	(___ftpack@arg+2)
	movf	(___ftadd@exp1),w
	movwf	(??___ftadd+0)+0
	movf	(??___ftadd+0)+0,w
	movwf	(___ftpack@exp)
	movf	(___ftadd@sign),w
	movwf	(??___ftadd+1)+0
	movf	(??___ftadd+1)+0,w
	movwf	(___ftpack@sign)
	fcall	___ftpack
	movf	(0+(?___ftpack)),w
	bcf	status, 5	;RP0=0, select bank0
	bcf	status, 6	;RP1=0, select bank0
	movwf	(?___ftadd)
	movf	(1+(?___ftpack)),w
	movwf	(?___ftadd+1)
	movf	(2+(?___ftpack)),w
	movwf	(?___ftadd+2)
	goto	i1l721
	
i1l2136:	
	line	148
	
i1l721:	
	return
	opt stack 0
GLOBAL	__end_of___ftadd
	__end_of___ftadd:
	signat	___ftadd,8315
	global	_max_val

;; *************** function _max_val *****************
;; Defined at:
;;		line 153 in file "R:\Note\Sistema I\Ultimo C no MPLAB\main.c"
;; Parameters:    Size  Location     Type
;;  a               3   12[BANK0 ] float 
;;  b               3   15[BANK0 ] float 
;; Auto vars:     Size  Location     Type
;;		None
;; Return value:  Size  Location     Type
;;                  3   12[BANK0 ] float 
;; Registers used:
;;		wreg, status,2, status,0, pclath, cstack
;; Tracked objects:
;;		On entry : 0/0
;;		On exit  : 0/0
;;		Unchanged: 0/0
;; Data sizes:     COMMON   BANK0   BANK1   BANK3   BANK2
;;      Params:         0       6       0       0       0
;;      Locals:         0       0       0       0       0
;;      Temps:          0       0       0       0       0
;;      Totals:         0       6       0       0       0
;;Total ram usage:        6 bytes
;; Hardware stack levels used:    1
;; Hardware stack levels required when called:    1
;; This function calls:
;;		___ftge
;; This function is called by:
;;		_Fuzzy
;; This function uses a non-reentrant model
;;
psect	text29,local,class=CODE,delta=2,merge=1
	file	"R:\Note\Sistema I\Ultimo C no MPLAB\main.c"
	line	153
global __ptext29
__ptext29:	;psect for function _max_val
psect	text29
	file	"R:\Note\Sistema I\Ultimo C no MPLAB\main.c"
	line	153
	global	__size_of_max_val
	__size_of_max_val	equ	__end_of_max_val-_max_val
	
_max_val:	
;incstack = 0
	opt	stack 2
; Regs used in _max_val: [wreg+status,2+status,0+pclath+cstack]
	line	155
	
i1l2262:	
;main.c: 155: if (a > b)
	bcf	status, 5	;RP0=0, select bank0
	bcf	status, 6	;RP1=0, select bank0
	movf	(max_val@b),w
	movwf	(___ftge@ff1)
	movf	(max_val@b+1),w
	movwf	(___ftge@ff1+1)
	movf	(max_val@b+2),w
	movwf	(___ftge@ff1+2)
	movf	(max_val@a),w
	movwf	(___ftge@ff2)
	movf	(max_val@a+1),w
	movwf	(___ftge@ff2+1)
	movf	(max_val@a+2),w
	movwf	(___ftge@ff2+2)
	fcall	___ftge
	btfsc	status,0
	goto	u240_21
	goto	u240_20
u240_21:
	goto	i1l2268
u240_20:
	line	156
	
i1l2264:	
;main.c: 156: return a;
	goto	i1l144
	
i1l2266:	
	goto	i1l144
	line	157
	
i1l143:	
	line	158
	
i1l2268:	
;main.c: 157: else
;main.c: 158: return b;
	bcf	status, 5	;RP0=0, select bank0
	bcf	status, 6	;RP1=0, select bank0
	movf	(max_val@b),w
	movwf	(?_max_val)
	movf	(max_val@b+1),w
	movwf	(?_max_val+1)
	movf	(max_val@b+2),w
	movwf	(?_max_val+2)
	goto	i1l144
	
i1l2270:	
	goto	i1l144
	
i1l145:	
	line	159
	
i1l144:	
	return
	opt stack 0
GLOBAL	__end_of_max_val
	__end_of_max_val:
	signat	_max_val,8315
	global	___ftge

;; *************** function ___ftge *****************
;; Defined at:
;;		line 4 in file "C:\Program Files (x86)\Microchip\xc8\v1.33\sources\common\ftge.c"
;; Parameters:    Size  Location     Type
;;  ff1             3    0[BANK0 ] float 
;;  ff2             3    3[BANK0 ] float 
;; Auto vars:     Size  Location     Type
;;		None
;; Return value:  Size  Location     Type
;;		None               void
;; Registers used:
;;		wreg, status,2, status,0
;; Tracked objects:
;;		On entry : 0/0
;;		On exit  : 0/0
;;		Unchanged: 0/0
;; Data sizes:     COMMON   BANK0   BANK1   BANK3   BANK2
;;      Params:         0       6       0       0       0
;;      Locals:         0       0       0       0       0
;;      Temps:          0       6       0       0       0
;;      Totals:         0      12       0       0       0
;;Total ram usage:       12 bytes
;; Hardware stack levels used:    1
;; This function calls:
;;		Nothing
;; This function is called by:
;;		_trimf
;;		_trapmf
;;		_max_val
;;		_Fuzzy
;;		_min_val
;; This function uses a non-reentrant model
;;
psect	text30,local,class=CODE,delta=2,merge=1
	file	"C:\Program Files (x86)\Microchip\xc8\v1.33\sources\common\ftge.c"
	line	4
global __ptext30
__ptext30:	;psect for function ___ftge
psect	text30
	file	"C:\Program Files (x86)\Microchip\xc8\v1.33\sources\common\ftge.c"
	line	4
	global	__size_of___ftge
	__size_of___ftge	equ	__end_of___ftge-___ftge
	
___ftge:	
;incstack = 0
	opt	stack 2
; Regs used in ___ftge: [wreg+status,2+status,0]
	line	6
	
i1l2180:	
	bcf	status, 5	;RP0=0, select bank0
	bcf	status, 6	;RP1=0, select bank0
	btfss	(___ftge@ff1+2),(23)&7
	goto	u220_21
	goto	u220_20
u220_21:
	goto	i1l2184
u220_20:
	line	7
	
i1l2182:	
	movlw	low(0800000h)
	movwf	((??___ftge+0)+0)
	movlw	high(0800000h)
	movwf	((??___ftge+0)+0+1)
	movlw	low highword(0800000h)
	movwf	((??___ftge+0)+0+2)
	comf	(___ftge@ff1),w
	movwf	(??___ftge+3)+0
	comf	(___ftge@ff1+1),w
	movwf	((??___ftge+3)+0+1)
	comf	(___ftge@ff1+2),w
	movwf	((??___ftge+3)+0+2)
	incf	(??___ftge+3)+0,f
	skipnz
	incf	((??___ftge+3)+0+1),f
	skipnz
	incf	((??___ftge+3)+0+2),f
	movf	0+(??___ftge+3)+0,w
	addwf	(??___ftge+0)+0,f
	movf	1+(??___ftge+3)+0,w
	skipnc
	incfsz	1+(??___ftge+3)+0,w
	goto	u221_21
	goto	u221_22
u221_21:
	addwf	(??___ftge+0)+1,f
	
u221_22:
	movf	2+(??___ftge+3)+0,w
	skipnc
	incfsz	2+(??___ftge+3)+0,w
	goto	u221_23
	goto	u221_24
u221_23:
	addwf	(??___ftge+0)+2,f
	
u221_24:
	movf	0+(??___ftge+0)+0,w
	movwf	(___ftge@ff1)
	movf	1+(??___ftge+0)+0,w
	movwf	(___ftge@ff1+1)
	movf	2+(??___ftge+0)+0,w
	movwf	(___ftge@ff1+2)
	goto	i1l2184
	
i1l759:	
	line	8
	
i1l2184:	
	btfss	(___ftge@ff2+2),(23)&7
	goto	u222_21
	goto	u222_20
u222_21:
	goto	i1l2188
u222_20:
	line	9
	
i1l2186:	
	movlw	low(0800000h)
	movwf	((??___ftge+0)+0)
	movlw	high(0800000h)
	movwf	((??___ftge+0)+0+1)
	movlw	low highword(0800000h)
	movwf	((??___ftge+0)+0+2)
	comf	(___ftge@ff2),w
	movwf	(??___ftge+3)+0
	comf	(___ftge@ff2+1),w
	movwf	((??___ftge+3)+0+1)
	comf	(___ftge@ff2+2),w
	movwf	((??___ftge+3)+0+2)
	incf	(??___ftge+3)+0,f
	skipnz
	incf	((??___ftge+3)+0+1),f
	skipnz
	incf	((??___ftge+3)+0+2),f
	movf	0+(??___ftge+3)+0,w
	addwf	(??___ftge+0)+0,f
	movf	1+(??___ftge+3)+0,w
	skipnc
	incfsz	1+(??___ftge+3)+0,w
	goto	u223_21
	goto	u223_22
u223_21:
	addwf	(??___ftge+0)+1,f
	
u223_22:
	movf	2+(??___ftge+3)+0,w
	skipnc
	incfsz	2+(??___ftge+3)+0,w
	goto	u223_23
	goto	u223_24
u223_23:
	addwf	(??___ftge+0)+2,f
	
u223_24:
	movf	0+(??___ftge+0)+0,w
	movwf	(___ftge@ff2)
	movf	1+(??___ftge+0)+0,w
	movwf	(___ftge@ff2+1)
	movf	2+(??___ftge+0)+0,w
	movwf	(___ftge@ff2+2)
	goto	i1l2188
	
i1l760:	
	line	10
	
i1l2188:	
	movlw	080h
	xorwf	(___ftge@ff1+2),f
	line	11
	
i1l2190:	
	movlw	080h
	xorwf	(___ftge@ff2+2),f
	line	12
	
i1l2192:	
	movf	(___ftge@ff2+2),w
	subwf	(___ftge@ff1+2),w
	skipz
	goto	u224_25
	movf	(___ftge@ff2+1),w
	subwf	(___ftge@ff1+1),w
	skipz
	goto	u224_25
	movf	(___ftge@ff2),w
	subwf	(___ftge@ff1),w
u224_25:
	skipnc
	goto	u224_21
	goto	u224_20
u224_21:
	goto	i1l2196
u224_20:
	
i1l2194:	
	clrc
	
	goto	i1l761
	
i1l2028:	
	
i1l2196:	
	setc
	
	goto	i1l761
	
i1l2030:	
	goto	i1l761
	
i1l2198:	
	line	13
	
i1l761:	
	return
	opt stack 0
GLOBAL	__end_of___ftge
	__end_of___ftge:
	signat	___ftge,8312
	global	___lwtoft

;; *************** function ___lwtoft *****************
;; Defined at:
;;		line 28 in file "C:\Program Files (x86)\Microchip\xc8\v1.33\sources\common\lwtoft.c"
;; Parameters:    Size  Location     Type
;;  c               2    8[COMMON] unsigned int 
;; Auto vars:     Size  Location     Type
;;		None
;; Return value:  Size  Location     Type
;;                  3    8[COMMON] float 
;; Registers used:
;;		wreg, status,2, status,0, pclath, cstack
;; Tracked objects:
;;		On entry : 0/0
;;		On exit  : 0/0
;;		Unchanged: 0/0
;; Data sizes:     COMMON   BANK0   BANK1   BANK3   BANK2
;;      Params:         3       0       0       0       0
;;      Locals:         0       0       0       0       0
;;      Temps:          1       0       0       0       0
;;      Totals:         4       0       0       0       0
;;Total ram usage:        4 bytes
;; Hardware stack levels used:    1
;; Hardware stack levels required when called:    1
;; This function calls:
;;		___ftpack
;; This function is called by:
;;		_Fuzzy
;; This function uses a non-reentrant model
;;
psect	text31,local,class=CODE,delta=2,merge=1
	file	"C:\Program Files (x86)\Microchip\xc8\v1.33\sources\common\lwtoft.c"
	line	28
global __ptext31
__ptext31:	;psect for function ___lwtoft
psect	text31
	file	"C:\Program Files (x86)\Microchip\xc8\v1.33\sources\common\lwtoft.c"
	line	28
	global	__size_of___lwtoft
	__size_of___lwtoft	equ	__end_of___lwtoft-___lwtoft
	
___lwtoft:	
;incstack = 0
	opt	stack 2
; Regs used in ___lwtoft: [wreg+status,2+status,0+pclath+cstack]
	line	30
	
i1l2480:	
	movf	(___lwtoft@c),w
	movwf	(___ftpack@arg)
	movf	(___lwtoft@c+1),w
	movwf	(___ftpack@arg+1)
	clrf	(___ftpack@arg+2)
	movlw	(08Eh)
	movwf	(??___lwtoft+0)+0
	movf	(??___lwtoft+0)+0,w
	movwf	(___ftpack@exp)
	clrf	(___ftpack@sign)
	fcall	___ftpack
	movf	(0+(?___ftpack)),w
	movwf	(?___lwtoft)
	movf	(1+(?___ftpack)),w
	movwf	(?___lwtoft+1)
	movf	(2+(?___ftpack)),w
	movwf	(?___lwtoft+2)
	goto	i1l896
	
i1l2482:	
	line	31
	
i1l896:	
	return
	opt stack 0
GLOBAL	__end_of___lwtoft
	__end_of___lwtoft:
	signat	___lwtoft,4219
	global	___lwdiv

;; *************** function ___lwdiv *****************
;; Defined at:
;;		line 6 in file "C:\Program Files (x86)\Microchip\xc8\v1.33\sources\common\lwdiv.c"
;; Parameters:    Size  Location     Type
;;  divisor         2    0[COMMON] unsigned int 
;;  dividend        2    2[COMMON] unsigned int 
;; Auto vars:     Size  Location     Type
;;  quotient        2    5[COMMON] unsigned int 
;;  counter         1    7[COMMON] unsigned char 
;; Return value:  Size  Location     Type
;;                  2    0[COMMON] unsigned int 
;; Registers used:
;;		wreg, status,2, status,0
;; Tracked objects:
;;		On entry : 0/0
;;		On exit  : 0/0
;;		Unchanged: 0/0
;; Data sizes:     COMMON   BANK0   BANK1   BANK3   BANK2
;;      Params:         4       0       0       0       0
;;      Locals:         3       0       0       0       0
;;      Temps:          1       0       0       0       0
;;      Totals:         8       0       0       0       0
;;Total ram usage:        8 bytes
;; Hardware stack levels used:    1
;; This function calls:
;;		Nothing
;; This function is called by:
;;		_Fuzzy
;;		_ISR
;; This function uses a non-reentrant model
;;
psect	text32,local,class=CODE,delta=2,merge=1
	file	"C:\Program Files (x86)\Microchip\xc8\v1.33\sources\common\lwdiv.c"
	line	6
global __ptext32
__ptext32:	;psect for function ___lwdiv
psect	text32
	file	"C:\Program Files (x86)\Microchip\xc8\v1.33\sources\common\lwdiv.c"
	line	6
	global	__size_of___lwdiv
	__size_of___lwdiv	equ	__end_of___lwdiv-___lwdiv
	
___lwdiv:	
;incstack = 0
	opt	stack 4
; Regs used in ___lwdiv: [wreg+status,2+status,0]
	line	14
	
i1l2454:	
	clrf	(___lwdiv@quotient)
	clrf	(___lwdiv@quotient+1)
	line	15
	
i1l2456:	
	movf	(___lwdiv@divisor+1),w
	iorwf	(___lwdiv@divisor),w
	skipnz
	goto	u281_21
	goto	u281_20
u281_21:
	goto	i1l2476
u281_20:
	line	16
	
i1l2458:	
	clrf	(___lwdiv@counter)
	incf	(___lwdiv@counter),f
	line	17
	goto	i1l2464
	
i1l876:	
	line	18
	
i1l2460:	
	movlw	01h
	
u282_25:
	clrc
	rlf	(___lwdiv@divisor),f
	rlf	(___lwdiv@divisor+1),f
	addlw	-1
	skipz
	goto	u282_25
	line	19
	
i1l2462:	
	movlw	(01h)
	movwf	(??___lwdiv+0)+0
	movf	(??___lwdiv+0)+0,w
	addwf	(___lwdiv@counter),f
	goto	i1l2464
	line	20
	
i1l875:	
	line	17
	
i1l2464:	
	btfss	(___lwdiv@divisor+1),(15)&7
	goto	u283_21
	goto	u283_20
u283_21:
	goto	i1l2460
u283_20:
	goto	i1l2466
	
i1l877:	
	goto	i1l2466
	line	21
	
i1l878:	
	line	22
	
i1l2466:	
	movlw	01h
	
u284_25:
	clrc
	rlf	(___lwdiv@quotient),f
	rlf	(___lwdiv@quotient+1),f
	addlw	-1
	skipz
	goto	u284_25
	line	23
	movf	(___lwdiv@divisor+1),w
	subwf	(___lwdiv@dividend+1),w
	skipz
	goto	u285_25
	movf	(___lwdiv@divisor),w
	subwf	(___lwdiv@dividend),w
u285_25:
	skipc
	goto	u285_21
	goto	u285_20
u285_21:
	goto	i1l2472
u285_20:
	line	24
	
i1l2468:	
	movf	(___lwdiv@divisor),w
	subwf	(___lwdiv@dividend),f
	movf	(___lwdiv@divisor+1),w
	skipc
	decf	(___lwdiv@dividend+1),f
	subwf	(___lwdiv@dividend+1),f
	line	25
	
i1l2470:	
	bsf	(___lwdiv@quotient)+(0/8),(0)&7
	goto	i1l2472
	line	26
	
i1l879:	
	line	27
	
i1l2472:	
	movlw	01h
	
u286_25:
	clrc
	rrf	(___lwdiv@divisor+1),f
	rrf	(___lwdiv@divisor),f
	addlw	-1
	skipz
	goto	u286_25
	line	28
	
i1l2474:	
	movlw	low(01h)
	subwf	(___lwdiv@counter),f
	btfss	status,2
	goto	u287_21
	goto	u287_20
u287_21:
	goto	i1l2466
u287_20:
	goto	i1l2476
	
i1l880:	
	goto	i1l2476
	line	29
	
i1l874:	
	line	30
	
i1l2476:	
	movf	(___lwdiv@quotient+1),w
	clrf	(?___lwdiv+1)
	addwf	(?___lwdiv+1)
	movf	(___lwdiv@quotient),w
	clrf	(?___lwdiv)
	addwf	(?___lwdiv)

	goto	i1l881
	
i1l2478:	
	line	31
	
i1l881:	
	return
	opt stack 0
GLOBAL	__end_of___lwdiv
	__end_of___lwdiv:
	signat	___lwdiv,8314
	global	___fttol

;; *************** function ___fttol *****************
;; Defined at:
;;		line 44 in file "C:\Program Files (x86)\Microchip\xc8\v1.33\sources\common\fttol.c"
;; Parameters:    Size  Location     Type
;;  f1              3   47[BANK0 ] float 
;; Auto vars:     Size  Location     Type
;;  lval            4   56[BANK0 ] unsigned long 
;;  exp1            1   60[BANK0 ] unsigned char 
;;  sign1           1   55[BANK0 ] unsigned char 
;; Return value:  Size  Location     Type
;;                  4   47[BANK0 ] long 
;; Registers used:
;;		wreg, status,2, status,0
;; Tracked objects:
;;		On entry : 0/0
;;		On exit  : 0/0
;;		Unchanged: 0/0
;; Data sizes:     COMMON   BANK0   BANK1   BANK3   BANK2
;;      Params:         0       4       0       0       0
;;      Locals:         0       6       0       0       0
;;      Temps:          0       4       0       0       0
;;      Totals:         0      14       0       0       0
;;Total ram usage:       14 bytes
;; Hardware stack levels used:    1
;; This function calls:
;;		Nothing
;; This function is called by:
;;		_Fuzzy
;; This function uses a non-reentrant model
;;
psect	text33,local,class=CODE,delta=2,merge=1
	file	"C:\Program Files (x86)\Microchip\xc8\v1.33\sources\common\fttol.c"
	line	44
global __ptext33
__ptext33:	;psect for function ___fttol
psect	text33
	file	"C:\Program Files (x86)\Microchip\xc8\v1.33\sources\common\fttol.c"
	line	44
	global	__size_of___fttol
	__size_of___fttol	equ	__end_of___fttol-___fttol
	
___fttol:	
;incstack = 0
	opt	stack 3
; Regs used in ___fttol: [wreg+status,2+status,0]
	line	49
	
i1l2410:	
	bcf	status, 5	;RP0=0, select bank0
	bcf	status, 6	;RP1=0, select bank0
	movf	(___fttol@f1),w
	movwf	((??___fttol+0)+0)
	movf	(___fttol@f1+1),w
	movwf	((??___fttol+0)+0+1)
	movf	(___fttol@f1+2),w
	movwf	((??___fttol+0)+0+2)
	clrc
	rlf	(??___fttol+0)+1,w
	rlf	(??___fttol+0)+2,w
	movwf	(??___fttol+3)+0
	movf	(??___fttol+3)+0,w
	movwf	(___fttol@exp1)
	movf	((___fttol@exp1)),f
	skipz
	goto	u271_21
	goto	u271_20
u271_21:
	goto	i1l2416
u271_20:
	line	50
	
i1l2412:	
	movlw	0
	movwf	(?___fttol+3)
	movlw	0
	movwf	(?___fttol+2)
	movlw	0
	movwf	(?___fttol+1)
	movlw	0
	movwf	(?___fttol)

	goto	i1l787
	
i1l2414:	
	goto	i1l787
	
i1l786:	
	line	51
	
i1l2416:	
	movf	(___fttol@f1),w
	movwf	((??___fttol+0)+0)
	movf	(___fttol@f1+1),w
	movwf	((??___fttol+0)+0+1)
	movf	(___fttol@f1+2),w
	movwf	((??___fttol+0)+0+2)
	movlw	017h
u272_25:
	clrc
	rrf	(??___fttol+0)+2,f
	rrf	(??___fttol+0)+1,f
	rrf	(??___fttol+0)+0,f
u272_20:
	addlw	-1
	skipz
	goto	u272_25
	movf	0+(??___fttol+0)+0,w
	movwf	(??___fttol+3)+0
	movf	(??___fttol+3)+0,w
	movwf	(___fttol@sign1)
	line	52
	
i1l2418:	
	bsf	(___fttol@f1)+(15/8),(15)&7
	line	53
	
i1l2420:	
	movlw	0FFh
	andwf	(___fttol@f1),f
	movlw	0FFh
	andwf	(___fttol@f1+1),f
	movlw	0
	andwf	(___fttol@f1+2),f
	line	54
	
i1l2422:	
	movf	(___fttol@f1),w
	movwf	(___fttol@lval)
	movf	(___fttol@f1+1),w
	movwf	((___fttol@lval))+1
	movf	(___fttol@f1+2),w
	movwf	((___fttol@lval))+2
	clrf	((___fttol@lval))+3
	line	55
	
i1l2424:	
	movlw	low(08Eh)
	subwf	(___fttol@exp1),f
	line	56
	
i1l2426:	
	btfss	(___fttol@exp1),7
	goto	u273_21
	goto	u273_20
u273_21:
	goto	i1l2436
u273_20:
	line	57
	
i1l2428:	
	movf	(___fttol@exp1),w
	xorlw	80h
	addlw	-((-15)^80h)
	skipnc
	goto	u274_21
	goto	u274_20
u274_21:
	goto	i1l2434
u274_20:
	line	58
	
i1l2430:	
	movlw	0
	movwf	(?___fttol+3)
	movlw	0
	movwf	(?___fttol+2)
	movlw	0
	movwf	(?___fttol+1)
	movlw	0
	movwf	(?___fttol)

	goto	i1l787
	
i1l2432:	
	goto	i1l787
	
i1l789:	
	goto	i1l2434
	line	59
	
i1l790:	
	line	60
	
i1l2434:	
	movlw	01h
u275_25:
	clrc
	rrf	(___fttol@lval+3),f
	rrf	(___fttol@lval+2),f
	rrf	(___fttol@lval+1),f
	rrf	(___fttol@lval),f
	addlw	-1
	skipz
	goto	u275_25

	line	61
	movlw	(01h)
	movwf	(??___fttol+0)+0
	movf	(??___fttol+0)+0,w
	addwf	(___fttol@exp1),f
	btfss	status,2
	goto	u276_21
	goto	u276_20
u276_21:
	goto	i1l2434
u276_20:
	goto	i1l2446
	
i1l791:	
	line	62
	goto	i1l2446
	
i1l788:	
	line	63
	
i1l2436:	
	movlw	(018h)
	subwf	(___fttol@exp1),w
	skipc
	goto	u277_21
	goto	u277_20
u277_21:
	goto	i1l2444
u277_20:
	line	64
	
i1l2438:	
	movlw	0
	movwf	(?___fttol+3)
	movlw	0
	movwf	(?___fttol+2)
	movlw	0
	movwf	(?___fttol+1)
	movlw	0
	movwf	(?___fttol)

	goto	i1l787
	
i1l2440:	
	goto	i1l787
	
i1l793:	
	line	65
	goto	i1l2444
	
i1l795:	
	line	66
	
i1l2442:	
	movlw	01h
	movwf	(??___fttol+0)+0
u278_25:
	clrc
	rlf	(___fttol@lval),f
	rlf	(___fttol@lval+1),f
	rlf	(___fttol@lval+2),f
	rlf	(___fttol@lval+3),f
	decfsz	(??___fttol+0)+0
	goto	u278_25
	line	67
	movlw	low(01h)
	subwf	(___fttol@exp1),f
	goto	i1l2444
	line	68
	
i1l794:	
	line	65
	
i1l2444:	
	movf	(___fttol@exp1),f
	skipz
	goto	u279_21
	goto	u279_20
u279_21:
	goto	i1l2442
u279_20:
	goto	i1l2446
	
i1l796:	
	goto	i1l2446
	line	69
	
i1l792:	
	line	70
	
i1l2446:	
	movf	(___fttol@sign1),w
	skipz
	goto	u280_20
	goto	i1l2450
u280_20:
	line	71
	
i1l2448:	
	comf	(___fttol@lval),f
	comf	(___fttol@lval+1),f
	comf	(___fttol@lval+2),f
	comf	(___fttol@lval+3),f
	incf	(___fttol@lval),f
	skipnz
	incf	(___fttol@lval+1),f
	skipnz
	incf	(___fttol@lval+2),f
	skipnz
	incf	(___fttol@lval+3),f
	goto	i1l2450
	
i1l797:	
	line	72
	
i1l2450:	
	movf	(___fttol@lval+3),w
	movwf	(?___fttol+3)
	movf	(___fttol@lval+2),w
	movwf	(?___fttol+2)
	movf	(___fttol@lval+1),w
	movwf	(?___fttol+1)
	movf	(___fttol@lval),w
	movwf	(?___fttol)

	goto	i1l787
	
i1l2452:	
	line	73
	
i1l787:	
	return
	opt stack 0
GLOBAL	__end_of___fttol
	__end_of___fttol:
	signat	___fttol,4220
	global	___ftmul

;; *************** function ___ftmul *****************
;; Defined at:
;;		line 62 in file "C:\Program Files (x86)\Microchip\xc8\v1.33\sources\common\ftmul.c"
;; Parameters:    Size  Location     Type
;;  f1              3    8[COMMON] float 
;;  f2              3   11[COMMON] float 
;; Auto vars:     Size  Location     Type
;;  f3_as_produc    3    5[BANK0 ] unsigned um
;;  sign            1    9[BANK0 ] unsigned char 
;;  cntr            1    8[BANK0 ] unsigned char 
;;  exp             1    4[BANK0 ] unsigned char 
;; Return value:  Size  Location     Type
;;                  3    8[COMMON] float 
;; Registers used:
;;		wreg, status,2, status,0, pclath, cstack
;; Tracked objects:
;;		On entry : 0/0
;;		On exit  : 0/0
;;		Unchanged: 0/0
;; Data sizes:     COMMON   BANK0   BANK1   BANK3   BANK2
;;      Params:         6       0       0       0       0
;;      Locals:         0       6       0       0       0
;;      Temps:          0       4       0       0       0
;;      Totals:         6      10       0       0       0
;;Total ram usage:       16 bytes
;; Hardware stack levels used:    1
;; Hardware stack levels required when called:    1
;; This function calls:
;;		___ftpack
;; This function is called by:
;;		_Fuzzy
;; This function uses a non-reentrant model
;;
psect	text34,local,class=CODE,delta=2,merge=1
	file	"C:\Program Files (x86)\Microchip\xc8\v1.33\sources\common\ftmul.c"
	line	62
global __ptext34
__ptext34:	;psect for function ___ftmul
psect	text34
	file	"C:\Program Files (x86)\Microchip\xc8\v1.33\sources\common\ftmul.c"
	line	62
	global	__size_of___ftmul
	__size_of___ftmul	equ	__end_of___ftmul-___ftmul
	
___ftmul:	
;incstack = 0
	opt	stack 2
; Regs used in ___ftmul: [wreg+status,2+status,0+pclath+cstack]
	line	67
	
i1l2360:	
	movf	(___ftmul@f1),w
	bcf	status, 5	;RP0=0, select bank0
	bcf	status, 6	;RP1=0, select bank0
	movwf	((??___ftmul+0)+0)
	movf	(___ftmul@f1+1),w
	movwf	((??___ftmul+0)+0+1)
	movf	(___ftmul@f1+2),w
	movwf	((??___ftmul+0)+0+2)
	clrc
	rlf	(??___ftmul+0)+1,w
	rlf	(??___ftmul+0)+2,w
	movwf	(??___ftmul+3)+0
	movf	(??___ftmul+3)+0,w
	movwf	(___ftmul@exp)
	movf	((___ftmul@exp)),f
	skipz
	goto	u257_21
	goto	u257_20
u257_21:
	goto	i1l2366
u257_20:
	line	68
	
i1l2362:	
	movlw	0x0
	movwf	(?___ftmul)
	movlw	0x0
	movwf	(?___ftmul+1)
	movlw	0x0
	movwf	(?___ftmul+2)
	goto	i1l767
	
i1l2364:	
	goto	i1l767
	
i1l766:	
	line	69
	
i1l2366:	
	movf	(___ftmul@f2),w
	movwf	((??___ftmul+0)+0)
	movf	(___ftmul@f2+1),w
	movwf	((??___ftmul+0)+0+1)
	movf	(___ftmul@f2+2),w
	movwf	((??___ftmul+0)+0+2)
	clrc
	rlf	(??___ftmul+0)+1,w
	rlf	(??___ftmul+0)+2,w
	movwf	(??___ftmul+3)+0
	movf	(??___ftmul+3)+0,w
	movwf	(___ftmul@sign)
	movf	((___ftmul@sign)),f
	skipz
	goto	u258_21
	goto	u258_20
u258_21:
	goto	i1l2372
u258_20:
	line	70
	
i1l2368:	
	movlw	0x0
	movwf	(?___ftmul)
	movlw	0x0
	movwf	(?___ftmul+1)
	movlw	0x0
	movwf	(?___ftmul+2)
	goto	i1l767
	
i1l2370:	
	goto	i1l767
	
i1l768:	
	line	71
	
i1l2372:	
	movf	(___ftmul@sign),w
	addlw	07Bh
	movwf	(??___ftmul+0)+0
	movf	(??___ftmul+0)+0,w
	addwf	(___ftmul@exp),f
	line	72
	movf	(___ftmul@f1),w
	movwf	((??___ftmul+0)+0)
	movf	(___ftmul@f1+1),w
	movwf	((??___ftmul+0)+0+1)
	movf	(___ftmul@f1+2),w
	movwf	((??___ftmul+0)+0+2)
	movlw	010h
u259_25:
	clrc
	rrf	(??___ftmul+0)+2,f
	rrf	(??___ftmul+0)+1,f
	rrf	(??___ftmul+0)+0,f
u259_20:
	addlw	-1
	skipz
	goto	u259_25
	movf	0+(??___ftmul+0)+0,w
	movwf	(??___ftmul+3)+0
	movf	(??___ftmul+3)+0,w
	movwf	(___ftmul@sign)
	line	73
	movf	(___ftmul@f2),w
	movwf	((??___ftmul+0)+0)
	movf	(___ftmul@f2+1),w
	movwf	((??___ftmul+0)+0+1)
	movf	(___ftmul@f2+2),w
	movwf	((??___ftmul+0)+0+2)
	movlw	010h
u260_25:
	clrc
	rrf	(??___ftmul+0)+2,f
	rrf	(??___ftmul+0)+1,f
	rrf	(??___ftmul+0)+0,f
u260_20:
	addlw	-1
	skipz
	goto	u260_25
	movf	0+(??___ftmul+0)+0,w
	movwf	(??___ftmul+3)+0
	movf	(??___ftmul+3)+0,w
	xorwf	(___ftmul@sign),f
	line	74
	movlw	(080h)
	movwf	(??___ftmul+0)+0
	movf	(??___ftmul+0)+0,w
	andwf	(___ftmul@sign),f
	line	75
	
i1l2374:	
	bsf	(___ftmul@f1)+(15/8),(15)&7
	line	77
	
i1l2376:	
	bsf	(___ftmul@f2)+(15/8),(15)&7
	line	78
	
i1l2378:	
	movlw	0FFh
	andwf	(___ftmul@f2),f
	movlw	0FFh
	andwf	(___ftmul@f2+1),f
	movlw	0
	andwf	(___ftmul@f2+2),f
	line	79
	
i1l2380:	
	movlw	0
	movwf	(___ftmul@f3_as_product)
	movlw	0
	movwf	(___ftmul@f3_as_product+1)
	movlw	0
	movwf	(___ftmul@f3_as_product+2)
	line	134
	
i1l2382:	
	movlw	(07h)
	movwf	(??___ftmul+0)+0
	movf	(??___ftmul+0)+0,w
	movwf	(___ftmul@cntr)
	goto	i1l2384
	line	135
	
i1l769:	
	line	136
	
i1l2384:	
	btfss	(___ftmul@f1),(0)&7
	goto	u261_21
	goto	u261_20
u261_21:
	goto	i1l2388
u261_20:
	line	137
	
i1l2386:	
	movf	(___ftmul@f2),w
	addwf	(___ftmul@f3_as_product),f
	movf	(___ftmul@f2+1),w
	clrz
	skipnc
	incf	(___ftmul@f2+1),w
	skipnz
	goto	u262_21
	addwf	(___ftmul@f3_as_product+1),f
u262_21:
	movf	(___ftmul@f2+2),w
	clrz
	skipnc
	incf	(___ftmul@f2+2),w
	skipnz
	goto	u262_22
	addwf	(___ftmul@f3_as_product+2),f
u262_22:

	goto	i1l2388
	
i1l770:	
	line	138
	
i1l2388:	
	movlw	01h
u263_25:
	clrc
	rrf	(___ftmul@f1+2),f
	rrf	(___ftmul@f1+1),f
	rrf	(___ftmul@f1),f
	addlw	-1
	skipz
	goto	u263_25

	line	139
	
i1l2390:	
	movlw	01h
u264_25:
	clrc
	rlf	(___ftmul@f2),f
	rlf	(___ftmul@f2+1),f
	rlf	(___ftmul@f2+2),f
	addlw	-1
	skipz
	goto	u264_25
	line	140
	
i1l2392:	
	movlw	low(01h)
	subwf	(___ftmul@cntr),f
	btfss	status,2
	goto	u265_21
	goto	u265_20
u265_21:
	goto	i1l2384
u265_20:
	goto	i1l2394
	
i1l771:	
	line	143
	
i1l2394:	
	movlw	(09h)
	movwf	(??___ftmul+0)+0
	movf	(??___ftmul+0)+0,w
	movwf	(___ftmul@cntr)
	goto	i1l2396
	line	144
	
i1l772:	
	line	145
	
i1l2396:	
	btfss	(___ftmul@f1),(0)&7
	goto	u266_21
	goto	u266_20
u266_21:
	goto	i1l2400
u266_20:
	line	146
	
i1l2398:	
	movf	(___ftmul@f2),w
	addwf	(___ftmul@f3_as_product),f
	movf	(___ftmul@f2+1),w
	clrz
	skipnc
	incf	(___ftmul@f2+1),w
	skipnz
	goto	u267_21
	addwf	(___ftmul@f3_as_product+1),f
u267_21:
	movf	(___ftmul@f2+2),w
	clrz
	skipnc
	incf	(___ftmul@f2+2),w
	skipnz
	goto	u267_22
	addwf	(___ftmul@f3_as_product+2),f
u267_22:

	goto	i1l2400
	
i1l773:	
	line	147
	
i1l2400:	
	movlw	01h
u268_25:
	clrc
	rrf	(___ftmul@f1+2),f
	rrf	(___ftmul@f1+1),f
	rrf	(___ftmul@f1),f
	addlw	-1
	skipz
	goto	u268_25

	line	148
	
i1l2402:	
	movlw	01h
u269_25:
	clrc
	rrf	(___ftmul@f3_as_product+2),f
	rrf	(___ftmul@f3_as_product+1),f
	rrf	(___ftmul@f3_as_product),f
	addlw	-1
	skipz
	goto	u269_25

	line	149
	
i1l2404:	
	movlw	low(01h)
	subwf	(___ftmul@cntr),f
	btfss	status,2
	goto	u270_21
	goto	u270_20
u270_21:
	goto	i1l2396
u270_20:
	goto	i1l2406
	
i1l774:	
	line	156
	
i1l2406:	
	movf	(___ftmul@f3_as_product),w
	movwf	(___ftpack@arg)
	movf	(___ftmul@f3_as_product+1),w
	movwf	(___ftpack@arg+1)
	movf	(___ftmul@f3_as_product+2),w
	movwf	(___ftpack@arg+2)
	movf	(___ftmul@exp),w
	movwf	(??___ftmul+0)+0
	movf	(??___ftmul+0)+0,w
	movwf	(___ftpack@exp)
	movf	(___ftmul@sign),w
	movwf	(??___ftmul+1)+0
	movf	(??___ftmul+1)+0,w
	movwf	(___ftpack@sign)
	fcall	___ftpack
	movf	(0+(?___ftpack)),w
	movwf	(?___ftmul)
	movf	(1+(?___ftpack)),w
	movwf	(?___ftmul+1)
	movf	(2+(?___ftpack)),w
	movwf	(?___ftmul+2)
	goto	i1l767
	
i1l2408:	
	line	157
	
i1l767:	
	return
	opt stack 0
GLOBAL	__end_of___ftmul
	__end_of___ftmul:
	signat	___ftmul,8315
	global	___awtoft

;; *************** function ___awtoft *****************
;; Defined at:
;;		line 32 in file "C:\Program Files (x86)\Microchip\xc8\v1.33\sources\common\awtoft.c"
;; Parameters:    Size  Location     Type
;;  c               2    8[COMMON] int 
;; Auto vars:     Size  Location     Type
;;  sign            1   13[COMMON] unsigned char 
;; Return value:  Size  Location     Type
;;                  3    8[COMMON] float 
;; Registers used:
;;		wreg, status,2, status,0, pclath, cstack
;; Tracked objects:
;;		On entry : 0/0
;;		On exit  : 0/0
;;		Unchanged: 0/0
;; Data sizes:     COMMON   BANK0   BANK1   BANK3   BANK2
;;      Params:         3       0       0       0       0
;;      Locals:         1       0       0       0       0
;;      Temps:          2       0       0       0       0
;;      Totals:         6       0       0       0       0
;;Total ram usage:        6 bytes
;; Hardware stack levels used:    1
;; Hardware stack levels required when called:    1
;; This function calls:
;;		___ftpack
;; This function is called by:
;;		_Fuzzy
;; This function uses a non-reentrant model
;;
psect	text35,local,class=CODE,delta=2,merge=1
	file	"C:\Program Files (x86)\Microchip\xc8\v1.33\sources\common\awtoft.c"
	line	32
global __ptext35
__ptext35:	;psect for function ___awtoft
psect	text35
	file	"C:\Program Files (x86)\Microchip\xc8\v1.33\sources\common\awtoft.c"
	line	32
	global	__size_of___awtoft
	__size_of___awtoft	equ	__end_of___awtoft-___awtoft
	
___awtoft:	
;incstack = 0
	opt	stack 2
; Regs used in ___awtoft: [wreg+status,2+status,0+pclath+cstack]
	line	36
	
i1l2348:	
	clrf	(___awtoft@sign)
	line	37
	
i1l2350:	
	btfss	(___awtoft@c+1),7
	goto	u256_21
	goto	u256_20
u256_21:
	goto	i1l2356
u256_20:
	line	38
	
i1l2352:	
	comf	(___awtoft@c),f
	comf	(___awtoft@c+1),f
	incf	(___awtoft@c),f
	skipnz
	incf	(___awtoft@c+1),f
	line	39
	
i1l2354:	
	clrf	(___awtoft@sign)
	incf	(___awtoft@sign),f
	goto	i1l2356
	line	40
	
i1l695:	
	line	41
	
i1l2356:	
	movf	(___awtoft@c),w
	movwf	(___ftpack@arg)
	movf	(___awtoft@c+1),w
	movwf	(___ftpack@arg+1)
	clrf	(___ftpack@arg+2)
	movlw	(08Eh)
	movwf	(??___awtoft+0)+0
	movf	(??___awtoft+0)+0,w
	movwf	(___ftpack@exp)
	movf	(___awtoft@sign),w
	movwf	(??___awtoft+1)+0
	movf	(??___awtoft+1)+0,w
	movwf	(___ftpack@sign)
	fcall	___ftpack
	movf	(0+(?___ftpack)),w
	movwf	(?___awtoft)
	movf	(1+(?___ftpack)),w
	movwf	(?___awtoft+1)
	movf	(2+(?___ftpack)),w
	movwf	(?___awtoft+2)
	goto	i1l696
	
i1l2358:	
	line	42
	
i1l696:	
	return
	opt stack 0
GLOBAL	__end_of___awtoft
	__end_of___awtoft:
	signat	___awtoft,4219
	global	___ftpack

;; *************** function ___ftpack *****************
;; Defined at:
;;		line 62 in file "C:\Program Files (x86)\Microchip\xc8\v1.33\sources\common\float.c"
;; Parameters:    Size  Location     Type
;;  arg             3    0[COMMON] unsigned um
;;  exp             1    3[COMMON] unsigned char 
;;  sign            1    4[COMMON] unsigned char 
;; Auto vars:     Size  Location     Type
;;		None
;; Return value:  Size  Location     Type
;;                  3    0[COMMON] float 
;; Registers used:
;;		wreg, status,2, status,0
;; Tracked objects:
;;		On entry : 0/0
;;		On exit  : 0/0
;;		Unchanged: 0/0
;; Data sizes:     COMMON   BANK0   BANK1   BANK3   BANK2
;;      Params:         5       0       0       0       0
;;      Locals:         0       0       0       0       0
;;      Temps:          3       0       0       0       0
;;      Totals:         8       0       0       0       0
;;Total ram usage:        8 bytes
;; Hardware stack levels used:    1
;; This function calls:
;;		Nothing
;; This function is called by:
;;		___awtoft
;;		___ftadd
;;		___ftdiv
;;		___ftmul
;;		___lwtoft
;; This function uses a non-reentrant model
;;
psect	text36,local,class=CODE,delta=2,merge=1
	file	"C:\Program Files (x86)\Microchip\xc8\v1.33\sources\common\float.c"
	line	62
global __ptext36
__ptext36:	;psect for function ___ftpack
psect	text36
	file	"C:\Program Files (x86)\Microchip\xc8\v1.33\sources\common\float.c"
	line	62
	global	__size_of___ftpack
	__size_of___ftpack	equ	__end_of___ftpack-___ftpack
	
___ftpack:	
;incstack = 0
	opt	stack 1
; Regs used in ___ftpack: [wreg+status,2+status,0]
	line	64
	
i1l2032:	
	movf	(___ftpack@exp),w
	skipz
	goto	u176_20
	goto	i1l2036
u176_20:
	
i1l2034:	
	movf	(___ftpack@arg+2),w
	iorwf	(___ftpack@arg+1),w
	iorwf	(___ftpack@arg),w
	skipz
	goto	u177_21
	goto	u177_20
u177_21:
	goto	i1l2042
u177_20:
	goto	i1l2036
	
i1l701:	
	line	65
	
i1l2036:	
	movlw	0x0
	movwf	(?___ftpack)
	movlw	0x0
	movwf	(?___ftpack+1)
	movlw	0x0
	movwf	(?___ftpack+2)
	goto	i1l702
	
i1l2038:	
	goto	i1l702
	
i1l699:	
	line	66
	goto	i1l2042
	
i1l704:	
	line	67
	
i1l2040:	
	movlw	(01h)
	movwf	(??___ftpack+0)+0
	movf	(??___ftpack+0)+0,w
	addwf	(___ftpack@exp),f
	line	68
	movlw	01h
u178_25:
	clrc
	rrf	(___ftpack@arg+2),f
	rrf	(___ftpack@arg+1),f
	rrf	(___ftpack@arg),f
	addlw	-1
	skipz
	goto	u178_25

	goto	i1l2042
	line	69
	
i1l703:	
	line	66
	
i1l2042:	
	movlw	low highword(0FE0000h)
	andwf	(___ftpack@arg+2),w
	btfss	status,2
	goto	u179_21
	goto	u179_20
u179_21:
	goto	i1l2040
u179_20:
	goto	i1l706
	
i1l705:	
	line	70
	goto	i1l706
	
i1l707:	
	line	71
	
i1l2044:	
	movlw	(01h)
	movwf	(??___ftpack+0)+0
	movf	(??___ftpack+0)+0,w
	addwf	(___ftpack@exp),f
	line	72
	
i1l2046:	
	movlw	01h
	addwf	(___ftpack@arg),f
	movlw	0
	skipnc
movlw 1
	addwf	(___ftpack@arg+1),f
	movlw	0
	skipnc
movlw 1
	addwf	(___ftpack@arg+2),f
	line	73
	
i1l2048:	
	movlw	01h
u180_25:
	clrc
	rrf	(___ftpack@arg+2),f
	rrf	(___ftpack@arg+1),f
	rrf	(___ftpack@arg),f
	addlw	-1
	skipz
	goto	u180_25

	line	74
	
i1l706:	
	line	70
	movlw	low highword(0FF0000h)
	andwf	(___ftpack@arg+2),w
	btfss	status,2
	goto	u181_21
	goto	u181_20
u181_21:
	goto	i1l2044
u181_20:
	goto	i1l2052
	
i1l708:	
	line	75
	goto	i1l2052
	
i1l710:	
	line	76
	
i1l2050:	
	movlw	low(01h)
	subwf	(___ftpack@exp),f
	line	77
	movlw	01h
u182_25:
	clrc
	rlf	(___ftpack@arg),f
	rlf	(___ftpack@arg+1),f
	rlf	(___ftpack@arg+2),f
	addlw	-1
	skipz
	goto	u182_25
	goto	i1l2052
	line	78
	
i1l709:	
	line	75
	
i1l2052:	
	btfss	(___ftpack@arg+1),(15)&7
	goto	u183_21
	goto	u183_20
u183_21:
	goto	i1l2050
u183_20:
	
i1l711:	
	line	79
	btfsc	(___ftpack@exp),(0)&7
	goto	u184_21
	goto	u184_20
u184_21:
	goto	i1l712
u184_20:
	line	80
	
i1l2054:	
	movlw	0FFh
	andwf	(___ftpack@arg),f
	movlw	07Fh
	andwf	(___ftpack@arg+1),f
	movlw	0FFh
	andwf	(___ftpack@arg+2),f
	
i1l712:	
	line	81
	clrc
	rrf	(___ftpack@exp),f

	line	82
	
i1l2056:	
	movf	(___ftpack@exp),w
	movwf	((??___ftpack+0)+0)
	clrf	((??___ftpack+0)+0+1)
	clrf	((??___ftpack+0)+0+2)
	movlw	010h
u185_25:
	clrc
	rlf	(??___ftpack+0)+0,f
	rlf	(??___ftpack+0)+1,f
	rlf	(??___ftpack+0)+2,f
u185_20:
	addlw	-1
	skipz
	goto	u185_25
	movf	0+(??___ftpack+0)+0,w
	iorwf	(___ftpack@arg),f
	movf	1+(??___ftpack+0)+0,w
	iorwf	(___ftpack@arg+1),f
	movf	2+(??___ftpack+0)+0,w
	iorwf	(___ftpack@arg+2),f
	line	83
	
i1l2058:	
	movf	(___ftpack@sign),w
	skipz
	goto	u186_20
	goto	i1l713
u186_20:
	line	84
	
i1l2060:	
	bsf	(___ftpack@arg)+(23/8),(23)&7
	
i1l713:	
	line	85
	line	86
	
i1l702:	
	return
	opt stack 0
GLOBAL	__end_of___ftpack
	__end_of___ftpack:
	signat	___ftpack,12411
global	___latbits
___latbits	equ	2
	global	btemp
	btemp set 07Eh

	DABS	1,126,2	;btemp
	global	wtemp
	global	wtemp0
	wtemp set btemp
	wtemp0 set btemp
	global	wtemp1
	wtemp1 set btemp+2
	global	wtemp2
	wtemp2 set btemp+4
	global	wtemp3
	wtemp3 set btemp+6
	global	wtemp4
	wtemp4 set btemp+8
	global	wtemp5
	wtemp5 set btemp+10
	global	wtemp6
	wtemp6 set btemp+1
	global	ttemp
	global	ttemp0
	ttemp set btemp
	ttemp0 set btemp
	global	ttemp1
	ttemp1 set btemp+3
	global	ttemp2
	ttemp2 set btemp+6
	global	ttemp3
	ttemp3 set btemp+9
	global	ttemp4
	ttemp4 set btemp+1
	global	ltemp
	global	ltemp0
	ltemp set btemp
	ltemp0 set btemp
	global	ltemp1
	ltemp1 set btemp+4
	global	ltemp2
	ltemp2 set btemp+8
	global	ltemp3
	ltemp3 set btemp+2
	end
